Component: ARM Compiler 5.06 update 6 (build 750) Tool: armlink [4d35ed]

==============================================================================

Section Cross References

    .\objects\main.o(i.__sti___8_main_cpp_myled) refers to D:\ProgramFiles\Keil_v5\ARM\ARMCC\Bin\..\lib\armlib\c_w.l(rt_memclr_w.o)(.text) for __aeabi_memclr4
    .\objects\main.o(i.__sti___8_main_cpp_myled) refers to .\objects\mbed_gpio.o(i.gpio_init_out) for gpio_init_out
    .\objects\main.o(i.__sti___8_main_cpp_myled) refers to .\objects\main.o(.bss) for myled
    .\objects\main.o(i.main) refers to .\objects\main.o(i._ZN4mbed10DigitalOutaSEi) for mbed::DigitalOut::operator =(int)
    .\objects\main.o(i.main) refers to .\objects\mbed_wait_api_rtos.o(i.wait) for wait
    .\objects\main.o(i.main) refers to .\objects\main.o(.bss) for myled
    .\objects\main.o(.ARM.exidx) refers to .\objects\main.o(i.main) for i.main
    .\objects\main.o(.ARM.exidx) refers to .\objects\main.o(i.__sti___8_main_cpp_myled) for i.__sti___8_main_cpp_myled
    .\objects\main.o(.init_array) refers to .\objects\main.o(i.__sti___8_main_cpp_myled) for __sti___8_main_cpp_myled
    .\objects\main.o(.init_array) refers to D:\ProgramFiles\Keil_v5\ARM\ARMCC\Bin\..\lib\armlib\c_w.l(init_aeabi.o)(.text) for __cpp_initialize__aeabi_
    .\objects\busin.o(i._ZN4mbed5BusIn4lockEv) refers to .\objects\mutex.o(i._ZN4rtos5Mutex4lockEv) for rtos::Mutex::lock()
    .\objects\busin.o(i._ZN4mbed5BusIn4modeE7PinMode) refers to .\objects\mbed_critical.o(i.core_util_critical_section_enter) for core_util_critical_section_enter
    .\objects\busin.o(i._ZN4mbed5BusIn4modeE7PinMode) refers to .\objects\gpio_api.o(i.gpio_mode) for gpio_mode
    .\objects\busin.o(i._ZN4mbed5BusIn4modeE7PinMode) refers to .\objects\mbed_critical.o(i.core_util_critical_section_exit) for core_util_critical_section_exit
    .\objects\busin.o(i._ZN4mbed5BusIn6unlockEv) refers to .\objects\mutex.o(i._ZN4rtos5Mutex6unlockEv) for rtos::Mutex::unlock()
    .\objects\busin.o(i._ZN4mbed5BusInC1E7PinNameS1_S1_S1_S1_S1_S1_S1_S1_S1_S1_S1_S1_S1_S1_S1_) refers to .\objects\mutex.o(i._ZN4rtos5MutexC1Ev) for rtos::Mutex::Mutex()
    .\objects\busin.o(i._ZN4mbed5BusInC1E7PinNameS1_S1_S1_S1_S1_S1_S1_S1_S1_S1_S1_S1_S1_S1_S1_) refers to .\objects\mbed_retarget.o(i._Znwj) for operator new(unsigned)
    .\objects\busin.o(i._ZN4mbed5BusInC1E7PinNameS1_S1_S1_S1_S1_S1_S1_S1_S1_S1_S1_S1_S1_S1_S1_) refers to .\objects\busin.o(i._ZN4mbed9DigitalInC1E7PinName) for mbed::DigitalIn::DigitalIn(PinName)
    .\objects\busin.o(i._ZN4mbed5BusInC1E7PinNameS1_S1_S1_S1_S1_S1_S1_S1_S1_S1_S1_S1_S1_S1_S1_) refers to .\objects\busin.o(.constdata__ZTVN4mbed5BusInE) for vtable for mbed::BusIn
    .\objects\busin.o(i._ZN4mbed5BusInC1EP7PinName) refers to .\objects\mutex.o(i._ZN4rtos5MutexC1Ev) for rtos::Mutex::Mutex()
    .\objects\busin.o(i._ZN4mbed5BusInC1EP7PinName) refers to .\objects\mbed_retarget.o(i._Znwj) for operator new(unsigned)
    .\objects\busin.o(i._ZN4mbed5BusInC1EP7PinName) refers to .\objects\busin.o(i._ZN4mbed9DigitalInC1E7PinName) for mbed::DigitalIn::DigitalIn(PinName)
    .\objects\busin.o(i._ZN4mbed5BusInC1EP7PinName) refers to .\objects\busin.o(.constdata__ZTVN4mbed5BusInE) for vtable for mbed::BusIn
    .\objects\busin.o(i._ZN4mbed5BusInD0Ev) refers to .\objects\busin.o(i._ZN4mbed5BusInD1Ev) for mbed::BusIn::~BusIn()
    .\objects\busin.o(i._ZN4mbed5BusInD0Ev) refers to .\objects\mbed_retarget.o(i._ZdlPv) for operator delete (void*)
    .\objects\busin.o(i._ZN4mbed5BusInD1Ev) refers to .\objects\mbed_retarget.o(i._ZdlPv) for operator delete (void*)
    .\objects\busin.o(i._ZN4mbed5BusInD1Ev) refers to .\objects\mutex.o(i._ZN4rtos5MutexD1Ev) for rtos::Mutex::~Mutex()
    .\objects\busin.o(i._ZN4mbed5BusInD1Ev) refers to .\objects\busin.o(.constdata__ZTVN4mbed5BusInE) for vtable for mbed::BusIn
    .\objects\busin.o(i._ZN4mbed5BusIncviEv) refers to .\objects\busin.o(i._ZN4mbed5BusIn4readEv) for mbed::BusIn::read()
    .\objects\busin.o(i._ZN4mbed5BusInixEi) refers to .\objects\mbed_assert.o(i.mbed_assert_internal) for mbed_assert_internal
    .\objects\busin.o(.ARM.exidx) refers to .\objects\busin.o(i._ZN4mbed5BusInC1E7PinNameS1_S1_S1_S1_S1_S1_S1_S1_S1_S1_S1_S1_S1_S1_S1_) for i._ZN4mbed5BusInC1E7PinNameS1_S1_S1_S1_S1_S1_S1_S1_S1_S1_S1_S1_S1_S1_S1_
    .\objects\busin.o(.ARM.exidx) refers to .\objects\busin.o(i._ZN4mbed5BusInC1EP7PinName) for i._ZN4mbed5BusInC1EP7PinName
    .\objects\busin.o(.ARM.exidx) refers to .\objects\busin.o(i._ZN4mbed5BusInD1Ev) for i._ZN4mbed5BusInD1Ev
    .\objects\busin.o(.ARM.exidx) refers to .\objects\busin.o(i._ZN4mbed5BusInD0Ev) for i._ZN4mbed5BusInD0Ev
    .\objects\busin.o(.ARM.exidx) refers to .\objects\busin.o(i._ZN4mbed5BusIn4readEv) for i._ZN4mbed5BusIn4readEv
    .\objects\busin.o(.ARM.exidx) refers to .\objects\busin.o(i._ZN4mbed5BusIn4modeE7PinMode) for i._ZN4mbed5BusIn4modeE7PinMode
    .\objects\busin.o(.ARM.exidx) refers to .\objects\busin.o(i._ZN4mbed5BusIncviEv) for i._ZN4mbed5BusIncviEv
    .\objects\busin.o(.ARM.exidx) refers to .\objects\busin.o(i._ZN4mbed5BusInixEi) for i._ZN4mbed5BusInixEi
    .\objects\busin.o(.ARM.exidx) refers to .\objects\busin.o(i._ZN4mbed5BusIn4lockEv) for i._ZN4mbed5BusIn4lockEv
    .\objects\busin.o(.ARM.exidx) refers to .\objects\busin.o(i._ZN4mbed5BusIn6unlockEv) for i._ZN4mbed5BusIn6unlockEv
    .\objects\businout.o(i._ZN4mbed8BusInOut4lockEv) refers to .\objects\mutex.o(i._ZN4rtos5Mutex4lockEv) for rtos::Mutex::lock()
    .\objects\businout.o(i._ZN4mbed8BusInOut4modeE7PinMode) refers to .\objects\mbed_critical.o(i.core_util_critical_section_enter) for core_util_critical_section_enter
    .\objects\businout.o(i._ZN4mbed8BusInOut4modeE7PinMode) refers to .\objects\gpio_api.o(i.gpio_mode) for gpio_mode
    .\objects\businout.o(i._ZN4mbed8BusInOut4modeE7PinMode) refers to .\objects\mbed_critical.o(i.core_util_critical_section_exit) for core_util_critical_section_exit
    .\objects\businout.o(i._ZN4mbed8BusInOut5inputEv) refers to .\objects\mbed_critical.o(i.core_util_critical_section_enter) for core_util_critical_section_enter
    .\objects\businout.o(i._ZN4mbed8BusInOut5inputEv) refers to .\objects\gpio_api.o(i.gpio_dir) for gpio_dir
    .\objects\businout.o(i._ZN4mbed8BusInOut5inputEv) refers to .\objects\mbed_critical.o(i.core_util_critical_section_exit) for core_util_critical_section_exit
    .\objects\businout.o(i._ZN4mbed8BusInOut6outputEv) refers to .\objects\mbed_critical.o(i.core_util_critical_section_enter) for core_util_critical_section_enter
    .\objects\businout.o(i._ZN4mbed8BusInOut6outputEv) refers to .\objects\gpio_api.o(i.gpio_dir) for gpio_dir
    .\objects\businout.o(i._ZN4mbed8BusInOut6outputEv) refers to .\objects\mbed_critical.o(i.core_util_critical_section_exit) for core_util_critical_section_exit
    .\objects\businout.o(i._ZN4mbed8BusInOut6unlockEv) refers to .\objects\mutex.o(i._ZN4rtos5Mutex6unlockEv) for rtos::Mutex::unlock()
    .\objects\businout.o(i._ZN4mbed8BusInOutC1E7PinNameS1_S1_S1_S1_S1_S1_S1_S1_S1_S1_S1_S1_S1_S1_S1_) refers to .\objects\mutex.o(i._ZN4rtos5MutexC1Ev) for rtos::Mutex::Mutex()
    .\objects\businout.o(i._ZN4mbed8BusInOutC1E7PinNameS1_S1_S1_S1_S1_S1_S1_S1_S1_S1_S1_S1_S1_S1_S1_) refers to .\objects\mbed_retarget.o(i._Znwj) for operator new(unsigned)
    .\objects\businout.o(i._ZN4mbed8BusInOutC1E7PinNameS1_S1_S1_S1_S1_S1_S1_S1_S1_S1_S1_S1_S1_S1_S1_) refers to .\objects\businout.o(i._ZN4mbed12DigitalInOutC1E7PinName) for mbed::DigitalInOut::DigitalInOut(PinName)
    .\objects\businout.o(i._ZN4mbed8BusInOutC1E7PinNameS1_S1_S1_S1_S1_S1_S1_S1_S1_S1_S1_S1_S1_S1_S1_) refers to .\objects\businout.o(.constdata__ZTVN4mbed8BusInOutE) for vtable for mbed::BusInOut
    .\objects\businout.o(i._ZN4mbed8BusInOutC1EP7PinName) refers to .\objects\mutex.o(i._ZN4rtos5MutexC1Ev) for rtos::Mutex::Mutex()
    .\objects\businout.o(i._ZN4mbed8BusInOutC1EP7PinName) refers to .\objects\mbed_retarget.o(i._Znwj) for operator new(unsigned)
    .\objects\businout.o(i._ZN4mbed8BusInOutC1EP7PinName) refers to .\objects\businout.o(i._ZN4mbed12DigitalInOutC1E7PinName) for mbed::DigitalInOut::DigitalInOut(PinName)
    .\objects\businout.o(i._ZN4mbed8BusInOutC1EP7PinName) refers to .\objects\businout.o(.constdata__ZTVN4mbed8BusInOutE) for vtable for mbed::BusInOut
    .\objects\businout.o(i._ZN4mbed8BusInOutD0Ev) refers to .\objects\businout.o(i._ZN4mbed8BusInOutD1Ev) for mbed::BusInOut::~BusInOut()
    .\objects\businout.o(i._ZN4mbed8BusInOutD0Ev) refers to .\objects\mbed_retarget.o(i._ZdlPv) for operator delete (void*)
    .\objects\businout.o(i._ZN4mbed8BusInOutD1Ev) refers to .\objects\mbed_retarget.o(i._ZdlPv) for operator delete (void*)
    .\objects\businout.o(i._ZN4mbed8BusInOutD1Ev) refers to .\objects\mutex.o(i._ZN4rtos5MutexD1Ev) for rtos::Mutex::~Mutex()
    .\objects\businout.o(i._ZN4mbed8BusInOutD1Ev) refers to .\objects\businout.o(.constdata__ZTVN4mbed8BusInOutE) for vtable for mbed::BusInOut
    .\objects\businout.o(i._ZN4mbed8BusInOutaSERS0_) refers to .\objects\businout.o(i._ZN4mbed8BusInOut4readEv) for mbed::BusInOut::read()
    .\objects\businout.o(i._ZN4mbed8BusInOutaSERS0_) refers to .\objects\businout.o(i._ZN4mbed8BusInOut5writeEi) for mbed::BusInOut::write(int)
    .\objects\businout.o(i._ZN4mbed8BusInOutaSEi) refers to .\objects\businout.o(i._ZN4mbed8BusInOut5writeEi) for mbed::BusInOut::write(int)
    .\objects\businout.o(i._ZN4mbed8BusInOutcviEv) refers to .\objects\businout.o(i._ZN4mbed8BusInOut4readEv) for mbed::BusInOut::read()
    .\objects\businout.o(i._ZN4mbed8BusInOutixEi) refers to .\objects\mbed_assert.o(i.mbed_assert_internal) for mbed_assert_internal
    .\objects\businout.o(.ARM.exidx) refers to .\objects\businout.o(i._ZN4mbed8BusInOutC1E7PinNameS1_S1_S1_S1_S1_S1_S1_S1_S1_S1_S1_S1_S1_S1_S1_) for i._ZN4mbed8BusInOutC1E7PinNameS1_S1_S1_S1_S1_S1_S1_S1_S1_S1_S1_S1_S1_S1_S1_
    .\objects\businout.o(.ARM.exidx) refers to .\objects\businout.o(i._ZN4mbed8BusInOutC1EP7PinName) for i._ZN4mbed8BusInOutC1EP7PinName
    .\objects\businout.o(.ARM.exidx) refers to .\objects\businout.o(i._ZN4mbed8BusInOutD1Ev) for i._ZN4mbed8BusInOutD1Ev
    .\objects\businout.o(.ARM.exidx) refers to .\objects\businout.o(i._ZN4mbed8BusInOutD0Ev) for i._ZN4mbed8BusInOutD0Ev
    .\objects\businout.o(.ARM.exidx) refers to .\objects\businout.o(i._ZN4mbed8BusInOut5writeEi) for i._ZN4mbed8BusInOut5writeEi
    .\objects\businout.o(.ARM.exidx) refers to .\objects\businout.o(i._ZN4mbed8BusInOut4readEv) for i._ZN4mbed8BusInOut4readEv
    .\objects\businout.o(.ARM.exidx) refers to .\objects\businout.o(i._ZN4mbed8BusInOut6outputEv) for i._ZN4mbed8BusInOut6outputEv
    .\objects\businout.o(.ARM.exidx) refers to .\objects\businout.o(i._ZN4mbed8BusInOut5inputEv) for i._ZN4mbed8BusInOut5inputEv
    .\objects\businout.o(.ARM.exidx) refers to .\objects\businout.o(i._ZN4mbed8BusInOut4modeE7PinMode) for i._ZN4mbed8BusInOut4modeE7PinMode
    .\objects\businout.o(.ARM.exidx) refers to .\objects\businout.o(i._ZN4mbed8BusInOutaSEi) for i._ZN4mbed8BusInOutaSEi
    .\objects\businout.o(.ARM.exidx) refers to .\objects\businout.o(i._ZN4mbed8BusInOutaSERS0_) for i._ZN4mbed8BusInOutaSERS0_
    .\objects\businout.o(.ARM.exidx) refers to .\objects\businout.o(i._ZN4mbed8BusInOutixEi) for i._ZN4mbed8BusInOutixEi
    .\objects\businout.o(.ARM.exidx) refers to .\objects\businout.o(i._ZN4mbed8BusInOutcviEv) for i._ZN4mbed8BusInOutcviEv
    .\objects\businout.o(.ARM.exidx) refers to .\objects\businout.o(i._ZN4mbed8BusInOut4lockEv) for i._ZN4mbed8BusInOut4lockEv
    .\objects\businout.o(.ARM.exidx) refers to .\objects\businout.o(i._ZN4mbed8BusInOut6unlockEv) for i._ZN4mbed8BusInOut6unlockEv
    .\objects\busout.o(i._ZN4mbed6BusOut4lockEv) refers to .\objects\mutex.o(i._ZN4rtos5Mutex4lockEv) for rtos::Mutex::lock()
    .\objects\busout.o(i._ZN4mbed6BusOut6unlockEv) refers to .\objects\mutex.o(i._ZN4rtos5Mutex6unlockEv) for rtos::Mutex::unlock()
    .\objects\busout.o(i._ZN4mbed6BusOutC1E7PinNameS1_S1_S1_S1_S1_S1_S1_S1_S1_S1_S1_S1_S1_S1_S1_) refers to .\objects\mutex.o(i._ZN4rtos5MutexC1Ev) for rtos::Mutex::Mutex()
    .\objects\busout.o(i._ZN4mbed6BusOutC1E7PinNameS1_S1_S1_S1_S1_S1_S1_S1_S1_S1_S1_S1_S1_S1_S1_) refers to .\objects\mbed_retarget.o(i._Znwj) for operator new(unsigned)
    .\objects\busout.o(i._ZN4mbed6BusOutC1E7PinNameS1_S1_S1_S1_S1_S1_S1_S1_S1_S1_S1_S1_S1_S1_S1_) refers to .\objects\busout.o(i._ZN4mbed10DigitalOutC1E7PinName) for mbed::DigitalOut::DigitalOut(PinName)
    .\objects\busout.o(i._ZN4mbed6BusOutC1E7PinNameS1_S1_S1_S1_S1_S1_S1_S1_S1_S1_S1_S1_S1_S1_S1_) refers to .\objects\busout.o(.constdata__ZTVN4mbed6BusOutE) for vtable for mbed::BusOut
    .\objects\busout.o(i._ZN4mbed6BusOutC1EP7PinName) refers to .\objects\mutex.o(i._ZN4rtos5MutexC1Ev) for rtos::Mutex::Mutex()
    .\objects\busout.o(i._ZN4mbed6BusOutC1EP7PinName) refers to .\objects\mbed_retarget.o(i._Znwj) for operator new(unsigned)
    .\objects\busout.o(i._ZN4mbed6BusOutC1EP7PinName) refers to .\objects\busout.o(i._ZN4mbed10DigitalOutC1E7PinName) for mbed::DigitalOut::DigitalOut(PinName)
    .\objects\busout.o(i._ZN4mbed6BusOutC1EP7PinName) refers to .\objects\busout.o(.constdata__ZTVN4mbed6BusOutE) for vtable for mbed::BusOut
    .\objects\busout.o(i._ZN4mbed6BusOutD0Ev) refers to .\objects\busout.o(i._ZN4mbed6BusOutD1Ev) for mbed::BusOut::~BusOut()
    .\objects\busout.o(i._ZN4mbed6BusOutD0Ev) refers to .\objects\mbed_retarget.o(i._ZdlPv) for operator delete (void*)
    .\objects\busout.o(i._ZN4mbed6BusOutD1Ev) refers to .\objects\mbed_retarget.o(i._ZdlPv) for operator delete (void*)
    .\objects\busout.o(i._ZN4mbed6BusOutD1Ev) refers to .\objects\mutex.o(i._ZN4rtos5MutexD1Ev) for rtos::Mutex::~Mutex()
    .\objects\busout.o(i._ZN4mbed6BusOutD1Ev) refers to .\objects\busout.o(.constdata__ZTVN4mbed6BusOutE) for vtable for mbed::BusOut
    .\objects\busout.o(i._ZN4mbed6BusOutaSERS0_) refers to .\objects\busout.o(i._ZN4mbed6BusOut4readEv) for mbed::BusOut::read()
    .\objects\busout.o(i._ZN4mbed6BusOutaSERS0_) refers to .\objects\busout.o(i._ZN4mbed6BusOut5writeEi) for mbed::BusOut::write(int)
    .\objects\busout.o(i._ZN4mbed6BusOutaSEi) refers to .\objects\busout.o(i._ZN4mbed6BusOut5writeEi) for mbed::BusOut::write(int)
    .\objects\busout.o(i._ZN4mbed6BusOutcviEv) refers to .\objects\busout.o(i._ZN4mbed6BusOut4readEv) for mbed::BusOut::read()
    .\objects\busout.o(i._ZN4mbed6BusOutixEi) refers to .\objects\mbed_assert.o(i.mbed_assert_internal) for mbed_assert_internal
    .\objects\busout.o(.ARM.exidx) refers to .\objects\busout.o(i._ZN4mbed6BusOutC1E7PinNameS1_S1_S1_S1_S1_S1_S1_S1_S1_S1_S1_S1_S1_S1_S1_) for i._ZN4mbed6BusOutC1E7PinNameS1_S1_S1_S1_S1_S1_S1_S1_S1_S1_S1_S1_S1_S1_S1_
    .\objects\busout.o(.ARM.exidx) refers to .\objects\busout.o(i._ZN4mbed6BusOutC1EP7PinName) for i._ZN4mbed6BusOutC1EP7PinName
    .\objects\busout.o(.ARM.exidx) refers to .\objects\busout.o(i._ZN4mbed6BusOutD1Ev) for i._ZN4mbed6BusOutD1Ev
    .\objects\busout.o(.ARM.exidx) refers to .\objects\busout.o(i._ZN4mbed6BusOutD0Ev) for i._ZN4mbed6BusOutD0Ev
    .\objects\busout.o(.ARM.exidx) refers to .\objects\busout.o(i._ZN4mbed6BusOut5writeEi) for i._ZN4mbed6BusOut5writeEi
    .\objects\busout.o(.ARM.exidx) refers to .\objects\busout.o(i._ZN4mbed6BusOut4readEv) for i._ZN4mbed6BusOut4readEv
    .\objects\busout.o(.ARM.exidx) refers to .\objects\busout.o(i._ZN4mbed6BusOutaSEi) for i._ZN4mbed6BusOutaSEi
    .\objects\busout.o(.ARM.exidx) refers to .\objects\busout.o(i._ZN4mbed6BusOutaSERS0_) for i._ZN4mbed6BusOutaSERS0_
    .\objects\busout.o(.ARM.exidx) refers to .\objects\busout.o(i._ZN4mbed6BusOutixEi) for i._ZN4mbed6BusOutixEi
    .\objects\busout.o(.ARM.exidx) refers to .\objects\busout.o(i._ZN4mbed6BusOutcviEv) for i._ZN4mbed6BusOutcviEv
    .\objects\busout.o(.ARM.exidx) refers to .\objects\busout.o(i._ZN4mbed6BusOut4lockEv) for i._ZN4mbed6BusOut4lockEv
    .\objects\busout.o(.ARM.exidx) refers to .\objects\busout.o(i._ZN4mbed6BusOut6unlockEv) for i._ZN4mbed6BusOut6unlockEv
    .\objects\can.o(i.<Func2>) refers to .\objects\can.o(t._ZN4mbed8CallbackIFvvEEC1EPS1_) for mbed::Callback<void()>::Callback(void(*)())
    .\objects\can.o(i._ZN4mbed3CAN12_irq_handlerEj10CanIrqType) refers to .\objects\can.o(t._ZNK4mbed8CallbackIFvvEEcvbEv) for mbed::Callback<void()>::operator bool() const
    .\objects\can.o(i._ZN4mbed3CAN12_irq_handlerEj10CanIrqType) refers to .\objects\mbed_assert.o(i.mbed_assert_internal) for mbed_assert_internal
    .\objects\can.o(i._ZN4mbed3CAN12_irq_handlerEj10CanIrqType) refers to .\objects\can.o(.constdata__ZZNK4mbed8CallbackIFvvEE4callEvEs_0) for mbed::Callback<void()>::call() const::string (instance 2)
    .\objects\can.o(i._ZN4mbed3CAN12_irq_handlerEj10CanIrqType) refers to .\objects\can.o(.constdata__ZZNK4mbed8CallbackIFvvEE4callEvEs) for mbed::Callback<void()>::call() const::string
    .\objects\can.o(i._ZN4mbed3CAN4lockEv) refers to .\objects\mutex.o(i._ZN4rtos5Mutex4lockEv) for rtos::Mutex::lock()
    .\objects\can.o(i._ZN4mbed3CAN4modeENS0_4ModeE) refers to .\objects\can_api.o(i.can_mode) for can_mode
    .\objects\can.o(i._ZN4mbed3CAN4readERNS_10CANMessageEi) refers to .\objects\can_api.o(i.can_read) for can_read
    .\objects\can.o(i._ZN4mbed3CAN5resetEv) refers to .\objects\can_api.o(i.can_reset) for can_reset
    .\objects\can.o(i._ZN4mbed3CAN5writeENS_10CANMessageE) refers to .\objects\can_api.o(i.can_write) for can_write
    .\objects\can.o(i._ZN4mbed3CAN6attachENS_8CallbackIFvvEEENS0_7IrqTypeE) refers to .\objects\can.o(t._ZNK4mbed8CallbackIFvvEEcvbEv) for mbed::Callback<void()>::operator bool() const
    .\objects\can.o(i._ZN4mbed3CAN6attachENS_8CallbackIFvvEEENS0_7IrqTypeE) refers to .\objects\mbed_sleep_manager.o(i.sleep_manager_lock_deep_sleep_internal) for sleep_manager_lock_deep_sleep_internal
    .\objects\can.o(i._ZN4mbed3CAN6attachENS_8CallbackIFvvEEENS0_7IrqTypeE) refers to .\objects\can.o(t._ZN4mbed8CallbackIFvvEEaSERKS2_) for mbed::Callback<void()>::operator =(const mbed::Callback<void()>&)
    .\objects\can.o(i._ZN4mbed3CAN6attachENS_8CallbackIFvvEEENS0_7IrqTypeE) refers to .\objects\can_api.o(i.can_irq_set) for can_irq_set
    .\objects\can.o(i._ZN4mbed3CAN6attachENS_8CallbackIFvvEEENS0_7IrqTypeE) refers to .\objects\mbed_sleep_manager.o(i.sleep_manager_unlock_deep_sleep_internal) for sleep_manager_unlock_deep_sleep_internal
    .\objects\can.o(i._ZN4mbed3CAN6attachENS_8CallbackIFvvEEENS0_7IrqTypeE) refers to .\objects\can.o(t._ZN4mbed8CallbackIFvvEEC1EPS1_) for mbed::Callback<void()>::Callback(void(*)())
    .\objects\can.o(i._ZN4mbed3CAN6attachENS_8CallbackIFvvEEENS0_7IrqTypeE) refers to .\objects\can.o(t._ZN4mbed8CallbackIFvvEED1Ev) for mbed::Callback<void()>::~Callback()
    .\objects\can.o(i._ZN4mbed3CAN6filterEjj9CANFormati) refers to .\objects\can_api.o(i.can_filter) for can_filter
    .\objects\can.o(i._ZN4mbed3CAN6unlockEv) refers to .\objects\mutex.o(i._ZN4rtos5Mutex6unlockEv) for rtos::Mutex::unlock()
    .\objects\can.o(i._ZN4mbed3CAN7monitorEb) refers to .\objects\can_api.o(i.can_monitor) for can_monitor
    .\objects\can.o(i._ZN4mbed3CAN7rderrorEv) refers to .\objects\can_api.o(i.can_rderror) for can_rderror
    .\objects\can.o(i._ZN4mbed3CAN7tderrorEv) refers to .\objects\can_api.o(i.can_tderror) for can_tderror
    .\objects\can.o(i._ZN4mbed3CAN9frequencyEi) refers to .\objects\can_api.o(i.can_frequency) for can_frequency
    .\objects\can.o(i._ZN4mbed3CANC1E7PinNameS1_) refers to D:\ProgramFiles\Keil_v5\ARM\ARMCC\Bin\..\lib\armlib\c_w.l(rt_memclr_w.o)(.text) for __aeabi_memclr4
    .\objects\can.o(i._ZN4mbed3CANC1E7PinNameS1_) refers to D:\ProgramFiles\Keil_v5\ARM\ARMCC\Bin\..\lib\cpplib\cpprt_w.l(aeabi_vec_ctor_nocookie_nodtor.o)(i.__aeabi_vec_ctor_nocookie_nodtor) for __aeabi_vec_ctor_nocookie_nodtor
    .\objects\can.o(i._ZN4mbed3CANC1E7PinNameS1_) refers to .\objects\mutex.o(i._ZN4rtos5MutexC1Ev) for rtos::Mutex::Mutex()
    .\objects\can.o(i._ZN4mbed3CANC1E7PinNameS1_) refers to .\objects\can.o(t._ZN4mbed8CallbackIFvvEEC1EPS1_) for mbed::Callback<void()>::Callback(void(*)())
    .\objects\can.o(i._ZN4mbed3CANC1E7PinNameS1_) refers to .\objects\can.o(t._ZN4mbed8CallbackIFvvEEaSERKS2_) for mbed::Callback<void()>::operator =(const mbed::Callback<void()>&)
    .\objects\can.o(i._ZN4mbed3CANC1E7PinNameS1_) refers to .\objects\can.o(t._ZN4mbed8CallbackIFvvEED1Ev) for mbed::Callback<void()>::~Callback()
    .\objects\can.o(i._ZN4mbed3CANC1E7PinNameS1_) refers to .\objects\can_api.o(i.can_init) for can_init
    .\objects\can.o(i._ZN4mbed3CANC1E7PinNameS1_) refers to .\objects\can_api.o(i.can_irq_init) for can_irq_init
    .\objects\can.o(i._ZN4mbed3CANC1E7PinNameS1_) refers to .\objects\can.o(.constdata__ZTVN4mbed3CANE) for vtable for mbed::CAN
    .\objects\can.o(i._ZN4mbed3CANC1E7PinNameS1_) refers to .\objects\can.o(i.<Func2>) for <Func2>
    .\objects\can.o(i._ZN4mbed3CANC1E7PinNameS1_) refers to .\objects\can.o(i._ZN4mbed3CAN12_irq_handlerEj10CanIrqType) for mbed::CAN::_irq_handler(unsigned, CanIrqType)
    .\objects\can.o(i._ZN4mbed3CANC1E7PinNameS1_i) refers to D:\ProgramFiles\Keil_v5\ARM\ARMCC\Bin\..\lib\armlib\c_w.l(rt_memclr_w.o)(.text) for __aeabi_memclr4
    .\objects\can.o(i._ZN4mbed3CANC1E7PinNameS1_i) refers to D:\ProgramFiles\Keil_v5\ARM\ARMCC\Bin\..\lib\cpplib\cpprt_w.l(aeabi_vec_ctor_nocookie_nodtor.o)(i.__aeabi_vec_ctor_nocookie_nodtor) for __aeabi_vec_ctor_nocookie_nodtor
    .\objects\can.o(i._ZN4mbed3CANC1E7PinNameS1_i) refers to .\objects\mutex.o(i._ZN4rtos5MutexC1Ev) for rtos::Mutex::Mutex()
    .\objects\can.o(i._ZN4mbed3CANC1E7PinNameS1_i) refers to .\objects\can.o(t._ZN4mbed8CallbackIFvvEEC1EPS1_) for mbed::Callback<void()>::Callback(void(*)())
    .\objects\can.o(i._ZN4mbed3CANC1E7PinNameS1_i) refers to .\objects\can.o(t._ZN4mbed8CallbackIFvvEEaSERKS2_) for mbed::Callback<void()>::operator =(const mbed::Callback<void()>&)
    .\objects\can.o(i._ZN4mbed3CANC1E7PinNameS1_i) refers to .\objects\can.o(t._ZN4mbed8CallbackIFvvEED1Ev) for mbed::Callback<void()>::~Callback()
    .\objects\can.o(i._ZN4mbed3CANC1E7PinNameS1_i) refers to .\objects\can_api.o(i.can_init_freq) for can_init_freq
    .\objects\can.o(i._ZN4mbed3CANC1E7PinNameS1_i) refers to .\objects\can_api.o(i.can_irq_init) for can_irq_init
    .\objects\can.o(i._ZN4mbed3CANC1E7PinNameS1_i) refers to .\objects\can.o(.constdata__ZTVN4mbed3CANE) for vtable for mbed::CAN
    .\objects\can.o(i._ZN4mbed3CANC1E7PinNameS1_i) refers to .\objects\can.o(i.<Func2>) for <Func2>
    .\objects\can.o(i._ZN4mbed3CANC1E7PinNameS1_i) refers to .\objects\can.o(i._ZN4mbed3CAN12_irq_handlerEj10CanIrqType) for mbed::CAN::_irq_handler(unsigned, CanIrqType)
    .\objects\can.o(i._ZN4mbed3CAND0Ev) refers to .\objects\can.o(i._ZN4mbed3CAND1Ev) for mbed::CAN::~CAN()
    .\objects\can.o(i._ZN4mbed3CAND0Ev) refers to .\objects\mbed_retarget.o(i._ZdlPv) for operator delete (void*)
    .\objects\can.o(i._ZN4mbed3CAND1Ev) refers to .\objects\can.o(t._ZN4mbed8CallbackIFvvEEC1EPS1_) for mbed::Callback<void()>::Callback(void(*)())
    .\objects\can.o(i._ZN4mbed3CAND1Ev) refers to .\objects\can.o(i._ZN4mbed3CAN6attachENS_8CallbackIFvvEEENS0_7IrqTypeE) for mbed::CAN::attach(mbed::Callback<void()>, mbed::CAN::IrqType)
    .\objects\can.o(i._ZN4mbed3CAND1Ev) refers to .\objects\can.o(t._ZN4mbed8CallbackIFvvEED1Ev) for mbed::Callback<void()>::~Callback()
    .\objects\can.o(i._ZN4mbed3CAND1Ev) refers to .\objects\can_api.o(i.can_irq_free) for can_irq_free
    .\objects\can.o(i._ZN4mbed3CAND1Ev) refers to .\objects\can_api.o(i.can_free) for can_free
    .\objects\can.o(i._ZN4mbed3CAND1Ev) refers to .\objects\mutex.o(i._ZN4rtos5MutexD1Ev) for rtos::Mutex::~Mutex()
    .\objects\can.o(i._ZN4mbed3CAND1Ev) refers to D:\ProgramFiles\Keil_v5\ARM\ARMCC\Bin\..\lib\cpplib\cpprt_w.l(aeabi_vec_dtor_noexceptions.o)(.text) for __aeabi_vec_dtor
    .\objects\can.o(i._ZN4mbed3CAND1Ev) refers to .\objects\can.o(.constdata__ZTVN4mbed3CANE) for vtable for mbed::CAN
    .\objects\can.o(.ARM.exidx) refers to .\objects\can.o(i.<Func2>) for i.<Func2>
    .\objects\can.o(.ARM.exidx) refers to .\objects\can.o(i._ZN4mbed3CAN12_irq_handlerEj10CanIrqType) for i._ZN4mbed3CAN12_irq_handlerEj10CanIrqType
    .\objects\can.o(.ARM.exidx) refers to .\objects\can.o(i._ZN4mbed3CANC1E7PinNameS1_) for i._ZN4mbed3CANC1E7PinNameS1_
    .\objects\can.o(.ARM.exidx) refers to .\objects\can.o(i._ZN4mbed3CANC1E7PinNameS1_i) for i._ZN4mbed3CANC1E7PinNameS1_i
    .\objects\can.o(.ARM.exidx) refers to .\objects\can.o(i._ZN4mbed3CAN6attachENS_8CallbackIFvvEEENS0_7IrqTypeE) for i._ZN4mbed3CAN6attachENS_8CallbackIFvvEEENS0_7IrqTypeE
    .\objects\can.o(.ARM.exidx) refers to .\objects\can.o(i._ZN4mbed3CAND1Ev) for i._ZN4mbed3CAND1Ev
    .\objects\can.o(.ARM.exidx) refers to .\objects\can.o(i._ZN4mbed3CAND0Ev) for i._ZN4mbed3CAND0Ev
    .\objects\can.o(.ARM.exidx) refers to .\objects\can.o(i._ZN4mbed3CAN9frequencyEi) for i._ZN4mbed3CAN9frequencyEi
    .\objects\can.o(.ARM.exidx) refers to .\objects\can.o(i._ZN4mbed3CAN5writeENS_10CANMessageE) for i._ZN4mbed3CAN5writeENS_10CANMessageE
    .\objects\can.o(.ARM.exidx) refers to .\objects\can.o(i._ZN4mbed3CAN4readERNS_10CANMessageEi) for i._ZN4mbed3CAN4readERNS_10CANMessageEi
    .\objects\can.o(.ARM.exidx) refers to .\objects\can.o(i._ZN4mbed3CAN5resetEv) for i._ZN4mbed3CAN5resetEv
    .\objects\can.o(.ARM.exidx) refers to .\objects\can.o(i._ZN4mbed3CAN7monitorEb) for i._ZN4mbed3CAN7monitorEb
    .\objects\can.o(.ARM.exidx) refers to .\objects\can.o(i._ZN4mbed3CAN4modeENS0_4ModeE) for i._ZN4mbed3CAN4modeENS0_4ModeE
    .\objects\can.o(.ARM.exidx) refers to .\objects\can.o(i._ZN4mbed3CAN6filterEjj9CANFormati) for i._ZN4mbed3CAN6filterEjj9CANFormati
    .\objects\can.o(.ARM.exidx) refers to .\objects\can.o(i._ZN4mbed3CAN7rderrorEv) for i._ZN4mbed3CAN7rderrorEv
    .\objects\can.o(.ARM.exidx) refers to .\objects\can.o(i._ZN4mbed3CAN7tderrorEv) for i._ZN4mbed3CAN7tderrorEv
    .\objects\can.o(.ARM.exidx) refers to .\objects\can.o(i._ZN4mbed3CAN4lockEv) for i._ZN4mbed3CAN4lockEv
    .\objects\can.o(.ARM.exidx) refers to .\objects\can.o(i._ZN4mbed3CAN6unlockEv) for i._ZN4mbed3CAN6unlockEv
    .\objects\flashiap.o(i._ZN4mbed8FlashIAP20is_aligned_to_sectorEjj) refers to .\objects\flash_api.o(i.flash_get_sector_size) for flash_get_sector_size
    .\objects\flashiap.o(i._ZN4mbed8FlashIAP20is_aligned_to_sectorEjj) refers to .\objects\flashiap.o(i._ZN4mbed10is_alignedEjj) for mbed::is_aligned(unsigned, unsigned)
    .\objects\flashiap.o(i._ZN4mbed8FlashIAP4initEv) refers to .\objects\flashiap.o(t._ZN12SingletonPtrIN4rtos5MutexEEptEv) for SingletonPtr<rtos::Mutex>::operator ->()
    .\objects\flashiap.o(i._ZN4mbed8FlashIAP4initEv) refers to .\objects\mutex.o(i._ZN4rtos5Mutex4lockEv) for rtos::Mutex::lock()
    .\objects\flashiap.o(i._ZN4mbed8FlashIAP4initEv) refers to .\objects\flash_api.o(i.flash_init) for flash_init
    .\objects\flashiap.o(i._ZN4mbed8FlashIAP4initEv) refers to .\objects\flashiap.o(i._ZNK4mbed8FlashIAP13get_page_sizeEv) for mbed::FlashIAP::get_page_size() const
    .\objects\flashiap.o(i._ZN4mbed8FlashIAP4initEv) refers to .\objects\mbed_retarget.o(i._Znaj) for operator new[] (unsigned)
    .\objects\flashiap.o(i._ZN4mbed8FlashIAP4initEv) refers to .\objects\mutex.o(i._ZN4rtos5Mutex6unlockEv) for rtos::Mutex::unlock()
    .\objects\flashiap.o(i._ZN4mbed8FlashIAP4initEv) refers to .\objects\flashiap.o(.bss) for mbed::FlashIAP::_mutex
    .\objects\flashiap.o(i._ZN4mbed8FlashIAP4readEPvjj) refers to .\objects\flashiap.o(t._ZN12SingletonPtrIN4rtos5MutexEEptEv) for SingletonPtr<rtos::Mutex>::operator ->()
    .\objects\flashiap.o(i._ZN4mbed8FlashIAP4readEPvjj) refers to .\objects\mutex.o(i._ZN4rtos5Mutex4lockEv) for rtos::Mutex::lock()
    .\objects\flashiap.o(i._ZN4mbed8FlashIAP4readEPvjj) refers to .\objects\mbed_flash_api.o(i.flash_read) for flash_read
    .\objects\flashiap.o(i._ZN4mbed8FlashIAP4readEPvjj) refers to .\objects\mutex.o(i._ZN4rtos5Mutex6unlockEv) for rtos::Mutex::unlock()
    .\objects\flashiap.o(i._ZN4mbed8FlashIAP4readEPvjj) refers to .\objects\flashiap.o(.bss) for mbed::FlashIAP::_mutex
    .\objects\flashiap.o(i._ZN4mbed8FlashIAP5eraseEjj) refers to .\objects\flash_api.o(i.flash_get_size) for flash_get_size
    .\objects\flashiap.o(i._ZN4mbed8FlashIAP5eraseEjj) refers to .\objects\flash_api.o(i.flash_get_start_address) for flash_get_start_address
    .\objects\flashiap.o(i._ZN4mbed8FlashIAP5eraseEjj) refers to .\objects\flash_api.o(i.flash_get_sector_size) for flash_get_sector_size
    .\objects\flashiap.o(i._ZN4mbed8FlashIAP5eraseEjj) refers to .\objects\flashiap.o(i._ZN4mbed10is_alignedEjj) for mbed::is_aligned(unsigned, unsigned)
    .\objects\flashiap.o(i._ZN4mbed8FlashIAP5eraseEjj) refers to .\objects\flashiap.o(t._ZN12SingletonPtrIN4rtos5MutexEEptEv) for SingletonPtr<rtos::Mutex>::operator ->()
    .\objects\flashiap.o(i._ZN4mbed8FlashIAP5eraseEjj) refers to .\objects\mutex.o(i._ZN4rtos5Mutex4lockEv) for rtos::Mutex::lock()
    .\objects\flashiap.o(i._ZN4mbed8FlashIAP5eraseEjj) refers to .\objects\flash_api.o(i.flash_erase_sector) for flash_erase_sector
    .\objects\flashiap.o(i._ZN4mbed8FlashIAP5eraseEjj) refers to .\objects\mutex.o(i._ZN4rtos5Mutex6unlockEv) for rtos::Mutex::unlock()
    .\objects\flashiap.o(i._ZN4mbed8FlashIAP5eraseEjj) refers to .\objects\flashiap.o(.bss) for mbed::FlashIAP::_mutex
    .\objects\flashiap.o(i._ZN4mbed8FlashIAP6deinitEv) refers to .\objects\flashiap.o(t._ZN12SingletonPtrIN4rtos5MutexEEptEv) for SingletonPtr<rtos::Mutex>::operator ->()
    .\objects\flashiap.o(i._ZN4mbed8FlashIAP6deinitEv) refers to .\objects\mutex.o(i._ZN4rtos5Mutex4lockEv) for rtos::Mutex::lock()
    .\objects\flashiap.o(i._ZN4mbed8FlashIAP6deinitEv) refers to .\objects\flash_api.o(i.flash_free) for flash_free
    .\objects\flashiap.o(i._ZN4mbed8FlashIAP6deinitEv) refers to .\objects\mbed_retarget.o(i._ZdaPv) for operator delete[] (void*)
    .\objects\flashiap.o(i._ZN4mbed8FlashIAP6deinitEv) refers to .\objects\mutex.o(i._ZN4rtos5Mutex6unlockEv) for rtos::Mutex::unlock()
    .\objects\flashiap.o(i._ZN4mbed8FlashIAP6deinitEv) refers to .\objects\flashiap.o(.bss) for mbed::FlashIAP::_mutex
    .\objects\flashiap.o(i._ZN4mbed8FlashIAP7programEPKvjj) refers to .\objects\flashiap.o(i._ZNK4mbed8FlashIAP13get_page_sizeEv) for mbed::FlashIAP::get_page_size() const
    .\objects\flashiap.o(i._ZN4mbed8FlashIAP7programEPKvjj) refers to .\objects\flash_api.o(i.flash_get_size) for flash_get_size
    .\objects\flashiap.o(i._ZN4mbed8FlashIAP7programEPKvjj) refers to .\objects\flash_api.o(i.flash_get_start_address) for flash_get_start_address
    .\objects\flashiap.o(i._ZN4mbed8FlashIAP7programEPKvjj) refers to .\objects\flashiap.o(i._ZN4mbed10is_alignedEjj) for mbed::is_aligned(unsigned, unsigned)
    .\objects\flashiap.o(i._ZN4mbed8FlashIAP7programEPKvjj) refers to .\objects\flashiap.o(t._ZN12SingletonPtrIN4rtos5MutexEEptEv) for SingletonPtr<rtos::Mutex>::operator ->()
    .\objects\flashiap.o(i._ZN4mbed8FlashIAP7programEPKvjj) refers to .\objects\mutex.o(i._ZN4rtos5Mutex4lockEv) for rtos::Mutex::lock()
    .\objects\flashiap.o(i._ZN4mbed8FlashIAP7programEPKvjj) refers to .\objects\flash_api.o(i.flash_get_sector_size) for flash_get_sector_size
    .\objects\flashiap.o(i._ZN4mbed8FlashIAP7programEPKvjj) refers to .\objects\flashiap.o(t._ZSt3minIjERKT_S2_S2_) for const T1& std::min<unsigned>(const T1&, const T1&)
    .\objects\flashiap.o(i._ZN4mbed8FlashIAP7programEPKvjj) refers to D:\ProgramFiles\Keil_v5\ARM\ARMCC\Bin\..\lib\armlib\c_w.l(rt_memcpy_v6.o)(.text) for __aeabi_memcpy
    .\objects\flashiap.o(i._ZN4mbed8FlashIAP7programEPKvjj) refers to D:\ProgramFiles\Keil_v5\ARM\ARMCC\Bin\..\lib\armlib\c_w.l(aeabi_memset.o)(.text) for __aeabi_memset
    .\objects\flashiap.o(i._ZN4mbed8FlashIAP7programEPKvjj) refers to .\objects\flash_api.o(i.flash_program_page) for flash_program_page
    .\objects\flashiap.o(i._ZN4mbed8FlashIAP7programEPKvjj) refers to .\objects\mutex.o(i._ZN4rtos5Mutex6unlockEv) for rtos::Mutex::unlock()
    .\objects\flashiap.o(i._ZN4mbed8FlashIAP7programEPKvjj) refers to .\objects\flashiap.o(.bss) for mbed::FlashIAP::_mutex
    .\objects\flashiap.o(i._ZNK4mbed8FlashIAP13get_page_sizeEv) refers to .\objects\flash_api.o(i.flash_get_page_size) for flash_get_page_size
    .\objects\flashiap.o(i._ZNK4mbed8FlashIAP14get_flash_sizeEv) refers to .\objects\flash_api.o(i.flash_get_size) for flash_get_size
    .\objects\flashiap.o(i._ZNK4mbed8FlashIAP15get_flash_startEv) refers to .\objects\flash_api.o(i.flash_get_start_address) for flash_get_start_address
    .\objects\flashiap.o(i._ZNK4mbed8FlashIAP15get_sector_sizeEj) refers to .\objects\flash_api.o(i.flash_get_sector_size) for flash_get_sector_size
    .\objects\flashiap.o(.ARM.exidx) refers to .\objects\flashiap.o(i._ZN4mbed8FlashIAPC1Ev) for i._ZN4mbed8FlashIAPC1Ev
    .\objects\flashiap.o(.ARM.exidx) refers to .\objects\flashiap.o(i._ZN4mbed8FlashIAPD1Ev) for i._ZN4mbed8FlashIAPD1Ev
    .\objects\flashiap.o(.ARM.exidx) refers to .\objects\flashiap.o(i._ZNK4mbed8FlashIAP13get_page_sizeEv) for i._ZNK4mbed8FlashIAP13get_page_sizeEv
    .\objects\flashiap.o(.ARM.exidx) refers to .\objects\flashiap.o(i._ZN4mbed8FlashIAP4initEv) for i._ZN4mbed8FlashIAP4initEv
    .\objects\flashiap.o(.ARM.exidx) refers to .\objects\flashiap.o(i._ZN4mbed8FlashIAP6deinitEv) for i._ZN4mbed8FlashIAP6deinitEv
    .\objects\flashiap.o(.ARM.exidx) refers to .\objects\flashiap.o(i._ZN4mbed8FlashIAP4readEPvjj) for i._ZN4mbed8FlashIAP4readEPvjj
    .\objects\flashiap.o(.ARM.exidx) refers to .\objects\flashiap.o(i._ZN4mbed8FlashIAP7programEPKvjj) for i._ZN4mbed8FlashIAP7programEPKvjj
    .\objects\flashiap.o(.ARM.exidx) refers to .\objects\flashiap.o(i._ZN4mbed8FlashIAP5eraseEjj) for i._ZN4mbed8FlashIAP5eraseEjj
    .\objects\flashiap.o(.ARM.exidx) refers to .\objects\flashiap.o(i._ZNK4mbed8FlashIAP15get_sector_sizeEj) for i._ZNK4mbed8FlashIAP15get_sector_sizeEj
    .\objects\flashiap.o(.ARM.exidx) refers to .\objects\flashiap.o(i._ZNK4mbed8FlashIAP15get_flash_startEv) for i._ZNK4mbed8FlashIAP15get_flash_startEv
    .\objects\flashiap.o(.ARM.exidx) refers to .\objects\flashiap.o(i._ZNK4mbed8FlashIAP14get_flash_sizeEv) for i._ZNK4mbed8FlashIAP14get_flash_sizeEv
    .\objects\flashiap.o(.ARM.exidx) refers to .\objects\flashiap.o(i._ZN4mbed8FlashIAP20is_aligned_to_sectorEjj) for i._ZN4mbed8FlashIAP20is_aligned_to_sectorEjj
    .\objects\flashiap.o(.ARM.exidx) refers to .\objects\flashiap.o(i._ZN4mbed10is_alignedEjj) for i._ZN4mbed10is_alignedEjj
    .\objects\i2c.o(i._ZN4mbed3I2C14abort_transferEv) refers to .\objects\i2c_api.o(i.i2c_abort_asynch) for i2c_abort_asynch
    .\objects\i2c.o(i._ZN4mbed3I2C14abort_transferEv) refers to .\objects\i2c.o(i._ZN4mbed3I2C17unlock_deep_sleepEv) for mbed::I2C::unlock_deep_sleep()
    .\objects\i2c.o(i._ZN4mbed3I2C15lock_deep_sleepEv) refers to .\objects\mbed_sleep_manager.o(i.sleep_manager_lock_deep_sleep_internal) for sleep_manager_lock_deep_sleep_internal
    .\objects\i2c.o(i._ZN4mbed3I2C17unlock_deep_sleepEv) refers to .\objects\mbed_sleep_manager.o(i.sleep_manager_unlock_deep_sleep_internal) for sleep_manager_unlock_deep_sleep_internal
    .\objects\i2c.o(i._ZN4mbed3I2C18irq_handler_asynchEv) refers to .\objects\i2c_api.o(i.i2c_irq_handler_asynch) for i2c_irq_handler_asynch
    .\objects\i2c.o(i._ZN4mbed3I2C18irq_handler_asynchEv) refers to .\objects\mbed_assert.o(i.mbed_assert_internal) for mbed_assert_internal
    .\objects\i2c.o(i._ZN4mbed3I2C18irq_handler_asynchEv) refers to .\objects\i2c.o(i._ZN4mbed3I2C17unlock_deep_sleepEv) for mbed::I2C::unlock_deep_sleep()
    .\objects\i2c.o(i._ZN4mbed3I2C18irq_handler_asynchEv) refers to .\objects\i2c.o(.constdata__ZZNK4mbed8CallbackIFviEE4callEiEs_0) for mbed::Callback<void(int)>::call(int) const::string (instance 2)
    .\objects\i2c.o(i._ZN4mbed3I2C18irq_handler_asynchEv) refers to .\objects\i2c.o(.constdata__ZZNK4mbed8CallbackIFviEE4callEiEs) for mbed::Callback<void(int)>::call(int) const::string
    .\objects\i2c.o(i._ZN4mbed3I2C4lockEv) refers to .\objects\flashiap.o(t._ZN12SingletonPtrIN4rtos5MutexEEptEv) for SingletonPtr<rtos::Mutex>::operator ->()
    .\objects\i2c.o(i._ZN4mbed3I2C4lockEv) refers to .\objects\mutex.o(i._ZN4rtos5Mutex4lockEv) for rtos::Mutex::lock()
    .\objects\i2c.o(i._ZN4mbed3I2C4lockEv) refers to .\objects\i2c.o(.bss) for mbed::I2C::_mutex
    .\objects\i2c.o(i._ZN4mbed3I2C4readEi) refers to .\objects\i2c_api.o(i.i2c_byte_read) for i2c_byte_read
    .\objects\i2c.o(i._ZN4mbed3I2C4readEiPcib) refers to .\objects\i2c.o(i._ZN4mbed3I2C6aquireEv) for mbed::I2C::aquire()
    .\objects\i2c.o(i._ZN4mbed3I2C4readEiPcib) refers to .\objects\i2c_api.o(i.i2c_read) for i2c_read
    .\objects\i2c.o(i._ZN4mbed3I2C4stopEv) refers to .\objects\i2c_api.o(i.i2c_stop) for i2c_stop
    .\objects\i2c.o(i._ZN4mbed3I2C5startEv) refers to .\objects\i2c_api.o(i.i2c_start) for i2c_start
    .\objects\i2c.o(i._ZN4mbed3I2C5writeEi) refers to .\objects\i2c_api.o(i.i2c_byte_write) for i2c_byte_write
    .\objects\i2c.o(i._ZN4mbed3I2C5writeEiPKcib) refers to .\objects\i2c.o(i._ZN4mbed3I2C6aquireEv) for mbed::I2C::aquire()
    .\objects\i2c.o(i._ZN4mbed3I2C5writeEiPKcib) refers to .\objects\i2c_api.o(i.i2c_write) for i2c_write
    .\objects\i2c.o(i._ZN4mbed3I2C6aquireEv) refers to .\objects\i2c_api.o(i.i2c_frequency) for i2c_frequency
    .\objects\i2c.o(i._ZN4mbed3I2C6aquireEv) refers to .\objects\i2c.o(.data) for mbed::I2C::_owner
    .\objects\i2c.o(i._ZN4mbed3I2C6unlockEv) refers to .\objects\flashiap.o(t._ZN12SingletonPtrIN4rtos5MutexEEptEv) for SingletonPtr<rtos::Mutex>::operator ->()
    .\objects\i2c.o(i._ZN4mbed3I2C6unlockEv) refers to .\objects\mutex.o(i._ZN4rtos5Mutex6unlockEv) for rtos::Mutex::unlock()
    .\objects\i2c.o(i._ZN4mbed3I2C6unlockEv) refers to .\objects\i2c.o(.bss) for mbed::I2C::_mutex
    .\objects\i2c.o(i._ZN4mbed3I2C8transferEiPKciPciRKNS_8CallbackIFviEEEib) refers to .\objects\i2c_api.o(i.i2c_active) for i2c_active
    .\objects\i2c.o(i._ZN4mbed3I2C8transferEiPKciPciRKNS_8CallbackIFviEEEib) refers to .\objects\i2c.o(i._ZN4mbed3I2C15lock_deep_sleepEv) for mbed::I2C::lock_deep_sleep()
    .\objects\i2c.o(i._ZN4mbed3I2C8transferEiPKciPciRKNS_8CallbackIFviEEEib) refers to .\objects\i2c.o(i._ZN4mbed3I2C6aquireEv) for mbed::I2C::aquire()
    .\objects\i2c.o(i._ZN4mbed3I2C8transferEiPKciPciRKNS_8CallbackIFviEEEib) refers to .\objects\i2c.o(t._ZN4mbed8CallbackIFviEED1Ev) for mbed::Callback<void(int)>::~Callback()
    .\objects\i2c.o(i._ZN4mbed3I2C8transferEiPKciPciRKNS_8CallbackIFviEEEib) refers to .\objects\i2c_api.o(i.i2c_transfer_asynch) for i2c_transfer_asynch
    .\objects\i2c.o(i._ZN4mbed3I2C8transferEiPKciPciRKNS_8CallbackIFviEEEib) refers to .\objects\i2c.o(.constdata) for <Data1>
    .\objects\i2c.o(i._ZN4mbed3I2C9frequencyEi) refers to .\objects\i2c_api.o(i.i2c_frequency) for i2c_frequency
    .\objects\i2c.o(i._ZN4mbed3I2C9frequencyEi) refers to .\objects\i2c.o(.data) for mbed::I2C::_owner
    .\objects\i2c.o(i._ZN4mbed3I2CC1E7PinNameS1_) refers to .\objects\i2c.o(t._ZN6CThunkIN4mbed3I2CEE4initEPS1_MS1_FvPvES4_) for CThunk<mbed::I2C>::init(mbed::I2C*, void(mbed::I2C::*)(void*), void*)
    .\objects\i2c.o(i._ZN4mbed3I2CC1E7PinNameS1_) refers to D:\ProgramFiles\Keil_v5\ARM\ARMCC\Bin\..\lib\armlib\c_w.l(rt_memclr_w.o)(.text) for __aeabi_memclr4
    .\objects\i2c.o(i._ZN4mbed3I2CC1E7PinNameS1_) refers to .\objects\i2c_api.o(i.i2c_init) for i2c_init
    .\objects\i2c.o(i._ZN4mbed3I2CC1E7PinNameS1_) refers to .\objects\i2c.o(.constdata__ZTVN4mbed3I2CE) for vtable for mbed::I2C
    .\objects\i2c.o(i._ZN4mbed3I2CC1E7PinNameS1_) refers to .\objects\i2c.o(.constdata__ZZN4mbed8CallbackIFviEE8generateIPS1_EEvRKT_E3ops) for void mbed::Callback<void(int)>::generate<void(*)(int)>(const T1&)::ops
    .\objects\i2c.o(i._ZN4mbed3I2CC1E7PinNameS1_) refers to .\objects\i2c.o(.constdata) for <Data2>
    .\objects\i2c.o(i._ZN4mbed3I2CC1E7PinNameS1_) refers to .\objects\i2c.o(.data) for mbed::I2C::_owner
    .\objects\i2c.o(.ARM.exidx) refers to .\objects\i2c.o(i._ZN4mbed3I2CC1E7PinNameS1_) for i._ZN4mbed3I2CC1E7PinNameS1_
    .\objects\i2c.o(.ARM.exidx) refers to .\objects\i2c.o(i._ZN4mbed3I2C9frequencyEi) for i._ZN4mbed3I2C9frequencyEi
    .\objects\i2c.o(.ARM.exidx) refers to .\objects\i2c.o(i._ZN4mbed3I2C6aquireEv) for i._ZN4mbed3I2C6aquireEv
    .\objects\i2c.o(.ARM.exidx) refers to .\objects\i2c.o(i._ZN4mbed3I2C4readEiPcib) for i._ZN4mbed3I2C4readEiPcib
    .\objects\i2c.o(.ARM.exidx) refers to .\objects\i2c.o(i._ZN4mbed3I2C4readEi) for i._ZN4mbed3I2C4readEi
    .\objects\i2c.o(.ARM.exidx) refers to .\objects\i2c.o(i._ZN4mbed3I2C5writeEiPKcib) for i._ZN4mbed3I2C5writeEiPKcib
    .\objects\i2c.o(.ARM.exidx) refers to .\objects\i2c.o(i._ZN4mbed3I2C5writeEi) for i._ZN4mbed3I2C5writeEi
    .\objects\i2c.o(.ARM.exidx) refers to .\objects\i2c.o(i._ZN4mbed3I2C5startEv) for i._ZN4mbed3I2C5startEv
    .\objects\i2c.o(.ARM.exidx) refers to .\objects\i2c.o(i._ZN4mbed3I2C4stopEv) for i._ZN4mbed3I2C4stopEv
    .\objects\i2c.o(.ARM.exidx) refers to .\objects\i2c.o(i._ZN4mbed3I2C4lockEv) for i._ZN4mbed3I2C4lockEv
    .\objects\i2c.o(.ARM.exidx) refers to .\objects\i2c.o(i._ZN4mbed3I2C6unlockEv) for i._ZN4mbed3I2C6unlockEv
    .\objects\i2c.o(.ARM.exidx) refers to .\objects\i2c.o(i._ZN4mbed3I2C15lock_deep_sleepEv) for i._ZN4mbed3I2C15lock_deep_sleepEv
    .\objects\i2c.o(.ARM.exidx) refers to .\objects\i2c.o(i._ZN4mbed3I2C8transferEiPKciPciRKNS_8CallbackIFviEEEib) for i._ZN4mbed3I2C8transferEiPKciPciRKNS_8CallbackIFviEEEib
    .\objects\i2c.o(.ARM.exidx) refers to .\objects\i2c.o(i._ZN4mbed3I2C17unlock_deep_sleepEv) for i._ZN4mbed3I2C17unlock_deep_sleepEv
    .\objects\i2c.o(.ARM.exidx) refers to .\objects\i2c.o(i._ZN4mbed3I2C14abort_transferEv) for i._ZN4mbed3I2C14abort_transferEv
    .\objects\i2c.o(.ARM.exidx) refers to .\objects\i2c.o(i._ZN4mbed3I2C18irq_handler_asynchEv) for i._ZN4mbed3I2C18irq_handler_asynchEv
    .\objects\i2c.o(.constdata) refers to .\objects\i2c.o(i._ZN4mbed3I2C18irq_handler_asynchEv) for mbed::I2C::irq_handler_asynch()
    .\objects\i2cslave.o(i._ZN4mbed8I2CSlave4readEPci) refers to .\objects\i2c_api.o(i.i2c_slave_read) for i2c_slave_read
    .\objects\i2cslave.o(i._ZN4mbed8I2CSlave4readEv) refers to .\objects\i2c_api.o(i.i2c_byte_read) for i2c_byte_read
    .\objects\i2cslave.o(i._ZN4mbed8I2CSlave4stopEv) refers to .\objects\i2c_api.o(i.i2c_stop) for i2c_stop
    .\objects\i2cslave.o(i._ZN4mbed8I2CSlave5writeEPKci) refers to .\objects\i2c_api.o(i.i2c_slave_write) for i2c_slave_write
    .\objects\i2cslave.o(i._ZN4mbed8I2CSlave5writeEi) refers to .\objects\i2c_api.o(i.i2c_byte_write) for i2c_byte_write
    .\objects\i2cslave.o(i._ZN4mbed8I2CSlave7addressEi) refers to .\objects\i2c_api.o(i.i2c_slave_address) for i2c_slave_address
    .\objects\i2cslave.o(i._ZN4mbed8I2CSlave7receiveEv) refers to .\objects\i2c_api.o(i.i2c_slave_receive) for i2c_slave_receive
    .\objects\i2cslave.o(i._ZN4mbed8I2CSlave9frequencyEi) refers to .\objects\i2c_api.o(i.i2c_frequency) for i2c_frequency
    .\objects\i2cslave.o(i._ZN4mbed8I2CSlaveC1E7PinNameS1_) refers to D:\ProgramFiles\Keil_v5\ARM\ARMCC\Bin\..\lib\armlib\c_w.l(rt_memclr_w.o)(.text) for __aeabi_memclr4
    .\objects\i2cslave.o(i._ZN4mbed8I2CSlaveC1E7PinNameS1_) refers to .\objects\i2c_api.o(i.i2c_init) for i2c_init
    .\objects\i2cslave.o(i._ZN4mbed8I2CSlaveC1E7PinNameS1_) refers to .\objects\i2c_api.o(i.i2c_frequency) for i2c_frequency
    .\objects\i2cslave.o(i._ZN4mbed8I2CSlaveC1E7PinNameS1_) refers to .\objects\i2c_api.o(i.i2c_slave_mode) for i2c_slave_mode
    .\objects\i2cslave.o(.ARM.exidx) refers to .\objects\i2cslave.o(i._ZN4mbed8I2CSlaveC1E7PinNameS1_) for i._ZN4mbed8I2CSlaveC1E7PinNameS1_
    .\objects\i2cslave.o(.ARM.exidx) refers to .\objects\i2cslave.o(i._ZN4mbed8I2CSlave9frequencyEi) for i._ZN4mbed8I2CSlave9frequencyEi
    .\objects\i2cslave.o(.ARM.exidx) refers to .\objects\i2cslave.o(i._ZN4mbed8I2CSlave7receiveEv) for i._ZN4mbed8I2CSlave7receiveEv
    .\objects\i2cslave.o(.ARM.exidx) refers to .\objects\i2cslave.o(i._ZN4mbed8I2CSlave4readEPci) for i._ZN4mbed8I2CSlave4readEPci
    .\objects\i2cslave.o(.ARM.exidx) refers to .\objects\i2cslave.o(i._ZN4mbed8I2CSlave4readEv) for i._ZN4mbed8I2CSlave4readEv
    .\objects\i2cslave.o(.ARM.exidx) refers to .\objects\i2cslave.o(i._ZN4mbed8I2CSlave5writeEPKci) for i._ZN4mbed8I2CSlave5writeEPKci
    .\objects\i2cslave.o(.ARM.exidx) refers to .\objects\i2cslave.o(i._ZN4mbed8I2CSlave5writeEi) for i._ZN4mbed8I2CSlave5writeEi
    .\objects\i2cslave.o(.ARM.exidx) refers to .\objects\i2cslave.o(i._ZN4mbed8I2CSlave7addressEi) for i._ZN4mbed8I2CSlave7addressEi
    .\objects\i2cslave.o(.ARM.exidx) refers to .\objects\i2cslave.o(i._ZN4mbed8I2CSlave4stopEv) for i._ZN4mbed8I2CSlave4stopEv
    .\objects\interruptin.o(i._ZN4mbed11InterruptIn10enable_irqEv) refers to .\objects\mbed_critical.o(i.core_util_critical_section_enter) for core_util_critical_section_enter
    .\objects\interruptin.o(i._ZN4mbed11InterruptIn10enable_irqEv) refers to .\objects\gpio_irq_api.o(i.gpio_irq_enable) for gpio_irq_enable
    .\objects\interruptin.o(i._ZN4mbed11InterruptIn10enable_irqEv) refers to .\objects\mbed_critical.o(i.core_util_critical_section_exit) for core_util_critical_section_exit
    .\objects\interruptin.o(i._ZN4mbed11InterruptIn11disable_irqEv) refers to .\objects\mbed_critical.o(i.core_util_critical_section_enter) for core_util_critical_section_enter
    .\objects\interruptin.o(i._ZN4mbed11InterruptIn11disable_irqEv) refers to .\objects\gpio_irq_api.o(i.gpio_irq_disable) for gpio_irq_disable
    .\objects\interruptin.o(i._ZN4mbed11InterruptIn11disable_irqEv) refers to .\objects\mbed_critical.o(i.core_util_critical_section_exit) for core_util_critical_section_exit
    .\objects\interruptin.o(i._ZN4mbed11InterruptIn12_irq_handlerEj14gpio_irq_event) refers to .\objects\can.o(t._ZNK4mbed8CallbackIFvvEEcvbEv) for mbed::Callback<void()>::operator bool() const
    .\objects\interruptin.o(i._ZN4mbed11InterruptIn12_irq_handlerEj14gpio_irq_event) refers to .\objects\interruptin.o(t._ZNK4mbed8CallbackIFvvEEclEv) for mbed::Callback<void()>::operator ()() const
    .\objects\interruptin.o(i._ZN4mbed11InterruptIn4fallENS_8CallbackIFvvEEE) refers to .\objects\mbed_critical.o(i.core_util_critical_section_enter) for core_util_critical_section_enter
    .\objects\interruptin.o(i._ZN4mbed11InterruptIn4fallENS_8CallbackIFvvEEE) refers to .\objects\can.o(t._ZNK4mbed8CallbackIFvvEEcvbEv) for mbed::Callback<void()>::operator bool() const
    .\objects\interruptin.o(i._ZN4mbed11InterruptIn4fallENS_8CallbackIFvvEEE) refers to .\objects\can.o(t._ZN4mbed8CallbackIFvvEEaSERKS2_) for mbed::Callback<void()>::operator =(const mbed::Callback<void()>&)
    .\objects\interruptin.o(i._ZN4mbed11InterruptIn4fallENS_8CallbackIFvvEEE) refers to .\objects\gpio_irq_api.o(i.gpio_irq_set) for gpio_irq_set
    .\objects\interruptin.o(i._ZN4mbed11InterruptIn4fallENS_8CallbackIFvvEEE) refers to .\objects\can.o(t._ZN4mbed8CallbackIFvvEEC1EPS1_) for mbed::Callback<void()>::Callback(void(*)())
    .\objects\interruptin.o(i._ZN4mbed11InterruptIn4fallENS_8CallbackIFvvEEE) refers to .\objects\can.o(t._ZN4mbed8CallbackIFvvEED1Ev) for mbed::Callback<void()>::~Callback()
    .\objects\interruptin.o(i._ZN4mbed11InterruptIn4fallENS_8CallbackIFvvEEE) refers to .\objects\mbed_critical.o(i.core_util_critical_section_exit) for core_util_critical_section_exit
    .\objects\interruptin.o(i._ZN4mbed11InterruptIn4modeE7PinMode) refers to .\objects\mbed_critical.o(i.core_util_critical_section_enter) for core_util_critical_section_enter
    .\objects\interruptin.o(i._ZN4mbed11InterruptIn4modeE7PinMode) refers to .\objects\gpio_api.o(i.gpio_mode) for gpio_mode
    .\objects\interruptin.o(i._ZN4mbed11InterruptIn4modeE7PinMode) refers to .\objects\mbed_critical.o(i.core_util_critical_section_exit) for core_util_critical_section_exit
    .\objects\interruptin.o(i._ZN4mbed11InterruptIn4riseENS_8CallbackIFvvEEE) refers to .\objects\mbed_critical.o(i.core_util_critical_section_enter) for core_util_critical_section_enter
    .\objects\interruptin.o(i._ZN4mbed11InterruptIn4riseENS_8CallbackIFvvEEE) refers to .\objects\can.o(t._ZNK4mbed8CallbackIFvvEEcvbEv) for mbed::Callback<void()>::operator bool() const
    .\objects\interruptin.o(i._ZN4mbed11InterruptIn4riseENS_8CallbackIFvvEEE) refers to .\objects\can.o(t._ZN4mbed8CallbackIFvvEEaSERKS2_) for mbed::Callback<void()>::operator =(const mbed::Callback<void()>&)
    .\objects\interruptin.o(i._ZN4mbed11InterruptIn4riseENS_8CallbackIFvvEEE) refers to .\objects\gpio_irq_api.o(i.gpio_irq_set) for gpio_irq_set
    .\objects\interruptin.o(i._ZN4mbed11InterruptIn4riseENS_8CallbackIFvvEEE) refers to .\objects\can.o(t._ZN4mbed8CallbackIFvvEEC1EPS1_) for mbed::Callback<void()>::Callback(void(*)())
    .\objects\interruptin.o(i._ZN4mbed11InterruptIn4riseENS_8CallbackIFvvEEE) refers to .\objects\can.o(t._ZN4mbed8CallbackIFvvEED1Ev) for mbed::Callback<void()>::~Callback()
    .\objects\interruptin.o(i._ZN4mbed11InterruptIn4riseENS_8CallbackIFvvEEE) refers to .\objects\mbed_critical.o(i.core_util_critical_section_exit) for core_util_critical_section_exit
    .\objects\interruptin.o(i._ZN4mbed11InterruptIn8irq_initE7PinName) refers to .\objects\gpio_irq_api.o(i.gpio_irq_init) for gpio_irq_init
    .\objects\interruptin.o(i._ZN4mbed11InterruptIn8irq_initE7PinName) refers to .\objects\interruptin.o(i._ZN4mbed11InterruptIn12_irq_handlerEj14gpio_irq_event) for mbed::InterruptIn::_irq_handler(unsigned, gpio_irq_event)
    .\objects\interruptin.o(i._ZN4mbed11InterruptInC1E7PinName) refers to D:\ProgramFiles\Keil_v5\ARM\ARMCC\Bin\..\lib\armlib\c_w.l(rt_memclr_w.o)(.text) for __aeabi_memclr4
    .\objects\interruptin.o(i._ZN4mbed11InterruptInC1E7PinName) refers to .\objects\can.o(t._ZN4mbed8CallbackIFvvEEC1EPS1_) for mbed::Callback<void()>::Callback(void(*)())
    .\objects\interruptin.o(i._ZN4mbed11InterruptInC1E7PinName) refers to .\objects\interruptin.o(i._ZN4mbed11InterruptIn8irq_initE7PinName) for mbed::InterruptIn::irq_init(PinName)
    .\objects\interruptin.o(i._ZN4mbed11InterruptInC1E7PinName) refers to .\objects\mbed_gpio.o(i.gpio_init_in) for gpio_init_in
    .\objects\interruptin.o(i._ZN4mbed11InterruptInC1E7PinName) refers to .\objects\interruptin.o(.constdata__ZTVN4mbed11InterruptInE) for vtable for mbed::InterruptIn
    .\objects\interruptin.o(i._ZN4mbed11InterruptInC1E7PinName7PinMode) refers to D:\ProgramFiles\Keil_v5\ARM\ARMCC\Bin\..\lib\armlib\c_w.l(rt_memclr_w.o)(.text) for __aeabi_memclr4
    .\objects\interruptin.o(i._ZN4mbed11InterruptInC1E7PinName7PinMode) refers to .\objects\can.o(t._ZN4mbed8CallbackIFvvEEC1EPS1_) for mbed::Callback<void()>::Callback(void(*)())
    .\objects\interruptin.o(i._ZN4mbed11InterruptInC1E7PinName7PinMode) refers to .\objects\interruptin.o(i._ZN4mbed11InterruptIn8irq_initE7PinName) for mbed::InterruptIn::irq_init(PinName)
    .\objects\interruptin.o(i._ZN4mbed11InterruptInC1E7PinName7PinMode) refers to .\objects\mbed_gpio.o(i.gpio_init_in_ex) for gpio_init_in_ex
    .\objects\interruptin.o(i._ZN4mbed11InterruptInC1E7PinName7PinMode) refers to .\objects\interruptin.o(.constdata__ZTVN4mbed11InterruptInE) for vtable for mbed::InterruptIn
    .\objects\interruptin.o(i._ZN4mbed11InterruptInD0Ev) refers to .\objects\interruptin.o(i._ZN4mbed11InterruptInD1Ev) for mbed::InterruptIn::~InterruptIn()
    .\objects\interruptin.o(i._ZN4mbed11InterruptInD0Ev) refers to .\objects\mbed_retarget.o(i._ZdlPv) for operator delete (void*)
    .\objects\interruptin.o(i._ZN4mbed11InterruptInD1Ev) refers to .\objects\gpio_irq_api.o(i.gpio_irq_free) for gpio_irq_free
    .\objects\interruptin.o(i._ZN4mbed11InterruptInD1Ev) refers to .\objects\can.o(t._ZN4mbed8CallbackIFvvEED1Ev) for mbed::Callback<void()>::~Callback()
    .\objects\interruptin.o(i._ZN4mbed11InterruptInD1Ev) refers to .\objects\interruptin.o(.constdata__ZTVN4mbed11InterruptInE) for vtable for mbed::InterruptIn
    .\objects\interruptin.o(i._ZN4mbed11InterruptIncviEv) refers to .\objects\interruptin.o(i._ZN4mbed11InterruptIn4readEv) for mbed::InterruptIn::read()
    .\objects\interruptin.o(.ARM.exidx) refers to .\objects\interruptin.o(i._ZN4mbed11InterruptIn12_irq_handlerEj14gpio_irq_event) for i._ZN4mbed11InterruptIn12_irq_handlerEj14gpio_irq_event
    .\objects\interruptin.o(.ARM.exidx) refers to .\objects\interruptin.o(i._ZN4mbed11InterruptIn8irq_initE7PinName) for i._ZN4mbed11InterruptIn8irq_initE7PinName
    .\objects\interruptin.o(.ARM.exidx) refers to .\objects\interruptin.o(i._ZN4mbed11InterruptInC1E7PinName) for i._ZN4mbed11InterruptInC1E7PinName
    .\objects\interruptin.o(.ARM.exidx) refers to .\objects\interruptin.o(i._ZN4mbed11InterruptInC1E7PinName7PinMode) for i._ZN4mbed11InterruptInC1E7PinName7PinMode
    .\objects\interruptin.o(.ARM.exidx) refers to .\objects\interruptin.o(i._ZN4mbed11InterruptInD1Ev) for i._ZN4mbed11InterruptInD1Ev
    .\objects\interruptin.o(.ARM.exidx) refers to .\objects\interruptin.o(i._ZN4mbed11InterruptInD0Ev) for i._ZN4mbed11InterruptInD0Ev
    .\objects\interruptin.o(.ARM.exidx) refers to .\objects\interruptin.o(i._ZN4mbed11InterruptIn4readEv) for i._ZN4mbed11InterruptIn4readEv
    .\objects\interruptin.o(.ARM.exidx) refers to .\objects\interruptin.o(i._ZN4mbed11InterruptIncviEv) for i._ZN4mbed11InterruptIncviEv
    .\objects\interruptin.o(.ARM.exidx) refers to .\objects\interruptin.o(i._ZN4mbed11InterruptIn4riseENS_8CallbackIFvvEEE) for i._ZN4mbed11InterruptIn4riseENS_8CallbackIFvvEEE
    .\objects\interruptin.o(.ARM.exidx) refers to .\objects\interruptin.o(i._ZN4mbed11InterruptIn4fallENS_8CallbackIFvvEEE) for i._ZN4mbed11InterruptIn4fallENS_8CallbackIFvvEEE
    .\objects\interruptin.o(.ARM.exidx) refers to .\objects\interruptin.o(i._ZN4mbed11InterruptIn4modeE7PinMode) for i._ZN4mbed11InterruptIn4modeE7PinMode
    .\objects\interruptin.o(.ARM.exidx) refers to .\objects\interruptin.o(i._ZN4mbed11InterruptIn10enable_irqEv) for i._ZN4mbed11InterruptIn10enable_irqEv
    .\objects\interruptin.o(.ARM.exidx) refers to .\objects\interruptin.o(i._ZN4mbed11InterruptIn11disable_irqEv) for i._ZN4mbed11InterruptIn11disable_irqEv
    .\objects\interruptmanager.o(i._ZN4mbed16InterruptManager10add_commonEPFvvE9IRQn_Typeb) refers to .\objects\interruptmanager.o(i._ZN4mbed16InterruptManager4lockEv) for mbed::InterruptManager::lock()
    .\objects\interruptmanager.o(i._ZN4mbed16InterruptManager10add_commonEPFvvE9IRQn_Typeb) refers to .\objects\interruptmanager.o(i._ZN4mbed16InterruptManager13get_irq_indexE9IRQn_Type) for mbed::InterruptManager::get_irq_index(IRQn_Type)
    .\objects\interruptmanager.o(i._ZN4mbed16InterruptManager10add_commonEPFvvE9IRQn_Typeb) refers to .\objects\interruptmanager.o(i._ZN4mbed16InterruptManager19must_replace_vectorE9IRQn_Type) for mbed::InterruptManager::must_replace_vector(IRQn_Type)
    .\objects\interruptmanager.o(i._ZN4mbed16InterruptManager10add_commonEPFvvE9IRQn_Typeb) refers to .\objects\can.o(t._ZN4mbed8CallbackIFvvEEC1EPS1_) for mbed::Callback<void()>::Callback(void(*)())
    .\objects\interruptmanager.o(i._ZN4mbed16InterruptManager10add_commonEPFvvE9IRQn_Typeb) refers to .\objects\callchain.o(i._ZN4mbed9CallChain9add_frontENS_8CallbackIFvvEEE) for mbed::CallChain::add_front(mbed::Callback<void()>)
    .\objects\interruptmanager.o(i._ZN4mbed16InterruptManager10add_commonEPFvvE9IRQn_Typeb) refers to .\objects\callchain.o(i._ZN4mbed9CallChain3addENS_8CallbackIFvvEEE) for mbed::CallChain::add(mbed::Callback<void()>)
    .\objects\interruptmanager.o(i._ZN4mbed16InterruptManager10add_commonEPFvvE9IRQn_Typeb) refers to .\objects\can.o(t._ZN4mbed8CallbackIFvvEED1Ev) for mbed::Callback<void()>::~Callback()
    .\objects\interruptmanager.o(i._ZN4mbed16InterruptManager10add_commonEPFvvE9IRQn_Typeb) refers to .\objects\interruptmanager.o(i._ZN4mbed16InterruptManager6unlockEv) for mbed::InterruptManager::unlock()
    .\objects\interruptmanager.o(i._ZN4mbed16InterruptManager10add_commonEPFvvE9IRQn_Typeb) refers to .\objects\interruptmanager.o(i._ZN4mbed16InterruptManager17static_irq_helperEv) for mbed::InterruptManager::static_irq_helper()
    .\objects\interruptmanager.o(i._ZN4mbed16InterruptManager10irq_helperEv) refers to .\objects\callchain.o(i._ZN4mbed9CallChain4callEv) for mbed::CallChain::call()
    .\objects\interruptmanager.o(i._ZN4mbed16InterruptManager14remove_handlerEPNS_8CallbackIFvvEEE9IRQn_Type) refers to .\objects\interruptmanager.o(i._ZN4mbed16InterruptManager13get_irq_indexE9IRQn_Type) for mbed::InterruptManager::get_irq_index(IRQn_Type)
    .\objects\interruptmanager.o(i._ZN4mbed16InterruptManager14remove_handlerEPNS_8CallbackIFvvEEE9IRQn_Type) refers to .\objects\interruptmanager.o(i._ZN4mbed16InterruptManager4lockEv) for mbed::InterruptManager::lock()
    .\objects\interruptmanager.o(i._ZN4mbed16InterruptManager14remove_handlerEPNS_8CallbackIFvvEEE9IRQn_Type) refers to .\objects\callchain.o(i._ZN4mbed9CallChain6removeEPNS_8CallbackIFvvEEE) for mbed::CallChain::remove(mbed::Callback<void()>*)
    .\objects\interruptmanager.o(i._ZN4mbed16InterruptManager14remove_handlerEPNS_8CallbackIFvvEEE9IRQn_Type) refers to .\objects\interruptmanager.o(i._ZN4mbed16InterruptManager6unlockEv) for mbed::InterruptManager::unlock()
    .\objects\interruptmanager.o(i._ZN4mbed16InterruptManager17static_irq_helperEv) refers to .\objects\interruptmanager.o(i._ZN4mbed16InterruptManager3getEv) for mbed::InterruptManager::get()
    .\objects\interruptmanager.o(i._ZN4mbed16InterruptManager17static_irq_helperEv) refers to .\objects\interruptmanager.o(i._ZN4mbed16InterruptManager10irq_helperEv) for mbed::InterruptManager::irq_helper()
    .\objects\interruptmanager.o(i._ZN4mbed16InterruptManager19must_replace_vectorE9IRQn_Type) refers to .\objects\interruptmanager.o(i._ZN4mbed16InterruptManager4lockEv) for mbed::InterruptManager::lock()
    .\objects\interruptmanager.o(i._ZN4mbed16InterruptManager19must_replace_vectorE9IRQn_Type) refers to .\objects\interruptmanager.o(i._ZN4mbed16InterruptManager13get_irq_indexE9IRQn_Type) for mbed::InterruptManager::get_irq_index(IRQn_Type)
    .\objects\interruptmanager.o(i._ZN4mbed16InterruptManager19must_replace_vectorE9IRQn_Type) refers to .\objects\mbed_retarget.o(i._Znwj) for operator new(unsigned)
    .\objects\interruptmanager.o(i._ZN4mbed16InterruptManager19must_replace_vectorE9IRQn_Type) refers to .\objects\callchain.o(i._ZN4mbed9CallChainC1Ei) for mbed::CallChain::CallChain(int)
    .\objects\interruptmanager.o(i._ZN4mbed16InterruptManager19must_replace_vectorE9IRQn_Type) refers to .\objects\can.o(t._ZN4mbed8CallbackIFvvEEC1EPS1_) for mbed::Callback<void()>::Callback(void(*)())
    .\objects\interruptmanager.o(i._ZN4mbed16InterruptManager19must_replace_vectorE9IRQn_Type) refers to .\objects\callchain.o(i._ZN4mbed9CallChain3addENS_8CallbackIFvvEEE) for mbed::CallChain::add(mbed::Callback<void()>)
    .\objects\interruptmanager.o(i._ZN4mbed16InterruptManager19must_replace_vectorE9IRQn_Type) refers to .\objects\can.o(t._ZN4mbed8CallbackIFvvEED1Ev) for mbed::Callback<void()>::~Callback()
    .\objects\interruptmanager.o(i._ZN4mbed16InterruptManager19must_replace_vectorE9IRQn_Type) refers to .\objects\interruptmanager.o(i._ZN4mbed16InterruptManager6unlockEv) for mbed::InterruptManager::unlock()
    .\objects\interruptmanager.o(i._ZN4mbed16InterruptManager3getEv) refers to .\objects\mbed_retarget.o(i._Znwj) for operator new(unsigned)
    .\objects\interruptmanager.o(i._ZN4mbed16InterruptManager3getEv) refers to .\objects\interruptmanager.o(i._ZN4mbed16InterruptManagerC1Ev) for mbed::InterruptManager::InterruptManager()
    .\objects\interruptmanager.o(i._ZN4mbed16InterruptManager3getEv) refers to .\objects\mbed_critical.o(i.core_util_critical_section_enter) for core_util_critical_section_enter
    .\objects\interruptmanager.o(i._ZN4mbed16InterruptManager3getEv) refers to .\objects\mbed_critical.o(i.core_util_critical_section_exit) for core_util_critical_section_exit
    .\objects\interruptmanager.o(i._ZN4mbed16InterruptManager3getEv) refers to .\objects\interruptmanager.o(i._ZN4mbed16InterruptManagerD1Ev) for mbed::InterruptManager::~InterruptManager()
    .\objects\interruptmanager.o(i._ZN4mbed16InterruptManager3getEv) refers to .\objects\mbed_retarget.o(i._ZdlPv) for operator delete (void*)
    .\objects\interruptmanager.o(i._ZN4mbed16InterruptManager3getEv) refers to .\objects\interruptmanager.o(.data) for mbed::InterruptManager::_instance
    .\objects\interruptmanager.o(i._ZN4mbed16InterruptManager4lockEv) refers to .\objects\mutex.o(i._ZN4rtos5Mutex4lockEv) for rtos::Mutex::lock()
    .\objects\interruptmanager.o(i._ZN4mbed16InterruptManager6unlockEv) refers to .\objects\mutex.o(i._ZN4rtos5Mutex6unlockEv) for rtos::Mutex::unlock()
    .\objects\interruptmanager.o(i._ZN4mbed16InterruptManager7destroyEv) refers to .\objects\interruptmanager.o(i._ZN4mbed16InterruptManagerD1Ev) for mbed::InterruptManager::~InterruptManager()
    .\objects\interruptmanager.o(i._ZN4mbed16InterruptManager7destroyEv) refers to .\objects\mbed_retarget.o(i._ZdlPv) for operator delete (void*)
    .\objects\interruptmanager.o(i._ZN4mbed16InterruptManager7destroyEv) refers to .\objects\interruptmanager.o(.data) for mbed::InterruptManager::_instance
    .\objects\interruptmanager.o(i._ZN4mbed16InterruptManagerC1Ev) refers to .\objects\mutex.o(i._ZN4rtos5MutexC1Ev) for rtos::Mutex::Mutex()
    .\objects\interruptmanager.o(i._ZN4mbed16InterruptManagerC1Ev) refers to D:\ProgramFiles\Keil_v5\ARM\ARMCC\Bin\..\lib\armlib\c_w.l(rt_memclr_w.o)(.text) for __aeabi_memclr4
    .\objects\interruptmanager.o(i._ZN4mbed16InterruptManagerD1Ev) refers to .\objects\mutex.o(i._ZN4rtos5MutexD1Ev) for rtos::Mutex::~Mutex()
    .\objects\interruptmanager.o(.ARM.exidx) refers to .\objects\interruptmanager.o(i._ZN4mbed16InterruptManagerD1Ev) for i._ZN4mbed16InterruptManagerD1Ev
    .\objects\interruptmanager.o(.ARM.exidx) refers to .\objects\interruptmanager.o(i._ZN4mbed16InterruptManagerC1Ev) for i._ZN4mbed16InterruptManagerC1Ev
    .\objects\interruptmanager.o(.ARM.exidx) refers to .\objects\interruptmanager.o(i._ZN4mbed16InterruptManager3getEv) for i._ZN4mbed16InterruptManager3getEv
    .\objects\interruptmanager.o(.ARM.exidx) refers to .\objects\interruptmanager.o(i._ZN4mbed16InterruptManager7destroyEv) for i._ZN4mbed16InterruptManager7destroyEv
    .\objects\interruptmanager.o(.ARM.exidx) refers to .\objects\interruptmanager.o(i._ZN4mbed16InterruptManager6unlockEv) for i._ZN4mbed16InterruptManager6unlockEv
    .\objects\interruptmanager.o(.ARM.exidx) refers to .\objects\interruptmanager.o(i._ZN4mbed16InterruptManager4lockEv) for i._ZN4mbed16InterruptManager4lockEv
    .\objects\interruptmanager.o(.ARM.exidx) refers to .\objects\interruptmanager.o(i._ZN4mbed16InterruptManager13get_irq_indexE9IRQn_Type) for i._ZN4mbed16InterruptManager13get_irq_indexE9IRQn_Type
    .\objects\interruptmanager.o(.ARM.exidx) refers to .\objects\interruptmanager.o(i._ZN4mbed16InterruptManager14remove_handlerEPNS_8CallbackIFvvEEE9IRQn_Type) for i._ZN4mbed16InterruptManager14remove_handlerEPNS_8CallbackIFvvEEE9IRQn_Type
    .\objects\interruptmanager.o(.ARM.exidx) refers to .\objects\interruptmanager.o(i._ZN4mbed16InterruptManager10irq_helperEv) for i._ZN4mbed16InterruptManager10irq_helperEv
    .\objects\interruptmanager.o(.ARM.exidx) refers to .\objects\interruptmanager.o(i._ZN4mbed16InterruptManager17static_irq_helperEv) for i._ZN4mbed16InterruptManager17static_irq_helperEv
    .\objects\interruptmanager.o(.ARM.exidx) refers to .\objects\interruptmanager.o(i._ZN4mbed16InterruptManager19must_replace_vectorE9IRQn_Type) for i._ZN4mbed16InterruptManager19must_replace_vectorE9IRQn_Type
    .\objects\interruptmanager.o(.ARM.exidx) refers to .\objects\interruptmanager.o(i._ZN4mbed16InterruptManager10add_commonEPFvvE9IRQn_Typeb) for i._ZN4mbed16InterruptManager10add_commonEPFvvE9IRQn_Typeb
    .\objects\mbedcrc.o(i._ZN4mbed7MbedCRCILj32773ELh16EEC1Ev) refers to .\objects\mbedcrc.o(t._ZN4mbed7MbedCRCILj32773ELh16EE13mbed_crc_ctorEv) for mbed::MbedCRC<(unsigned)32773, (unsigned char)16>::mbed_crc_ctor()
    .\objects\mbedcrc.o(i._ZN4mbed7MbedCRCILj32773ELh16EEC1Ev) refers to .\objects\mbedcrc.o(.constdata__ZTVN4mbed7MbedCRCILj32773ELh16EEE) for vtable for mbed::MbedCRC<(unsigned)32773, (unsigned char)16>
    .\objects\mbedcrc.o(i._ZN4mbed7MbedCRCILj32773ELh16EEC1Ev) refers to .\objects\tablecrc.o(.constdata) for mbed::Table_CRC_16bit_IBM
    .\objects\mbedcrc.o(i._ZN4mbed7MbedCRCILj3988292384ELh32EEC1Ev) refers to .\objects\mbedcrc.o(t._ZN4mbed7MbedCRCILj3988292384ELh32EE13mbed_crc_ctorEv) for mbed::MbedCRC<(unsigned)3988292384, (unsigned char)32>::mbed_crc_ctor()
    .\objects\mbedcrc.o(i._ZN4mbed7MbedCRCILj3988292384ELh32EEC1Ev) refers to .\objects\mbedcrc.o(.constdata__ZTVN4mbed7MbedCRCILj3988292384ELh32EEE) for vtable for mbed::MbedCRC<(unsigned)3988292384, (unsigned char)32>
    .\objects\mbedcrc.o(i._ZN4mbed7MbedCRCILj3988292384ELh32EEC1Ev) refers to .\objects\tablecrc.o(.constdata) for mbed::Table_CRC_32bit_Rev_ANSI
    .\objects\mbedcrc.o(i._ZN4mbed7MbedCRCILj4129ELh16EEC1Ev) refers to .\objects\mbedcrc.o(t._ZN4mbed7MbedCRCILj4129ELh16EE13mbed_crc_ctorEv) for mbed::MbedCRC<(unsigned)4129, (unsigned char)16>::mbed_crc_ctor()
    .\objects\mbedcrc.o(i._ZN4mbed7MbedCRCILj4129ELh16EEC1Ev) refers to .\objects\mbedcrc.o(.constdata__ZTVN4mbed7MbedCRCILj4129ELh16EEE) for vtable for mbed::MbedCRC<(unsigned)4129, (unsigned char)16>
    .\objects\mbedcrc.o(i._ZN4mbed7MbedCRCILj4129ELh16EEC1Ev) refers to .\objects\tablecrc.o(.constdata) for mbed::Table_CRC_16bit_CCITT
    .\objects\mbedcrc.o(i._ZN4mbed7MbedCRCILj79764919ELh32EEC1Ev) refers to .\objects\mbedcrc.o(t._ZN4mbed7MbedCRCILj79764919ELh32EE13mbed_crc_ctorEv) for mbed::MbedCRC<(unsigned)79764919, (unsigned char)32>::mbed_crc_ctor()
    .\objects\mbedcrc.o(i._ZN4mbed7MbedCRCILj79764919ELh32EEC1Ev) refers to .\objects\mbedcrc.o(.constdata__ZTVN4mbed7MbedCRCILj79764919ELh32EEE) for vtable for mbed::MbedCRC<(unsigned)79764919, (unsigned char)32>
    .\objects\mbedcrc.o(i._ZN4mbed7MbedCRCILj79764919ELh32EEC1Ev) refers to .\objects\tablecrc.o(.constdata) for mbed::Table_CRC_32bit_ANSI
    .\objects\mbedcrc.o(i._ZN4mbed7MbedCRCILj7ELh8EEC1Ev) refers to .\objects\mbedcrc.o(t._ZN4mbed7MbedCRCILj7ELh8EE13mbed_crc_ctorEv) for mbed::MbedCRC<(unsigned)7, (unsigned char)8>::mbed_crc_ctor()
    .\objects\mbedcrc.o(i._ZN4mbed7MbedCRCILj7ELh8EEC1Ev) refers to .\objects\mbedcrc.o(.constdata__ZTVN4mbed7MbedCRCILj7ELh8EEE) for vtable for mbed::MbedCRC<(unsigned)7, (unsigned char)8>
    .\objects\mbedcrc.o(i._ZN4mbed7MbedCRCILj7ELh8EEC1Ev) refers to .\objects\tablecrc.o(.constdata) for mbed::Table_CRC_8bit_CCITT
    .\objects\mbedcrc.o(i._ZN4mbed7MbedCRCILj9ELh7EEC1Ev) refers to .\objects\mbedcrc.o(t._ZN4mbed7MbedCRCILj9ELh7EE13mbed_crc_ctorEv) for mbed::MbedCRC<(unsigned)9, (unsigned char)7>::mbed_crc_ctor()
    .\objects\mbedcrc.o(i._ZN4mbed7MbedCRCILj9ELh7EEC1Ev) refers to .\objects\mbedcrc.o(.constdata__ZTVN4mbed7MbedCRCILj9ELh7EEE) for vtable for mbed::MbedCRC<(unsigned)9, (unsigned char)7>
    .\objects\mbedcrc.o(i._ZN4mbed7MbedCRCILj9ELh7EEC1Ev) refers to .\objects\tablecrc.o(.constdata) for mbed::Table_CRC_7Bit_SD
    .\objects\mbedcrc.o(.ARM.exidx) refers to .\objects\mbedcrc.o(i._ZN4mbed7MbedCRCILj79764919ELh32EEC1Ev) for i._ZN4mbed7MbedCRCILj79764919ELh32EEC1Ev
    .\objects\mbedcrc.o(.ARM.exidx) refers to .\objects\mbedcrc.o(i._ZN4mbed7MbedCRCILj3988292384ELh32EEC1Ev) for i._ZN4mbed7MbedCRCILj3988292384ELh32EEC1Ev
    .\objects\mbedcrc.o(.ARM.exidx) refers to .\objects\mbedcrc.o(i._ZN4mbed7MbedCRCILj32773ELh16EEC1Ev) for i._ZN4mbed7MbedCRCILj32773ELh16EEC1Ev
    .\objects\mbedcrc.o(.ARM.exidx) refers to .\objects\mbedcrc.o(i._ZN4mbed7MbedCRCILj4129ELh16EEC1Ev) for i._ZN4mbed7MbedCRCILj4129ELh16EEC1Ev
    .\objects\mbedcrc.o(.ARM.exidx) refers to .\objects\mbedcrc.o(i._ZN4mbed7MbedCRCILj9ELh7EEC1Ev) for i._ZN4mbed7MbedCRCILj9ELh7EEC1Ev
    .\objects\mbedcrc.o(.ARM.exidx) refers to .\objects\mbedcrc.o(i._ZN4mbed7MbedCRCILj7ELh8EEC1Ev) for i._ZN4mbed7MbedCRCILj7ELh8EEC1Ev
    .\objects\rawserial.o(i._ZN4mbed9RawSerial4getcEv) refers to .\objects\serialbase.o(i._ZN4mbed10SerialBase10_base_getcEv) for mbed::SerialBase::_base_getc()
    .\objects\rawserial.o(i._ZN4mbed9RawSerial4putcEi) refers to .\objects\serialbase.o(i._ZN4mbed10SerialBase10_base_putcEi) for mbed::SerialBase::_base_putc(int)
    .\objects\rawserial.o(i._ZN4mbed9RawSerial4putsEPKc) refers to .\objects\rawserial.o(i._ZN4mbed9RawSerial4putcEi) for mbed::RawSerial::putc(int)
    .\objects\rawserial.o(i._ZN4mbed9RawSerial6printfEPKcz) refers to D:\ProgramFiles\Keil_v5\ARM\ARMCC\Bin\..\lib\armlib\c_w.l(c89vsnprintf.o)(.text) for __c89vsnprintf
    .\objects\rawserial.o(i._ZN4mbed9RawSerial6printfEPKcz) refers to D:\ProgramFiles\Keil_v5\ARM\ARMCC\Bin\..\lib\armlib\c_w.l(c89vsprintf.o)(.text) for __c89vsprintf
    .\objects\rawserial.o(i._ZN4mbed9RawSerial6printfEPKcz) refers to .\objects\rawserial.o(i._ZN4mbed9RawSerial4putsEPKc) for mbed::RawSerial::puts(const char*)
    .\objects\rawserial.o(i._ZN4mbed9RawSerial6printfEPKcz) refers to .\objects\mbed_retarget.o(i._Znaj) for operator new[] (unsigned)
    .\objects\rawserial.o(i._ZN4mbed9RawSerial6printfEPKcz) refers to .\objects\mbed_retarget.o(i._ZdaPv) for operator delete[] (void*)
    .\objects\rawserial.o(i._ZN4mbed9RawSerialC1E7PinNameS1_i) refers to .\objects\serialbase.o(i._ZN4mbed10SerialBaseC1E7PinNameS1_i) for mbed::SerialBase::SerialBase(PinName, PinName, int)
    .\objects\rawserial.o(i._ZN4mbed9RawSerialC1E7PinNameS1_i) refers to .\objects\rawserial.o(.constdata__ZTVN4mbed9RawSerialE) for vtable for mbed::RawSerial
    .\objects\rawserial.o(.ARM.exidx) refers to .\objects\rawserial.o(i._ZN4mbed9RawSerialC1E7PinNameS1_i) for i._ZN4mbed9RawSerialC1E7PinNameS1_i
    .\objects\rawserial.o(.ARM.exidx) refers to .\objects\rawserial.o(i._ZN4mbed9RawSerial4putcEi) for i._ZN4mbed9RawSerial4putcEi
    .\objects\rawserial.o(.ARM.exidx) refers to .\objects\rawserial.o(i._ZN4mbed9RawSerial4getcEv) for i._ZN4mbed9RawSerial4getcEv
    .\objects\rawserial.o(.ARM.exidx) refers to .\objects\rawserial.o(i._ZN4mbed9RawSerial4putsEPKc) for i._ZN4mbed9RawSerial4putsEPKc
    .\objects\rawserial.o(.ARM.exidx) refers to .\objects\rawserial.o(i._ZN4mbed9RawSerial6printfEPKcz) for i._ZN4mbed9RawSerial6printfEPKcz
    .\objects\rawserial.o(.ARM.exidx) refers to .\objects\rawserial.o(i._ZN4mbed9RawSerial4lockEv) for i._ZN4mbed9RawSerial4lockEv
    .\objects\rawserial.o(.ARM.exidx) refers to .\objects\rawserial.o(i._ZN4mbed9RawSerial6unlockEv) for i._ZN4mbed9RawSerial6unlockEv
    .\objects\serial.o(i._ZN4mbed6Serial4lockEv) refers to .\objects\mutex.o(i._ZN4rtos5Mutex4lockEv) for rtos::Mutex::lock()
    .\objects\serial.o(i._ZN4mbed6Serial5_getcEv) refers to .\objects\serialbase.o(i._ZN4mbed10SerialBase10_base_getcEv) for mbed::SerialBase::_base_getc()
    .\objects\serial.o(i._ZN4mbed6Serial5_putcEi) refers to .\objects\serialbase.o(i._ZN4mbed10SerialBase10_base_putcEi) for mbed::SerialBase::_base_putc(int)
    .\objects\serial.o(i._ZN4mbed6Serial6unlockEv) refers to .\objects\mutex.o(i._ZN4rtos5Mutex6unlockEv) for rtos::Mutex::unlock()
    .\objects\serial.o(i._ZN4mbed6SerialC1E7PinNameS1_PKci) refers to .\objects\serialbase.o(i._ZN4mbed10SerialBaseC1E7PinNameS1_i) for mbed::SerialBase::SerialBase(PinName, PinName, int)
    .\objects\serial.o(i._ZN4mbed6SerialC1E7PinNameS1_PKci) refers to .\objects\stream.o(i._ZN4mbed6StreamC2EPKc) for mbed::Stream::Stream__sub_object(const char*)
    .\objects\serial.o(i._ZN4mbed6SerialC1E7PinNameS1_PKci) refers to .\objects\mutex.o(i._ZN4rtos5MutexC1Ev) for rtos::Mutex::Mutex()
    .\objects\serial.o(i._ZN4mbed6SerialC1E7PinNameS1_PKci) refers to .\objects\serial.o(.constdata__ZTVN4mbed6SerialE) for vtable for mbed::Serial
    .\objects\serial.o(i._ZN4mbed6SerialC1E7PinNameS1_i) refers to .\objects\serialbase.o(i._ZN4mbed10SerialBaseC1E7PinNameS1_i) for mbed::SerialBase::SerialBase(PinName, PinName, int)
    .\objects\serial.o(i._ZN4mbed6SerialC1E7PinNameS1_i) refers to .\objects\stream.o(i._ZN4mbed6StreamC2EPKc) for mbed::Stream::Stream__sub_object(const char*)
    .\objects\serial.o(i._ZN4mbed6SerialC1E7PinNameS1_i) refers to .\objects\mutex.o(i._ZN4rtos5MutexC1Ev) for rtos::Mutex::Mutex()
    .\objects\serial.o(i._ZN4mbed6SerialC1E7PinNameS1_i) refers to .\objects\serial.o(.constdata__ZTVN4mbed6SerialE) for vtable for mbed::Serial
    .\objects\serial.o(i._ZThn188_N4mbed6Serial4lockEv) refers to .\objects\serial.o(i._ZN4mbed6Serial4lockEv) for mbed::Serial::lock()
    .\objects\serial.o(i._ZThn188_N4mbed6Serial5_getcEv) refers to .\objects\serial.o(i._ZN4mbed6Serial5_getcEv) for mbed::Serial::_getc()
    .\objects\serial.o(i._ZThn188_N4mbed6Serial5_putcEi) refers to .\objects\serial.o(i._ZN4mbed6Serial5_putcEi) for mbed::Serial::_putc(int)
    .\objects\serial.o(i._ZThn188_N4mbed6Serial6unlockEv) refers to .\objects\serial.o(i._ZN4mbed6Serial6unlockEv) for mbed::Serial::unlock()
    .\objects\serial.o(.ARM.exidx) refers to .\objects\serial.o(i._ZN4mbed6SerialC1E7PinNameS1_PKci) for i._ZN4mbed6SerialC1E7PinNameS1_PKci
    .\objects\serial.o(.ARM.exidx) refers to .\objects\serial.o(i._ZN4mbed6SerialC1E7PinNameS1_i) for i._ZN4mbed6SerialC1E7PinNameS1_i
    .\objects\serial.o(.ARM.exidx) refers to .\objects\serial.o(i._ZN4mbed6Serial5_getcEv) for i._ZN4mbed6Serial5_getcEv
    .\objects\serial.o(.ARM.exidx) refers to .\objects\serial.o(i._ZThn188_N4mbed6Serial5_getcEv) for i._ZThn188_N4mbed6Serial5_getcEv
    .\objects\serial.o(.ARM.exidx) refers to .\objects\serial.o(i._ZN4mbed6Serial5_putcEi) for i._ZN4mbed6Serial5_putcEi
    .\objects\serial.o(.ARM.exidx) refers to .\objects\serial.o(i._ZThn188_N4mbed6Serial5_putcEi) for i._ZThn188_N4mbed6Serial5_putcEi
    .\objects\serial.o(.ARM.exidx) refers to .\objects\serial.o(i._ZN4mbed6Serial4lockEv) for i._ZN4mbed6Serial4lockEv
    .\objects\serial.o(.ARM.exidx) refers to .\objects\serial.o(i._ZThn188_N4mbed6Serial4lockEv) for i._ZThn188_N4mbed6Serial4lockEv
    .\objects\serial.o(.ARM.exidx) refers to .\objects\serial.o(i._ZN4mbed6Serial6unlockEv) for i._ZN4mbed6Serial6unlockEv
    .\objects\serial.o(.ARM.exidx) refers to .\objects\serial.o(i._ZThn188_N4mbed6Serial6unlockEv) for i._ZThn188_N4mbed6Serial6unlockEv
    .\objects\serialbase.o(i.<Func4>) refers to .\objects\can.o(t._ZN4mbed8CallbackIFvvEEC1EPS1_) for mbed::Callback<void()>::Callback(void(*)())
    .\objects\serialbase.o(i._ZN4mbed10SerialBase10_base_getcEv) refers to .\objects\serial_device.o(i.serial_getc) for serial_getc
    .\objects\serialbase.o(i._ZN4mbed10SerialBase10_base_putcEi) refers to .\objects\serial_device.o(i.serial_putc) for serial_putc
    .\objects\serialbase.o(i._ZN4mbed10SerialBase10abort_readEv) refers to .\objects\serialbase.o(t._ZNK4mbed8CallbackIFviEEcvbEv) for mbed::Callback<void(int)>::operator bool() const
    .\objects\serialbase.o(i._ZN4mbed10SerialBase10abort_readEv) refers to .\objects\mbed_sleep_manager.o(i.sleep_manager_unlock_deep_sleep_internal) for sleep_manager_unlock_deep_sleep_internal
    .\objects\serialbase.o(i._ZN4mbed10SerialBase10abort_readEv) refers to .\objects\serialbase.o(t._ZN4mbed8CallbackIFviEEC1EPS1_) for mbed::Callback<void(int)>::Callback(void(*)(int))
    .\objects\serialbase.o(i._ZN4mbed10SerialBase10abort_readEv) refers to .\objects\spi.o(t._ZN4mbed8CallbackIFviEEaSERKS2_) for mbed::Callback<void(int)>::operator =(const mbed::Callback<void(int)>&)
    .\objects\serialbase.o(i._ZN4mbed10SerialBase10abort_readEv) refers to .\objects\i2c.o(t._ZN4mbed8CallbackIFviEED1Ev) for mbed::Callback<void(int)>::~Callback()
    .\objects\serialbase.o(i._ZN4mbed10SerialBase10abort_readEv) refers to .\objects\serial_device.o(i.serial_rx_abort_asynch) for serial_rx_abort_asynch
    .\objects\serialbase.o(i._ZN4mbed10SerialBase10send_breakEv) refers to .\objects\serial_device.o(i.serial_break_set) for serial_break_set
    .\objects\serialbase.o(i._ZN4mbed10SerialBase10send_breakEv) refers to .\objects\mbed_wait_api_rtos.o(i.wait_us) for wait_us
    .\objects\serialbase.o(i._ZN4mbed10SerialBase10send_breakEv) refers to .\objects\serial_api.o(i.serial_break_clear) for serial_break_clear
    .\objects\serialbase.o(i._ZN4mbed10SerialBase10start_readEPvicRKNS_8CallbackIFviEEEih) refers to .\objects\spi.o(t._ZN4mbed8CallbackIFviEEaSERKS2_) for mbed::Callback<void(int)>::operator =(const mbed::Callback<void(int)>&)
    .\objects\serialbase.o(i._ZN4mbed10SerialBase10start_readEPvicRKNS_8CallbackIFviEEEih) refers to .\objects\serialbase.o(t._ZN6CThunkIN4mbed10SerialBaseEE8callbackEMS1_FvvE) for CThunk<mbed::SerialBase>::callback(void(mbed::SerialBase::*)())
    .\objects\serialbase.o(i._ZN4mbed10SerialBase10start_readEPvicRKNS_8CallbackIFviEEEih) refers to .\objects\mbed_sleep_manager.o(i.sleep_manager_lock_deep_sleep_internal) for sleep_manager_lock_deep_sleep_internal
    .\objects\serialbase.o(i._ZN4mbed10SerialBase10start_readEPvicRKNS_8CallbackIFviEEEih) refers to .\objects\serialbase.o(t._ZN6CThunkIN4mbed10SerialBaseEE5entryEv) for CThunk<mbed::SerialBase>::entry()
    .\objects\serialbase.o(i._ZN4mbed10SerialBase10start_readEPvicRKNS_8CallbackIFviEEEih) refers to .\objects\serial_device.o(i.serial_rx_asynch) for serial_rx_asynch
    .\objects\serialbase.o(i._ZN4mbed10SerialBase10start_readEPvicRKNS_8CallbackIFviEEEih) refers to .\objects\serialbase.o(.constdata) for <Data1>
    .\objects\serialbase.o(i._ZN4mbed10SerialBase11abort_writeEv) refers to .\objects\serialbase.o(t._ZNK4mbed8CallbackIFviEEcvbEv) for mbed::Callback<void(int)>::operator bool() const
    .\objects\serialbase.o(i._ZN4mbed10SerialBase11abort_writeEv) refers to .\objects\mbed_sleep_manager.o(i.sleep_manager_unlock_deep_sleep_internal) for sleep_manager_unlock_deep_sleep_internal
    .\objects\serialbase.o(i._ZN4mbed10SerialBase11abort_writeEv) refers to .\objects\serialbase.o(t._ZN4mbed8CallbackIFviEEC1EPS1_) for mbed::Callback<void(int)>::Callback(void(*)(int))
    .\objects\serialbase.o(i._ZN4mbed10SerialBase11abort_writeEv) refers to .\objects\spi.o(t._ZN4mbed8CallbackIFviEEaSERKS2_) for mbed::Callback<void(int)>::operator =(const mbed::Callback<void(int)>&)
    .\objects\serialbase.o(i._ZN4mbed10SerialBase11abort_writeEv) refers to .\objects\i2c.o(t._ZN4mbed8CallbackIFviEED1Ev) for mbed::Callback<void(int)>::~Callback()
    .\objects\serialbase.o(i._ZN4mbed10SerialBase11abort_writeEv) refers to .\objects\serial_device.o(i.serial_tx_abort_asynch) for serial_tx_abort_asynch
    .\objects\serialbase.o(i._ZN4mbed10SerialBase11start_writeEPKvicRKNS_8CallbackIFviEEEi) refers to .\objects\spi.o(t._ZN4mbed8CallbackIFviEEaSERKS2_) for mbed::Callback<void(int)>::operator =(const mbed::Callback<void(int)>&)
    .\objects\serialbase.o(i._ZN4mbed10SerialBase11start_writeEPKvicRKNS_8CallbackIFviEEEi) refers to .\objects\serialbase.o(t._ZN6CThunkIN4mbed10SerialBaseEE8callbackEMS1_FvvE) for CThunk<mbed::SerialBase>::callback(void(mbed::SerialBase::*)())
    .\objects\serialbase.o(i._ZN4mbed10SerialBase11start_writeEPKvicRKNS_8CallbackIFviEEEi) refers to .\objects\mbed_sleep_manager.o(i.sleep_manager_lock_deep_sleep_internal) for sleep_manager_lock_deep_sleep_internal
    .\objects\serialbase.o(i._ZN4mbed10SerialBase11start_writeEPKvicRKNS_8CallbackIFviEEEi) refers to .\objects\serialbase.o(t._ZN6CThunkIN4mbed10SerialBaseEE5entryEv) for CThunk<mbed::SerialBase>::entry()
    .\objects\serialbase.o(i._ZN4mbed10SerialBase11start_writeEPKvicRKNS_8CallbackIFviEEEi) refers to .\objects\serial_device.o(i.serial_tx_asynch) for serial_tx_asynch
    .\objects\serialbase.o(i._ZN4mbed10SerialBase11start_writeEPKvicRKNS_8CallbackIFviEEEi) refers to .\objects\serialbase.o(.constdata) for <Data1>
    .\objects\serialbase.o(i._ZN4mbed10SerialBase12_irq_handlerEj9SerialIrq) refers to .\objects\can.o(t._ZNK4mbed8CallbackIFvvEEcvbEv) for mbed::Callback<void()>::operator bool() const
    .\objects\serialbase.o(i._ZN4mbed10SerialBase12_irq_handlerEj9SerialIrq) refers to .\objects\mbed_assert.o(i.mbed_assert_internal) for mbed_assert_internal
    .\objects\serialbase.o(i._ZN4mbed10SerialBase12_irq_handlerEj9SerialIrq) refers to .\objects\can.o(.constdata__ZZNK4mbed8CallbackIFvvEE4callEvEs_0) for mbed::Callback<void()>::call() const::string (instance 2)
    .\objects\serialbase.o(i._ZN4mbed10SerialBase12_irq_handlerEj9SerialIrq) refers to .\objects\can.o(.constdata__ZZNK4mbed8CallbackIFvvEE4callEvEs) for mbed::Callback<void()>::call() const::string
    .\objects\serialbase.o(i._ZN4mbed10SerialBase16set_dma_usage_rxE8DMAUsage) refers to .\objects\serial_device.o(i.serial_tx_active) for serial_tx_active
    .\objects\serialbase.o(i._ZN4mbed10SerialBase16set_dma_usage_txE8DMAUsage) refers to .\objects\serial_device.o(i.serial_tx_active) for serial_tx_active
    .\objects\serialbase.o(i._ZN4mbed10SerialBase16set_flow_controlENS0_4FlowE7PinNameS2_) refers to .\objects\serial_device.o(i.serial_set_flow_control) for serial_set_flow_control
    .\objects\serialbase.o(i._ZN4mbed10SerialBase24interrupt_handler_asynchEv) refers to .\objects\serial_device.o(i.serial_irq_handler_asynch) for serial_irq_handler_asynch
    .\objects\serialbase.o(i._ZN4mbed10SerialBase24interrupt_handler_asynchEv) refers to .\objects\serialbase.o(t._ZNK4mbed8CallbackIFviEEcvbEv) for mbed::Callback<void(int)>::operator bool() const
    .\objects\serialbase.o(i._ZN4mbed10SerialBase24interrupt_handler_asynchEv) refers to .\objects\serialbase.o(t._ZNK4mbed8CallbackIFviEE4callEi) for mbed::Callback<void(int)>::call(int) const
    .\objects\serialbase.o(i._ZN4mbed10SerialBase24interrupt_handler_asynchEv) refers to .\objects\mbed_sleep_manager.o(i.sleep_manager_unlock_deep_sleep_internal) for sleep_manager_unlock_deep_sleep_internal
    .\objects\serialbase.o(i._ZN4mbed10SerialBase4baudEi) refers to .\objects\serial_api.o(i.serial_baud) for serial_baud
    .\objects\serialbase.o(i._ZN4mbed10SerialBase4readEPhiRKNS_8CallbackIFviEEEih) refers to .\objects\serial_device.o(i.serial_rx_active) for serial_rx_active
    .\objects\serialbase.o(i._ZN4mbed10SerialBase4readEPhiRKNS_8CallbackIFviEEEih) refers to .\objects\serialbase.o(i._ZN4mbed10SerialBase10start_readEPvicRKNS_8CallbackIFviEEEih) for mbed::SerialBase::start_read(void*, int, char, const mbed::Callback<void(int)>&, int, unsigned char)
    .\objects\serialbase.o(i._ZN4mbed10SerialBase4readEPtiRKNS_8CallbackIFviEEEih) refers to .\objects\serial_device.o(i.serial_rx_active) for serial_rx_active
    .\objects\serialbase.o(i._ZN4mbed10SerialBase4readEPtiRKNS_8CallbackIFviEEEih) refers to .\objects\serialbase.o(i._ZN4mbed10SerialBase10start_readEPvicRKNS_8CallbackIFviEEEih) for mbed::SerialBase::start_read(void*, int, char, const mbed::Callback<void(int)>&, int, unsigned char)
    .\objects\serialbase.o(i._ZN4mbed10SerialBase5writeEPKhiRKNS_8CallbackIFviEEEi) refers to .\objects\serial_device.o(i.serial_tx_active) for serial_tx_active
    .\objects\serialbase.o(i._ZN4mbed10SerialBase5writeEPKhiRKNS_8CallbackIFviEEEi) refers to .\objects\serialbase.o(i._ZN4mbed10SerialBase11start_writeEPKvicRKNS_8CallbackIFviEEEi) for mbed::SerialBase::start_write(const void*, int, char, const mbed::Callback<void(int)>&, int)
    .\objects\serialbase.o(i._ZN4mbed10SerialBase5writeEPKtiRKNS_8CallbackIFviEEEi) refers to .\objects\serial_device.o(i.serial_tx_active) for serial_tx_active
    .\objects\serialbase.o(i._ZN4mbed10SerialBase5writeEPKtiRKNS_8CallbackIFviEEEi) refers to .\objects\serialbase.o(i._ZN4mbed10SerialBase11start_writeEPKvicRKNS_8CallbackIFviEEEi) for mbed::SerialBase::start_write(const void*, int, char, const mbed::Callback<void(int)>&, int)
    .\objects\serialbase.o(i._ZN4mbed10SerialBase6attachENS_8CallbackIFvvEEENS0_7IrqTypeE) refers to .\objects\mbed_critical.o(i.core_util_critical_section_enter) for core_util_critical_section_enter
    .\objects\serialbase.o(i._ZN4mbed10SerialBase6attachENS_8CallbackIFvvEEENS0_7IrqTypeE) refers to .\objects\can.o(t._ZNK4mbed8CallbackIFvvEEcvbEv) for mbed::Callback<void()>::operator bool() const
    .\objects\serialbase.o(i._ZN4mbed10SerialBase6attachENS_8CallbackIFvvEEENS0_7IrqTypeE) refers to .\objects\mbed_sleep_manager.o(i.sleep_manager_lock_deep_sleep_internal) for sleep_manager_lock_deep_sleep_internal
    .\objects\serialbase.o(i._ZN4mbed10SerialBase6attachENS_8CallbackIFvvEEENS0_7IrqTypeE) refers to .\objects\can.o(t._ZN4mbed8CallbackIFvvEEaSERKS2_) for mbed::Callback<void()>::operator =(const mbed::Callback<void()>&)
    .\objects\serialbase.o(i._ZN4mbed10SerialBase6attachENS_8CallbackIFvvEEENS0_7IrqTypeE) refers to .\objects\serial_device.o(i.serial_irq_set) for serial_irq_set
    .\objects\serialbase.o(i._ZN4mbed10SerialBase6attachENS_8CallbackIFvvEEENS0_7IrqTypeE) refers to .\objects\mbed_sleep_manager.o(i.sleep_manager_unlock_deep_sleep_internal) for sleep_manager_unlock_deep_sleep_internal
    .\objects\serialbase.o(i._ZN4mbed10SerialBase6attachENS_8CallbackIFvvEEENS0_7IrqTypeE) refers to .\objects\can.o(t._ZN4mbed8CallbackIFvvEEC1EPS1_) for mbed::Callback<void()>::Callback(void(*)())
    .\objects\serialbase.o(i._ZN4mbed10SerialBase6attachENS_8CallbackIFvvEEENS0_7IrqTypeE) refers to .\objects\can.o(t._ZN4mbed8CallbackIFvvEED1Ev) for mbed::Callback<void()>::~Callback()
    .\objects\serialbase.o(i._ZN4mbed10SerialBase6attachENS_8CallbackIFvvEEENS0_7IrqTypeE) refers to .\objects\mbed_critical.o(i.core_util_critical_section_exit) for core_util_critical_section_exit
    .\objects\serialbase.o(i._ZN4mbed10SerialBase6formatEiNS0_6ParityEi) refers to .\objects\serial_api.o(i.serial_format) for serial_format
    .\objects\serialbase.o(i._ZN4mbed10SerialBase8readableEv) refers to .\objects\serial_api.o(i.serial_readable) for serial_readable
    .\objects\serialbase.o(i._ZN4mbed10SerialBase9writeableEv) refers to .\objects\serial_api.o(i.serial_writable) for serial_writable
    .\objects\serialbase.o(i._ZN4mbed10SerialBaseC1E7PinNameS1_i) refers to .\objects\serialbase.o(t._ZN6CThunkIN4mbed10SerialBaseEE4initEPS1_MS1_FvPvES4_) for CThunk<mbed::SerialBase>::init(mbed::SerialBase*, void(mbed::SerialBase::*)(void*), void*)
    .\objects\serialbase.o(i._ZN4mbed10SerialBaseC1E7PinNameS1_i) refers to .\objects\serialbase.o(t._ZN4mbed8CallbackIFviEEC1EPS1_) for mbed::Callback<void(int)>::Callback(void(*)(int))
    .\objects\serialbase.o(i._ZN4mbed10SerialBaseC1E7PinNameS1_i) refers to D:\ProgramFiles\Keil_v5\ARM\ARMCC\Bin\..\lib\armlib\c_w.l(rt_memclr_w.o)(.text) for __aeabi_memclr4
    .\objects\serialbase.o(i._ZN4mbed10SerialBaseC1E7PinNameS1_i) refers to D:\ProgramFiles\Keil_v5\ARM\ARMCC\Bin\..\lib\cpplib\cpprt_w.l(aeabi_vec_ctor_nocookie_nodtor.o)(i.__aeabi_vec_ctor_nocookie_nodtor) for __aeabi_vec_ctor_nocookie_nodtor
    .\objects\serialbase.o(i._ZN4mbed10SerialBaseC1E7PinNameS1_i) refers to .\objects\can.o(t._ZN4mbed8CallbackIFvvEEC1EPS1_) for mbed::Callback<void()>::Callback(void(*)())
    .\objects\serialbase.o(i._ZN4mbed10SerialBaseC1E7PinNameS1_i) refers to .\objects\can.o(t._ZN4mbed8CallbackIFvvEEaSERKS2_) for mbed::Callback<void()>::operator =(const mbed::Callback<void()>&)
    .\objects\serialbase.o(i._ZN4mbed10SerialBaseC1E7PinNameS1_i) refers to .\objects\can.o(t._ZN4mbed8CallbackIFvvEED1Ev) for mbed::Callback<void()>::~Callback()
    .\objects\serialbase.o(i._ZN4mbed10SerialBaseC1E7PinNameS1_i) refers to .\objects\serial_api.o(i.serial_init) for serial_init
    .\objects\serialbase.o(i._ZN4mbed10SerialBaseC1E7PinNameS1_i) refers to .\objects\serial_api.o(i.serial_baud) for serial_baud
    .\objects\serialbase.o(i._ZN4mbed10SerialBaseC1E7PinNameS1_i) refers to .\objects\serial_device.o(i.serial_irq_handler) for serial_irq_handler
    .\objects\serialbase.o(i._ZN4mbed10SerialBaseC1E7PinNameS1_i) refers to .\objects\serialbase.o(.constdata__ZTVN4mbed10SerialBaseE) for vtable for mbed::SerialBase
    .\objects\serialbase.o(i._ZN4mbed10SerialBaseC1E7PinNameS1_i) refers to .\objects\serialbase.o(.constdata) for <Data2>
    .\objects\serialbase.o(i._ZN4mbed10SerialBaseC1E7PinNameS1_i) refers to .\objects\serialbase.o(i.<Func4>) for <Func4>
    .\objects\serialbase.o(i._ZN4mbed10SerialBaseC1E7PinNameS1_i) refers to .\objects\serialbase.o(i._ZN4mbed10SerialBase12_irq_handlerEj9SerialIrq) for mbed::SerialBase::_irq_handler(unsigned, SerialIrq)
    .\objects\serialbase.o(i._ZN4mbed10SerialBaseD0Ev) refers to .\objects\serialbase.o(i._ZN4mbed10SerialBaseD1Ev) for mbed::SerialBase::~SerialBase()
    .\objects\serialbase.o(i._ZN4mbed10SerialBaseD0Ev) refers to .\objects\mbed_retarget.o(i._ZdlPv) for operator delete (void*)
    .\objects\serialbase.o(i._ZN4mbed10SerialBaseD1Ev) refers to .\objects\can.o(t._ZN4mbed8CallbackIFvvEEC1EPS1_) for mbed::Callback<void()>::Callback(void(*)())
    .\objects\serialbase.o(i._ZN4mbed10SerialBaseD1Ev) refers to .\objects\serialbase.o(i._ZN4mbed10SerialBase6attachENS_8CallbackIFvvEEENS0_7IrqTypeE) for mbed::SerialBase::attach(mbed::Callback<void()>, mbed::SerialBase::IrqType)
    .\objects\serialbase.o(i._ZN4mbed10SerialBaseD1Ev) refers to .\objects\can.o(t._ZN4mbed8CallbackIFvvEED1Ev) for mbed::Callback<void()>::~Callback()
    .\objects\serialbase.o(i._ZN4mbed10SerialBaseD1Ev) refers to D:\ProgramFiles\Keil_v5\ARM\ARMCC\Bin\..\lib\cpplib\cpprt_w.l(aeabi_vec_dtor_noexceptions.o)(.text) for __aeabi_vec_dtor
    .\objects\serialbase.o(i._ZN4mbed10SerialBaseD1Ev) refers to .\objects\i2c.o(t._ZN4mbed8CallbackIFviEED1Ev) for mbed::Callback<void(int)>::~Callback()
    .\objects\serialbase.o(i._ZN4mbed10SerialBaseD1Ev) refers to .\objects\serialbase.o(.constdata__ZTVN4mbed10SerialBaseE) for vtable for mbed::SerialBase
    .\objects\serialbase.o(.ARM.exidx) refers to .\objects\serialbase.o(i.<Func4>) for i.<Func4>
    .\objects\serialbase.o(.ARM.exidx) refers to .\objects\serialbase.o(i._ZN4mbed10SerialBase4baudEi) for i._ZN4mbed10SerialBase4baudEi
    .\objects\serialbase.o(.ARM.exidx) refers to .\objects\serialbase.o(i._ZN4mbed10SerialBase6formatEiNS0_6ParityEi) for i._ZN4mbed10SerialBase6formatEiNS0_6ParityEi
    .\objects\serialbase.o(.ARM.exidx) refers to .\objects\serialbase.o(i._ZN4mbed10SerialBase8readableEv) for i._ZN4mbed10SerialBase8readableEv
    .\objects\serialbase.o(.ARM.exidx) refers to .\objects\serialbase.o(i._ZN4mbed10SerialBase9writeableEv) for i._ZN4mbed10SerialBase9writeableEv
    .\objects\serialbase.o(.ARM.exidx) refers to .\objects\serialbase.o(i._ZN4mbed10SerialBase6attachENS_8CallbackIFvvEEENS0_7IrqTypeE) for i._ZN4mbed10SerialBase6attachENS_8CallbackIFvvEEENS0_7IrqTypeE
    .\objects\serialbase.o(.ARM.exidx) refers to .\objects\serialbase.o(i._ZN4mbed10SerialBase10send_breakEv) for i._ZN4mbed10SerialBase10send_breakEv
    .\objects\serialbase.o(.ARM.exidx) refers to .\objects\serialbase.o(i._ZN4mbed10SerialBase4lockEv) for i._ZN4mbed10SerialBase4lockEv
    .\objects\serialbase.o(.ARM.exidx) refers to .\objects\serialbase.o(i._ZN4mbed10SerialBase6unlockEv) for i._ZN4mbed10SerialBase6unlockEv
    .\objects\serialbase.o(.ARM.exidx) refers to .\objects\serialbase.o(i._ZN4mbed10SerialBase16set_flow_controlENS0_4FlowE7PinNameS2_) for i._ZN4mbed10SerialBase16set_flow_controlENS0_4FlowE7PinNameS2_
    .\objects\serialbase.o(.ARM.exidx) refers to .\objects\serialbase.o(i._ZN4mbed10SerialBase12_irq_handlerEj9SerialIrq) for i._ZN4mbed10SerialBase12_irq_handlerEj9SerialIrq
    .\objects\serialbase.o(.ARM.exidx) refers to .\objects\serialbase.o(i._ZN4mbed10SerialBase11start_writeEPKvicRKNS_8CallbackIFviEEEi) for i._ZN4mbed10SerialBase11start_writeEPKvicRKNS_8CallbackIFviEEEi
    .\objects\serialbase.o(.ARM.exidx) refers to .\objects\serialbase.o(i._ZN4mbed10SerialBase5writeEPKhiRKNS_8CallbackIFviEEEi) for i._ZN4mbed10SerialBase5writeEPKhiRKNS_8CallbackIFviEEEi
    .\objects\serialbase.o(.ARM.exidx) refers to .\objects\serialbase.o(i._ZN4mbed10SerialBase5writeEPKtiRKNS_8CallbackIFviEEEi) for i._ZN4mbed10SerialBase5writeEPKtiRKNS_8CallbackIFviEEEi
    .\objects\serialbase.o(.ARM.exidx) refers to .\objects\serialbase.o(i._ZN4mbed10SerialBase11abort_writeEv) for i._ZN4mbed10SerialBase11abort_writeEv
    .\objects\serialbase.o(.ARM.exidx) refers to .\objects\serialbase.o(i._ZN4mbed10SerialBase10start_readEPvicRKNS_8CallbackIFviEEEih) for i._ZN4mbed10SerialBase10start_readEPvicRKNS_8CallbackIFviEEEih
    .\objects\serialbase.o(.ARM.exidx) refers to .\objects\serialbase.o(i._ZN4mbed10SerialBase4readEPhiRKNS_8CallbackIFviEEEih) for i._ZN4mbed10SerialBase4readEPhiRKNS_8CallbackIFviEEEih
    .\objects\serialbase.o(.ARM.exidx) refers to .\objects\serialbase.o(i._ZN4mbed10SerialBase4readEPtiRKNS_8CallbackIFviEEEih) for i._ZN4mbed10SerialBase4readEPtiRKNS_8CallbackIFviEEEih
    .\objects\serialbase.o(.ARM.exidx) refers to .\objects\serialbase.o(i._ZN4mbed10SerialBase10abort_readEv) for i._ZN4mbed10SerialBase10abort_readEv
    .\objects\serialbase.o(.ARM.exidx) refers to .\objects\serialbase.o(i._ZN4mbed10SerialBase16set_dma_usage_txE8DMAUsage) for i._ZN4mbed10SerialBase16set_dma_usage_txE8DMAUsage
    .\objects\serialbase.o(.ARM.exidx) refers to .\objects\serialbase.o(i._ZN4mbed10SerialBase16set_dma_usage_rxE8DMAUsage) for i._ZN4mbed10SerialBase16set_dma_usage_rxE8DMAUsage
    .\objects\serialbase.o(.ARM.exidx) refers to .\objects\serialbase.o(i._ZN4mbed10SerialBase24interrupt_handler_asynchEv) for i._ZN4mbed10SerialBase24interrupt_handler_asynchEv
    .\objects\serialbase.o(.ARM.exidx) refers to .\objects\serialbase.o(i._ZN4mbed10SerialBaseC1E7PinNameS1_i) for i._ZN4mbed10SerialBaseC1E7PinNameS1_i
    .\objects\serialbase.o(.ARM.exidx) refers to .\objects\serialbase.o(i._ZN4mbed10SerialBaseD1Ev) for i._ZN4mbed10SerialBaseD1Ev
    .\objects\serialbase.o(.ARM.exidx) refers to .\objects\serialbase.o(i._ZN4mbed10SerialBaseD0Ev) for i._ZN4mbed10SerialBaseD0Ev
    .\objects\serialbase.o(.ARM.exidx) refers to .\objects\serialbase.o(i._ZN4mbed10SerialBase10_base_getcEv) for i._ZN4mbed10SerialBase10_base_getcEv
    .\objects\serialbase.o(.ARM.exidx) refers to .\objects\serialbase.o(i._ZN4mbed10SerialBase10_base_putcEi) for i._ZN4mbed10SerialBase10_base_putcEi
    .\objects\serialbase.o(.constdata) refers to .\objects\serialbase.o(i._ZN4mbed10SerialBase24interrupt_handler_asynchEv) for mbed::SerialBase::interrupt_handler_asynch()
    .\objects\spi.o(i._ZN4mbed3SPI13set_dma_usageE8DMAUsage) refers to .\objects\stm_spi_api.o(i.spi_active) for spi_active
    .\objects\spi.o(i._ZN4mbed3SPI14abort_transferEv) refers to .\objects\stm_spi_api.o(i.spi_abort_asynch) for spi_abort_asynch
    .\objects\spi.o(i._ZN4mbed3SPI14abort_transferEv) refers to .\objects\spi.o(i._ZN4mbed3SPI17unlock_deep_sleepEv) for mbed::SPI::unlock_deep_sleep()
    .\objects\spi.o(i._ZN4mbed3SPI14abort_transferEv) refers to .\objects\spi.o(i._ZN4mbed3SPI19dequeue_transactionEv) for mbed::SPI::dequeue_transaction()
    .\objects\spi.o(i._ZN4mbed3SPI14queue_transferEPKviPvihRKNS_8CallbackIFviEEEi) refers to .\objects\spi.o(i._ZN4mbed13transaction_tC1Ev) for mbed::transaction_t::transaction_t()
    .\objects\spi.o(i._ZN4mbed3SPI14queue_transferEPKviPvihRKNS_8CallbackIFviEEEi) refers to .\objects\spi.o(t._ZN4mbed8CallbackIFviEEaSERKS2_) for mbed::Callback<void(int)>::operator =(const mbed::Callback<void(int)>&)
    .\objects\spi.o(i._ZN4mbed3SPI14queue_transferEPKviPvihRKNS_8CallbackIFviEEEi) refers to .\objects\spi.o(t._ZN4mbed8CallbackIFviEEC1ERKS2_) for mbed::Callback<void(int)>::Callback(const mbed::Callback<void(int)>&)
    .\objects\spi.o(i._ZN4mbed3SPI14queue_transferEPKviPvihRKNS_8CallbackIFviEEEi) refers to .\objects\spi.o(t._ZNK4mbed14CircularBufferINS_11TransactionINS_3SPIEEELj2EjE4fullEv) for mbed::CircularBuffer<mbed::Transaction<mbed::SPI>, (unsigned)2, unsigned>::full() const
    .\objects\spi.o(i._ZN4mbed3SPI14queue_transferEPKviPvihRKNS_8CallbackIFviEEEi) refers to .\objects\spi.o(t._ZN4mbed11TransactionINS_3SPIEED1Ev) for mbed::Transaction<mbed::SPI>::~Transaction()
    .\objects\spi.o(i._ZN4mbed3SPI14queue_transferEPKviPvihRKNS_8CallbackIFviEEEi) refers to .\objects\spi.o(i._ZN4mbed13transaction_tD1Ev) for mbed::transaction_t::~transaction_t()
    .\objects\spi.o(i._ZN4mbed3SPI14queue_transferEPKviPvihRKNS_8CallbackIFviEEEi) refers to .\objects\mbed_critical.o(i.core_util_critical_section_enter) for core_util_critical_section_enter
    .\objects\spi.o(i._ZN4mbed3SPI14queue_transferEPKviPvihRKNS_8CallbackIFviEEEi) refers to .\objects\spi.o(t._ZN4mbed14CircularBufferINS_11TransactionINS_3SPIEEELj2EjE4pushERKS3_) for mbed::CircularBuffer<mbed::Transaction<mbed::SPI>, (unsigned)2, unsigned>::push(const mbed::Transaction<mbed::SPI>&)
    .\objects\spi.o(i._ZN4mbed3SPI14queue_transferEPKviPvihRKNS_8CallbackIFviEEEi) refers to .\objects\stm_spi_api.o(i.spi_active) for spi_active
    .\objects\spi.o(i._ZN4mbed3SPI14queue_transferEPKviPvihRKNS_8CallbackIFviEEEi) refers to .\objects\spi.o(i._ZN4mbed3SPI19dequeue_transactionEv) for mbed::SPI::dequeue_transaction()
    .\objects\spi.o(i._ZN4mbed3SPI14queue_transferEPKviPvihRKNS_8CallbackIFviEEEi) refers to .\objects\mbed_critical.o(i.core_util_critical_section_exit) for core_util_critical_section_exit
    .\objects\spi.o(i._ZN4mbed3SPI14queue_transferEPKviPvihRKNS_8CallbackIFviEEEi) refers to .\objects\spi.o(.bss) for mbed::SPI::_transaction_buffer
    .\objects\spi.o(i._ZN4mbed3SPI14start_transferEPKviPvihRKNS_8CallbackIFviEEEi) refers to .\objects\spi.o(i._ZN4mbed3SPI15lock_deep_sleepEv) for mbed::SPI::lock_deep_sleep()
    .\objects\spi.o(i._ZN4mbed3SPI14start_transferEPKviPvihRKNS_8CallbackIFviEEEi) refers to .\objects\spi.o(i._ZN4mbed3SPI8_acquireEv) for mbed::SPI::_acquire()
    .\objects\spi.o(i._ZN4mbed3SPI14start_transferEPKviPvihRKNS_8CallbackIFviEEEi) refers to .\objects\spi.o(t._ZN4mbed8CallbackIFviEEaSERKS2_) for mbed::Callback<void(int)>::operator =(const mbed::Callback<void(int)>&)
    .\objects\spi.o(i._ZN4mbed3SPI14start_transferEPKviPvihRKNS_8CallbackIFviEEEi) refers to .\objects\stm_spi_api.o(i.spi_master_transfer) for spi_master_transfer
    .\objects\spi.o(i._ZN4mbed3SPI14start_transferEPKviPvihRKNS_8CallbackIFviEEEi) refers to .\objects\spi.o(.constdata) for <Data1>
    .\objects\spi.o(i._ZN4mbed3SPI15lock_deep_sleepEv) refers to .\objects\mbed_sleep_manager.o(i.sleep_manager_lock_deep_sleep_internal) for sleep_manager_lock_deep_sleep_internal
    .\objects\spi.o(i._ZN4mbed3SPI17start_transactionEPNS_13transaction_tE) refers to .\objects\spi.o(i._ZN4mbed3SPI14start_transferEPKviPvihRKNS_8CallbackIFviEEEi) for mbed::SPI::start_transfer(const void*, int, void*, int, unsigned char, const mbed::Callback<void(int)>&, int)
    .\objects\spi.o(i._ZN4mbed3SPI17unlock_deep_sleepEv) refers to .\objects\mbed_sleep_manager.o(i.sleep_manager_unlock_deep_sleep_internal) for sleep_manager_unlock_deep_sleep_internal
    .\objects\spi.o(i._ZN4mbed3SPI18irq_handler_asynchEv) refers to .\objects\stm_spi_api.o(i.spi_irq_handler_asynch) for spi_irq_handler_asynch
    .\objects\spi.o(i._ZN4mbed3SPI18irq_handler_asynchEv) refers to .\objects\spi.o(i._ZN4mbed3SPI17unlock_deep_sleepEv) for mbed::SPI::unlock_deep_sleep()
    .\objects\spi.o(i._ZN4mbed3SPI18irq_handler_asynchEv) refers to .\objects\mbed_assert.o(i.mbed_assert_internal) for mbed_assert_internal
    .\objects\spi.o(i._ZN4mbed3SPI18irq_handler_asynchEv) refers to .\objects\spi.o(i._ZN4mbed3SPI19dequeue_transactionEv) for mbed::SPI::dequeue_transaction()
    .\objects\spi.o(i._ZN4mbed3SPI18irq_handler_asynchEv) refers to .\objects\i2c.o(.constdata__ZZNK4mbed8CallbackIFviEE4callEiEs_0) for mbed::Callback<void(int)>::call(int) const::string (instance 2)
    .\objects\spi.o(i._ZN4mbed3SPI18irq_handler_asynchEv) refers to .\objects\i2c.o(.constdata__ZZNK4mbed8CallbackIFviEE4callEiEs) for mbed::Callback<void(int)>::call(int) const::string
    .\objects\spi.o(i._ZN4mbed3SPI19abort_all_transfersEv) refers to .\objects\spi.o(i._ZN4mbed3SPI21clear_transfer_bufferEv) for mbed::SPI::clear_transfer_buffer()
    .\objects\spi.o(i._ZN4mbed3SPI19abort_all_transfersEv) refers to .\objects\spi.o(i._ZN4mbed3SPI14abort_transferEv) for mbed::SPI::abort_transfer()
    .\objects\spi.o(i._ZN4mbed3SPI19dequeue_transactionEv) refers to .\objects\spi.o(t._ZN4mbed11TransactionINS_3SPIEEC1Ev) for mbed::Transaction<mbed::SPI>::Transaction()
    .\objects\spi.o(i._ZN4mbed3SPI19dequeue_transactionEv) refers to .\objects\spi.o(t._ZN4mbed14CircularBufferINS_11TransactionINS_3SPIEEELj2EjE3popERS3_) for mbed::CircularBuffer<mbed::Transaction<mbed::SPI>, (unsigned)2, unsigned>::pop(mbed::Transaction<mbed::SPI>&)
    .\objects\spi.o(i._ZN4mbed3SPI19dequeue_transactionEv) refers to .\objects\spi.o(i._ZN4mbed3SPI17start_transactionEPNS_13transaction_tE) for mbed::SPI::start_transaction(mbed::transaction_t*)
    .\objects\spi.o(i._ZN4mbed3SPI19dequeue_transactionEv) refers to .\objects\spi.o(t._ZN4mbed11TransactionINS_3SPIEED1Ev) for mbed::Transaction<mbed::SPI>::~Transaction()
    .\objects\spi.o(i._ZN4mbed3SPI19dequeue_transactionEv) refers to .\objects\spi.o(.bss) for mbed::SPI::_transaction_buffer
    .\objects\spi.o(i._ZN4mbed3SPI21clear_transfer_bufferEv) refers to .\objects\mbed_critical.o(i.core_util_critical_section_enter) for core_util_critical_section_enter
    .\objects\spi.o(i._ZN4mbed3SPI21clear_transfer_bufferEv) refers to .\objects\mbed_critical.o(i.core_util_critical_section_exit) for core_util_critical_section_exit
    .\objects\spi.o(i._ZN4mbed3SPI21clear_transfer_bufferEv) refers to .\objects\spi.o(.bss) for mbed::SPI::_transaction_buffer
    .\objects\spi.o(i._ZN4mbed3SPI4lockEv) refers to .\objects\flashiap.o(t._ZN12SingletonPtrIN4rtos5MutexEEptEv) for SingletonPtr<rtos::Mutex>::operator ->()
    .\objects\spi.o(i._ZN4mbed3SPI4lockEv) refers to .\objects\mutex.o(i._ZN4rtos5Mutex4lockEv) for rtos::Mutex::lock()
    .\objects\spi.o(i._ZN4mbed3SPI4lockEv) refers to .\objects\spi.o(.bss) for mbed::SPI::_mutex
    .\objects\spi.o(i._ZN4mbed3SPI5writeEPKciPci) refers to .\objects\spi.o(i._ZN4mbed3SPI8_acquireEv) for mbed::SPI::_acquire()
    .\objects\spi.o(i._ZN4mbed3SPI5writeEPKciPci) refers to .\objects\stm_spi_api.o(i.spi_master_block_write) for spi_master_block_write
    .\objects\spi.o(i._ZN4mbed3SPI5writeEi) refers to .\objects\spi.o(i._ZN4mbed3SPI8_acquireEv) for mbed::SPI::_acquire()
    .\objects\spi.o(i._ZN4mbed3SPI5writeEi) refers to .\objects\stm_spi_api.o(i.spi_master_write) for spi_master_write
    .\objects\spi.o(i._ZN4mbed3SPI6aquireEv) refers to .\objects\stm_spi_api.o(i.spi_format) for spi_format
    .\objects\spi.o(i._ZN4mbed3SPI6aquireEv) refers to .\objects\stm_spi_api.o(i.spi_frequency) for spi_frequency
    .\objects\spi.o(i._ZN4mbed3SPI6aquireEv) refers to .\objects\spi.o(.data) for mbed::SPI::_owner
    .\objects\spi.o(i._ZN4mbed3SPI6formatEii) refers to .\objects\stm_spi_api.o(i.spi_format) for spi_format
    .\objects\spi.o(i._ZN4mbed3SPI6formatEii) refers to .\objects\spi.o(i._ZN4mbed3SPI8_acquireEv) for mbed::SPI::_acquire()
    .\objects\spi.o(i._ZN4mbed3SPI6formatEii) refers to .\objects\spi.o(.data) for mbed::SPI::_owner
    .\objects\spi.o(i._ZN4mbed3SPI6unlockEv) refers to .\objects\flashiap.o(t._ZN12SingletonPtrIN4rtos5MutexEEptEv) for SingletonPtr<rtos::Mutex>::operator ->()
    .\objects\spi.o(i._ZN4mbed3SPI6unlockEv) refers to .\objects\mutex.o(i._ZN4rtos5Mutex6unlockEv) for rtos::Mutex::unlock()
    .\objects\spi.o(i._ZN4mbed3SPI6unlockEv) refers to .\objects\spi.o(.bss) for mbed::SPI::_mutex
    .\objects\spi.o(i._ZN4mbed3SPI8_acquireEv) refers to .\objects\stm_spi_api.o(i.spi_format) for spi_format
    .\objects\spi.o(i._ZN4mbed3SPI8_acquireEv) refers to .\objects\stm_spi_api.o(i.spi_frequency) for spi_frequency
    .\objects\spi.o(i._ZN4mbed3SPI8_acquireEv) refers to .\objects\spi.o(.data) for mbed::SPI::_owner
    .\objects\spi.o(i._ZN4mbed3SPI8transferEPKviPvihRKNS_8CallbackIFviEEEi) refers to .\objects\stm_spi_api.o(i.spi_active) for spi_active
    .\objects\spi.o(i._ZN4mbed3SPI8transferEPKviPvihRKNS_8CallbackIFviEEEi) refers to .\objects\spi.o(i._ZN4mbed3SPI14queue_transferEPKviPvihRKNS_8CallbackIFviEEEi) for mbed::SPI::queue_transfer(const void*, int, void*, int, unsigned char, const mbed::Callback<void(int)>&, int)
    .\objects\spi.o(i._ZN4mbed3SPI8transferEPKviPvihRKNS_8CallbackIFviEEEi) refers to .\objects\spi.o(i._ZN4mbed3SPI14start_transferEPKviPvihRKNS_8CallbackIFviEEEi) for mbed::SPI::start_transfer(const void*, int, void*, int, unsigned char, const mbed::Callback<void(int)>&, int)
    .\objects\spi.o(i._ZN4mbed3SPI9frequencyEi) refers to .\objects\stm_spi_api.o(i.spi_frequency) for spi_frequency
    .\objects\spi.o(i._ZN4mbed3SPI9frequencyEi) refers to .\objects\spi.o(i._ZN4mbed3SPI8_acquireEv) for mbed::SPI::_acquire()
    .\objects\spi.o(i._ZN4mbed3SPI9frequencyEi) refers to .\objects\spi.o(.data) for mbed::SPI::_owner
    .\objects\spi.o(i._ZN4mbed3SPIC1E7PinNameS1_S1_S1_) refers to D:\ProgramFiles\Keil_v5\ARM\ARMCC\Bin\..\lib\armlib\c_w.l(rt_memclr_w.o)(.text) for __aeabi_memclr4
    .\objects\spi.o(i._ZN4mbed3SPIC1E7PinNameS1_S1_S1_) refers to .\objects\spi.o(t._ZN6CThunkIN4mbed3SPIEE4initEPS1_MS1_FvPvES4_) for CThunk<mbed::SPI>::init(mbed::SPI*, void(mbed::SPI::*)(void*), void*)
    .\objects\spi.o(i._ZN4mbed3SPIC1E7PinNameS1_S1_S1_) refers to .\objects\serialbase.o(t._ZN4mbed8CallbackIFviEEC1EPS1_) for mbed::Callback<void(int)>::Callback(void(*)(int))
    .\objects\spi.o(i._ZN4mbed3SPIC1E7PinNameS1_S1_S1_) refers to .\objects\stm_spi_api.o(i.spi_init) for spi_init
    .\objects\spi.o(i._ZN4mbed3SPIC1E7PinNameS1_S1_S1_) refers to .\objects\spi.o(i._ZN4mbed3SPI8_acquireEv) for mbed::SPI::_acquire()
    .\objects\spi.o(i._ZN4mbed3SPIC1E7PinNameS1_S1_S1_) refers to .\objects\spi.o(.constdata__ZTVN4mbed3SPIE) for vtable for mbed::SPI
    .\objects\spi.o(i._ZN4mbed3SPIC1E7PinNameS1_S1_S1_) refers to .\objects\spi.o(.constdata) for <Data2>
    .\objects\spi.o(i.__sti___7_SPI_cpp_ab1f1164) refers to D:\ProgramFiles\Keil_v5\ARM\ARMCC\Bin\..\lib\cpplib\cpprt_w.l(aeabi_vec_ctor_nocookie_nodtor.o)(i.__aeabi_vec_ctor_nocookie_nodtor) for __aeabi_vec_ctor_nocookie_nodtor
    .\objects\spi.o(i.__sti___7_SPI_cpp_ab1f1164) refers to .\objects\mbed_retarget.o(i.__aeabi_atexit) for __aeabi_atexit
    .\objects\spi.o(i.__sti___7_SPI_cpp_ab1f1164) refers to .\objects\spi.o(.bss) for mbed::SPI::_transaction_buffer
    .\objects\spi.o(i.__sti___7_SPI_cpp_ab1f1164) refers to .\objects\spi.o(t._ZN4mbed11TransactionINS_3SPIEEC1Ev) for mbed::Transaction<mbed::SPI>::Transaction()
    .\objects\spi.o(i.__sti___7_SPI_cpp_ab1f1164) refers to .\objects\spi.o(t._ZN4mbed14CircularBufferINS_11TransactionINS_3SPIEEELj2EjED1Ev) for mbed::CircularBuffer<mbed::Transaction<mbed::SPI>, (unsigned)2, unsigned>::~CircularBuffer()
    .\objects\spi.o(.ARM.exidx) refers to .\objects\spi.o(i._ZN4mbed3SPI8_acquireEv) for i._ZN4mbed3SPI8_acquireEv
    .\objects\spi.o(.ARM.exidx) refers to .\objects\spi.o(i._ZN4mbed3SPIC1E7PinNameS1_S1_S1_) for i._ZN4mbed3SPIC1E7PinNameS1_S1_S1_
    .\objects\spi.o(.ARM.exidx) refers to .\objects\spi.o(i._ZN4mbed3SPI6formatEii) for i._ZN4mbed3SPI6formatEii
    .\objects\spi.o(.ARM.exidx) refers to .\objects\spi.o(i._ZN4mbed3SPI9frequencyEi) for i._ZN4mbed3SPI9frequencyEi
    .\objects\spi.o(.ARM.exidx) refers to .\objects\spi.o(i._ZN4mbed3SPI5writeEi) for i._ZN4mbed3SPI5writeEi
    .\objects\spi.o(.ARM.exidx) refers to .\objects\spi.o(i._ZN4mbed3SPI5writeEPKciPci) for i._ZN4mbed3SPI5writeEPKciPci
    .\objects\spi.o(.ARM.exidx) refers to .\objects\spi.o(i._ZN4mbed3SPI4lockEv) for i._ZN4mbed3SPI4lockEv
    .\objects\spi.o(.ARM.exidx) refers to .\objects\spi.o(i._ZN4mbed3SPI6unlockEv) for i._ZN4mbed3SPI6unlockEv
    .\objects\spi.o(.ARM.exidx) refers to .\objects\spi.o(i._ZN4mbed3SPI23set_default_write_valueEc) for i._ZN4mbed3SPI23set_default_write_valueEc
    .\objects\spi.o(.ARM.exidx) refers to .\objects\spi.o(i._ZN4mbed3SPI15lock_deep_sleepEv) for i._ZN4mbed3SPI15lock_deep_sleepEv
    .\objects\spi.o(.ARM.exidx) refers to .\objects\spi.o(i._ZN4mbed3SPI14start_transferEPKviPvihRKNS_8CallbackIFviEEEi) for i._ZN4mbed3SPI14start_transferEPKviPvihRKNS_8CallbackIFviEEEi
    .\objects\spi.o(.ARM.exidx) refers to .\objects\spi.o(i._ZN4mbed3SPI17start_transactionEPNS_13transaction_tE) for i._ZN4mbed3SPI17start_transactionEPNS_13transaction_tE
    .\objects\spi.o(.ARM.exidx) refers to .\objects\spi.o(i._ZN4mbed3SPI19dequeue_transactionEv) for i._ZN4mbed3SPI19dequeue_transactionEv
    .\objects\spi.o(.ARM.exidx) refers to .\objects\spi.o(i._ZN4mbed3SPI17unlock_deep_sleepEv) for i._ZN4mbed3SPI17unlock_deep_sleepEv
    .\objects\spi.o(.ARM.exidx) refers to .\objects\spi.o(i._ZN4mbed3SPI14abort_transferEv) for i._ZN4mbed3SPI14abort_transferEv
    .\objects\spi.o(.ARM.exidx) refers to .\objects\spi.o(i._ZN4mbed3SPI21clear_transfer_bufferEv) for i._ZN4mbed3SPI21clear_transfer_bufferEv
    .\objects\spi.o(.ARM.exidx) refers to .\objects\spi.o(i._ZN4mbed3SPI19abort_all_transfersEv) for i._ZN4mbed3SPI19abort_all_transfersEv
    .\objects\spi.o(.ARM.exidx) refers to .\objects\spi.o(i._ZN4mbed3SPI13set_dma_usageE8DMAUsage) for i._ZN4mbed3SPI13set_dma_usageE8DMAUsage
    .\objects\spi.o(.ARM.exidx) refers to .\objects\spi.o(i._ZN4mbed3SPI18irq_handler_asynchEv) for i._ZN4mbed3SPI18irq_handler_asynchEv
    .\objects\spi.o(.ARM.exidx) refers to .\objects\spi.o(i._ZN4mbed3SPI14queue_transferEPKviPvihRKNS_8CallbackIFviEEEi) for i._ZN4mbed3SPI14queue_transferEPKviPvihRKNS_8CallbackIFviEEEi
    .\objects\spi.o(.ARM.exidx) refers to .\objects\spi.o(i._ZN4mbed3SPI8transferEPKviPvihRKNS_8CallbackIFviEEEi) for i._ZN4mbed3SPI8transferEPKviPvihRKNS_8CallbackIFviEEEi
    .\objects\spi.o(.ARM.exidx) refers to .\objects\spi.o(i._ZN4mbed3SPI6aquireEv) for i._ZN4mbed3SPI6aquireEv
    .\objects\spi.o(.ARM.exidx) refers to .\objects\spi.o(i.__sti___7_SPI_cpp_ab1f1164) for i.__sti___7_SPI_cpp_ab1f1164
    .\objects\spi.o(.constdata) refers to .\objects\spi.o(i._ZN4mbed3SPI18irq_handler_asynchEv) for mbed::SPI::irq_handler_asynch()
    .\objects\spi.o(.init_array) refers to .\objects\spi.o(i.__sti___7_SPI_cpp_ab1f1164) for __sti___7_SPI_cpp_ab1f1164
    .\objects\spi.o(.init_array) refers to D:\ProgramFiles\Keil_v5\ARM\ARMCC\Bin\..\lib\armlib\c_w.l(init_aeabi.o)(.text) for __cpp_initialize__aeabi_
    .\objects\spislave.o(i._ZN4mbed8SPISlave4readEv) refers to .\objects\stm_spi_api.o(i.spi_slave_read) for spi_slave_read
    .\objects\spislave.o(i._ZN4mbed8SPISlave5replyEi) refers to .\objects\stm_spi_api.o(i.spi_slave_write) for spi_slave_write
    .\objects\spislave.o(i._ZN4mbed8SPISlave6formatEii) refers to .\objects\stm_spi_api.o(i.spi_format) for spi_format
    .\objects\spislave.o(i._ZN4mbed8SPISlave7receiveEv) refers to .\objects\stm_spi_api.o(i.spi_slave_receive) for spi_slave_receive
    .\objects\spislave.o(i._ZN4mbed8SPISlave9frequencyEi) refers to .\objects\stm_spi_api.o(i.spi_frequency) for spi_frequency
    .\objects\spislave.o(i._ZN4mbed8SPISlaveC1E7PinNameS1_S1_S1_) refers to D:\ProgramFiles\Keil_v5\ARM\ARMCC\Bin\..\lib\armlib\c_w.l(rt_memclr_w.o)(.text) for __aeabi_memclr4
    .\objects\spislave.o(i._ZN4mbed8SPISlaveC1E7PinNameS1_S1_S1_) refers to .\objects\stm_spi_api.o(i.spi_init) for spi_init
    .\objects\spislave.o(i._ZN4mbed8SPISlaveC1E7PinNameS1_S1_S1_) refers to .\objects\stm_spi_api.o(i.spi_format) for spi_format
    .\objects\spislave.o(i._ZN4mbed8SPISlaveC1E7PinNameS1_S1_S1_) refers to .\objects\stm_spi_api.o(i.spi_frequency) for spi_frequency
    .\objects\spislave.o(.ARM.exidx) refers to .\objects\spislave.o(i._ZN4mbed8SPISlaveC1E7PinNameS1_S1_S1_) for i._ZN4mbed8SPISlaveC1E7PinNameS1_S1_S1_
    .\objects\spislave.o(.ARM.exidx) refers to .\objects\spislave.o(i._ZN4mbed8SPISlave6formatEii) for i._ZN4mbed8SPISlave6formatEii
    .\objects\spislave.o(.ARM.exidx) refers to .\objects\spislave.o(i._ZN4mbed8SPISlave9frequencyEi) for i._ZN4mbed8SPISlave9frequencyEi
    .\objects\spislave.o(.ARM.exidx) refers to .\objects\spislave.o(i._ZN4mbed8SPISlave7receiveEv) for i._ZN4mbed8SPISlave7receiveEv
    .\objects\spislave.o(.ARM.exidx) refers to .\objects\spislave.o(i._ZN4mbed8SPISlave4readEv) for i._ZN4mbed8SPISlave4readEv
    .\objects\spislave.o(.ARM.exidx) refers to .\objects\spislave.o(i._ZN4mbed8SPISlave5replyEi) for i._ZN4mbed8SPISlave5replyEi
    .\objects\ticker.o(i._ZN4mbed6Ticker5setupEy) refers to .\objects\mbed_critical.o(i.core_util_critical_section_enter) for core_util_critical_section_enter
    .\objects\ticker.o(i._ZN4mbed6Ticker5setupEy) refers to .\objects\timerevent.o(i._ZN4mbed10TimerEvent6removeEv) for mbed::TimerEvent::remove()
    .\objects\ticker.o(i._ZN4mbed6Ticker5setupEy) refers to .\objects\mbed_ticker_api.o(i.ticker_read_us) for ticker_read_us
    .\objects\ticker.o(i._ZN4mbed6Ticker5setupEy) refers to .\objects\timerevent.o(i._ZN4mbed10TimerEvent15insert_absoluteEy) for mbed::TimerEvent::insert_absolute(unsigned long long)
    .\objects\ticker.o(i._ZN4mbed6Ticker5setupEy) refers to .\objects\mbed_critical.o(i.core_util_critical_section_exit) for core_util_critical_section_exit
    .\objects\ticker.o(i._ZN4mbed6Ticker6detachEv) refers to .\objects\mbed_critical.o(i.core_util_critical_section_enter) for core_util_critical_section_enter
    .\objects\ticker.o(i._ZN4mbed6Ticker6detachEv) refers to .\objects\timerevent.o(i._ZN4mbed10TimerEvent6removeEv) for mbed::TimerEvent::remove()
    .\objects\ticker.o(i._ZN4mbed6Ticker6detachEv) refers to .\objects\can.o(t._ZNK4mbed8CallbackIFvvEEcvbEv) for mbed::Callback<void()>::operator bool() const
    .\objects\ticker.o(i._ZN4mbed6Ticker6detachEv) refers to .\objects\mbed_sleep_manager.o(i.sleep_manager_unlock_deep_sleep_internal) for sleep_manager_unlock_deep_sleep_internal
    .\objects\ticker.o(i._ZN4mbed6Ticker6detachEv) refers to .\objects\can.o(t._ZN4mbed8CallbackIFvvEED1Ev) for mbed::Callback<void()>::~Callback()
    .\objects\ticker.o(i._ZN4mbed6Ticker6detachEv) refers to .\objects\mbed_critical.o(i.core_util_critical_section_exit) for core_util_critical_section_exit
    .\objects\ticker.o(i._ZN4mbed6Ticker6detachEv) refers to .\objects\can.o(.constdata__ZZN4mbed8CallbackIFvvEE8generateIPS1_EEvRKT_E3ops) for void mbed::Callback<void()>::generate<void(*)()>(const T1&)::ops
    .\objects\ticker.o(i._ZN4mbed6Ticker7handlerEv) refers to .\objects\timerevent.o(i._ZN4mbed10TimerEvent15insert_absoluteEy) for mbed::TimerEvent::insert_absolute(unsigned long long)
    .\objects\ticker.o(i._ZN4mbed6Ticker7handlerEv) refers to .\objects\can.o(t._ZNK4mbed8CallbackIFvvEEcvbEv) for mbed::Callback<void()>::operator bool() const
    .\objects\ticker.o(i._ZN4mbed6Ticker7handlerEv) refers to .\objects\mbed_assert.o(i.mbed_assert_internal) for mbed_assert_internal
    .\objects\ticker.o(i._ZN4mbed6Ticker7handlerEv) refers to .\objects\can.o(.constdata__ZZNK4mbed8CallbackIFvvEE4callEvEs_0) for mbed::Callback<void()>::call() const::string (instance 2)
    .\objects\ticker.o(i._ZN4mbed6Ticker7handlerEv) refers to .\objects\can.o(.constdata__ZZNK4mbed8CallbackIFvvEE4callEvEs) for mbed::Callback<void()>::call() const::string
    .\objects\ticker.o(.ARM.exidx) refers to .\objects\ticker.o(i._ZN4mbed6Ticker6detachEv) for i._ZN4mbed6Ticker6detachEv
    .\objects\ticker.o(.ARM.exidx) refers to .\objects\ticker.o(i._ZN4mbed6Ticker5setupEy) for i._ZN4mbed6Ticker5setupEy
    .\objects\ticker.o(.ARM.exidx) refers to .\objects\ticker.o(i._ZN4mbed6Ticker7handlerEv) for i._ZN4mbed6Ticker7handlerEv
    .\objects\timeout.o(i._ZN4mbed7Timeout7handlerEv) refers to .\objects\ticker.o(i._ZN4mbed6Ticker6detachEv) for mbed::Ticker::detach()
    .\objects\timeout.o(i._ZN4mbed7Timeout7handlerEv) refers to .\objects\mbed_assert.o(i.mbed_assert_internal) for mbed_assert_internal
    .\objects\timeout.o(i._ZN4mbed7Timeout7handlerEv) refers to .\objects\can.o(t._ZN4mbed8CallbackIFvvEED1Ev) for mbed::Callback<void()>::~Callback()
    .\objects\timeout.o(i._ZN4mbed7Timeout7handlerEv) refers to .\objects\can.o(.constdata__ZZNK4mbed8CallbackIFvvEE4callEvEs_0) for mbed::Callback<void()>::call() const::string (instance 2)
    .\objects\timeout.o(i._ZN4mbed7Timeout7handlerEv) refers to .\objects\can.o(.constdata__ZZNK4mbed8CallbackIFvvEE4callEvEs) for mbed::Callback<void()>::call() const::string
    .\objects\timeout.o(.ARM.exidx) refers to .\objects\timeout.o(i._ZN4mbed7Timeout7handlerEv) for i._ZN4mbed7Timeout7handlerEv
    .\objects\timer.o(i._ZN4mbed5Timer23read_high_resolution_usEv) refers to .\objects\mbed_critical.o(i.core_util_critical_section_enter) for core_util_critical_section_enter
    .\objects\timer.o(i._ZN4mbed5Timer23read_high_resolution_usEv) refers to .\objects\timer.o(i._ZN4mbed5Timer9slicetimeEv) for mbed::Timer::slicetime()
    .\objects\timer.o(i._ZN4mbed5Timer23read_high_resolution_usEv) refers to .\objects\mbed_critical.o(i.core_util_critical_section_exit) for core_util_critical_section_exit
    .\objects\timer.o(i._ZN4mbed5Timer4readEv) refers to .\objects\timer.o(i._ZN4mbed5Timer7read_usEv) for mbed::Timer::read_us()
    .\objects\timer.o(i._ZN4mbed5Timer4stopEv) refers to .\objects\mbed_critical.o(i.core_util_critical_section_enter) for core_util_critical_section_enter
    .\objects\timer.o(i._ZN4mbed5Timer4stopEv) refers to .\objects\timer.o(i._ZN4mbed5Timer9slicetimeEv) for mbed::Timer::slicetime()
    .\objects\timer.o(i._ZN4mbed5Timer4stopEv) refers to .\objects\mbed_sleep_manager.o(i.sleep_manager_unlock_deep_sleep_internal) for sleep_manager_unlock_deep_sleep_internal
    .\objects\timer.o(i._ZN4mbed5Timer4stopEv) refers to .\objects\mbed_critical.o(i.core_util_critical_section_exit) for core_util_critical_section_exit
    .\objects\timer.o(i._ZN4mbed5Timer5resetEv) refers to .\objects\mbed_critical.o(i.core_util_critical_section_enter) for core_util_critical_section_enter
    .\objects\timer.o(i._ZN4mbed5Timer5resetEv) refers to .\objects\mbed_ticker_api.o(i.ticker_read_us) for ticker_read_us
    .\objects\timer.o(i._ZN4mbed5Timer5resetEv) refers to .\objects\mbed_critical.o(i.core_util_critical_section_exit) for core_util_critical_section_exit
    .\objects\timer.o(i._ZN4mbed5Timer5startEv) refers to .\objects\mbed_critical.o(i.core_util_critical_section_enter) for core_util_critical_section_enter
    .\objects\timer.o(i._ZN4mbed5Timer5startEv) refers to .\objects\mbed_sleep_manager.o(i.sleep_manager_lock_deep_sleep_internal) for sleep_manager_lock_deep_sleep_internal
    .\objects\timer.o(i._ZN4mbed5Timer5startEv) refers to .\objects\mbed_ticker_api.o(i.ticker_read_us) for ticker_read_us
    .\objects\timer.o(i._ZN4mbed5Timer5startEv) refers to .\objects\mbed_critical.o(i.core_util_critical_section_exit) for core_util_critical_section_exit
    .\objects\timer.o(i._ZN4mbed5Timer7read_msEv) refers to .\objects\timer.o(i._ZN4mbed5Timer23read_high_resolution_usEv) for mbed::Timer::read_high_resolution_us()
    .\objects\timer.o(i._ZN4mbed5Timer7read_msEv) refers to D:\ProgramFiles\Keil_v5\ARM\ARMCC\Bin\..\lib\armlib\c_w.l(lludivv7m.o)(.text) for __aeabi_uldivmod
    .\objects\timer.o(i._ZN4mbed5Timer7read_usEv) refers to .\objects\timer.o(i._ZN4mbed5Timer23read_high_resolution_usEv) for mbed::Timer::read_high_resolution_us()
    .\objects\timer.o(i._ZN4mbed5Timer9slicetimeEv) refers to .\objects\mbed_critical.o(i.core_util_critical_section_enter) for core_util_critical_section_enter
    .\objects\timer.o(i._ZN4mbed5Timer9slicetimeEv) refers to .\objects\mbed_ticker_api.o(i.ticker_read_us) for ticker_read_us
    .\objects\timer.o(i._ZN4mbed5Timer9slicetimeEv) refers to .\objects\mbed_critical.o(i.core_util_critical_section_exit) for core_util_critical_section_exit
    .\objects\timer.o(i._ZN4mbed5TimerC1EPK13ticker_data_t) refers to .\objects\timer.o(i._ZN4mbed5Timer5resetEv) for mbed::Timer::reset()
    .\objects\timer.o(i._ZN4mbed5TimerC1EPK13ticker_data_t) refers to .\objects\mbed_lp_ticker_api.o(i.get_lp_ticker_data) for get_lp_ticker_data
    .\objects\timer.o(i._ZN4mbed5TimerC1Ev) refers to .\objects\mbed_us_ticker_api.o(i.get_us_ticker_data) for get_us_ticker_data
    .\objects\timer.o(i._ZN4mbed5TimerC1Ev) refers to .\objects\timer.o(i._ZN4mbed5Timer5resetEv) for mbed::Timer::reset()
    .\objects\timer.o(i._ZN4mbed5TimerD1Ev) refers to .\objects\mbed_critical.o(i.core_util_critical_section_enter) for core_util_critical_section_enter
    .\objects\timer.o(i._ZN4mbed5TimerD1Ev) refers to .\objects\mbed_sleep_manager.o(i.sleep_manager_unlock_deep_sleep_internal) for sleep_manager_unlock_deep_sleep_internal
    .\objects\timer.o(i._ZN4mbed5TimerD1Ev) refers to .\objects\mbed_critical.o(i.core_util_critical_section_exit) for core_util_critical_section_exit
    .\objects\timer.o(i._ZN4mbed5TimercvfEv) refers to .\objects\timer.o(i._ZN4mbed5Timer4readEv) for mbed::Timer::read()
    .\objects\timer.o(.ARM.exidx) refers to .\objects\timer.o(i._ZN4mbed5Timer5resetEv) for i._ZN4mbed5Timer5resetEv
    .\objects\timer.o(.ARM.exidx) refers to .\objects\timer.o(i._ZN4mbed5TimerC1Ev) for i._ZN4mbed5TimerC1Ev
    .\objects\timer.o(.ARM.exidx) refers to .\objects\timer.o(i._ZN4mbed5TimerC1EPK13ticker_data_t) for i._ZN4mbed5TimerC1EPK13ticker_data_t
    .\objects\timer.o(.ARM.exidx) refers to .\objects\timer.o(i._ZN4mbed5TimerD1Ev) for i._ZN4mbed5TimerD1Ev
    .\objects\timer.o(.ARM.exidx) refers to .\objects\timer.o(i._ZN4mbed5Timer5startEv) for i._ZN4mbed5Timer5startEv
    .\objects\timer.o(.ARM.exidx) refers to .\objects\timer.o(i._ZN4mbed5Timer9slicetimeEv) for i._ZN4mbed5Timer9slicetimeEv
    .\objects\timer.o(.ARM.exidx) refers to .\objects\timer.o(i._ZN4mbed5Timer4stopEv) for i._ZN4mbed5Timer4stopEv
    .\objects\timer.o(.ARM.exidx) refers to .\objects\timer.o(i._ZN4mbed5Timer23read_high_resolution_usEv) for i._ZN4mbed5Timer23read_high_resolution_usEv
    .\objects\timer.o(.ARM.exidx) refers to .\objects\timer.o(i._ZN4mbed5Timer7read_usEv) for i._ZN4mbed5Timer7read_usEv
    .\objects\timer.o(.ARM.exidx) refers to .\objects\timer.o(i._ZN4mbed5Timer4readEv) for i._ZN4mbed5Timer4readEv
    .\objects\timer.o(.ARM.exidx) refers to .\objects\timer.o(i._ZN4mbed5Timer7read_msEv) for i._ZN4mbed5Timer7read_msEv
    .\objects\timer.o(.ARM.exidx) refers to .\objects\timer.o(i._ZN4mbed5TimercvfEv) for i._ZN4mbed5TimercvfEv
    .\objects\timerevent.o(i._ZN4mbed10TimerEvent15insert_absoluteEy) refers to .\objects\mbed_ticker_api.o(i.ticker_insert_event_us) for ticker_insert_event_us
    .\objects\timerevent.o(i._ZN4mbed10TimerEvent6insertEj) refers to .\objects\mbed_ticker_api.o(i.ticker_insert_event) for ticker_insert_event
    .\objects\timerevent.o(i._ZN4mbed10TimerEvent6removeEv) refers to .\objects\mbed_ticker_api.o(i.ticker_remove_event) for ticker_remove_event
    .\objects\timerevent.o(i._ZN4mbed10TimerEventC2EPK13ticker_data_t) refers to .\objects\mbed_ticker_api.o(i.ticker_set_handler) for ticker_set_handler
    .\objects\timerevent.o(i._ZN4mbed10TimerEventC2EPK13ticker_data_t) refers to .\objects\timerevent.o(.constdata__ZTVN4mbed10TimerEventE) for vtable for mbed::TimerEvent
    .\objects\timerevent.o(i._ZN4mbed10TimerEventC2EPK13ticker_data_t) refers to .\objects\timerevent.o(i._ZN4mbed10TimerEvent3irqEj) for mbed::TimerEvent::irq(unsigned)
    .\objects\timerevent.o(i._ZN4mbed10TimerEventC2Ev) refers to .\objects\mbed_us_ticker_api.o(i.get_us_ticker_data) for get_us_ticker_data
    .\objects\timerevent.o(i._ZN4mbed10TimerEventC2Ev) refers to .\objects\mbed_ticker_api.o(i.ticker_set_handler) for ticker_set_handler
    .\objects\timerevent.o(i._ZN4mbed10TimerEventC2Ev) refers to .\objects\timerevent.o(.constdata__ZTVN4mbed10TimerEventE) for vtable for mbed::TimerEvent
    .\objects\timerevent.o(i._ZN4mbed10TimerEventC2Ev) refers to .\objects\timerevent.o(i._ZN4mbed10TimerEvent3irqEj) for mbed::TimerEvent::irq(unsigned)
    .\objects\timerevent.o(i._ZN4mbed10TimerEventD0Ev) refers to .\objects\timerevent.o(i._ZN4mbed10TimerEventD2Ev) for mbed::TimerEvent::~TimerEvent__sub_object()
    .\objects\timerevent.o(i._ZN4mbed10TimerEventD0Ev) refers to .\objects\mbed_retarget.o(i._ZdlPv) for operator delete (void*)
    .\objects\timerevent.o(i._ZN4mbed10TimerEventD2Ev) refers to .\objects\timerevent.o(i._ZN4mbed10TimerEvent6removeEv) for mbed::TimerEvent::remove()
    .\objects\timerevent.o(i._ZN4mbed10TimerEventD2Ev) refers to .\objects\timerevent.o(.constdata__ZTVN4mbed10TimerEventE) for vtable for mbed::TimerEvent
    .\objects\timerevent.o(.ARM.exidx) refers to .\objects\timerevent.o(i._ZN4mbed10TimerEvent3irqEj) for i._ZN4mbed10TimerEvent3irqEj
    .\objects\timerevent.o(.ARM.exidx) refers to .\objects\timerevent.o(i._ZN4mbed10TimerEventC2Ev) for i._ZN4mbed10TimerEventC2Ev
    .\objects\timerevent.o(.ARM.exidx) refers to .\objects\timerevent.o(i._ZN4mbed10TimerEventC2EPK13ticker_data_t) for i._ZN4mbed10TimerEventC2EPK13ticker_data_t
    .\objects\timerevent.o(.ARM.exidx) refers to .\objects\timerevent.o(i._ZN4mbed10TimerEvent6removeEv) for i._ZN4mbed10TimerEvent6removeEv
    .\objects\timerevent.o(.ARM.exidx) refers to .\objects\timerevent.o(i._ZN4mbed10TimerEventD2Ev) for i._ZN4mbed10TimerEventD2Ev
    .\objects\timerevent.o(.ARM.exidx) refers to .\objects\timerevent.o(i._ZN4mbed10TimerEventD0Ev) for i._ZN4mbed10TimerEventD0Ev
    .\objects\timerevent.o(.ARM.exidx) refers to .\objects\timerevent.o(i._ZN4mbed10TimerEvent6insertEj) for i._ZN4mbed10TimerEvent6insertEj
    .\objects\timerevent.o(.ARM.exidx) refers to .\objects\timerevent.o(i._ZN4mbed10TimerEvent15insert_absoluteEy) for i._ZN4mbed10TimerEvent15insert_absoluteEy
    .\objects\uartserial.o(i._ZN4mbed10UARTSerial10api_unlockEv) refers to .\objects\mutex.o(i._ZN4rtos5Mutex6unlockEv) for rtos::Mutex::unlock()
    .\objects\uartserial.o(i._ZN4mbed10UARTSerial10set_formatEiNS_10SerialBase6ParityEi) refers to .\objects\serialbase.o(i._ZN4mbed10SerialBase6formatEiNS0_6ParityEi) for mbed::SerialBase::format(int, mbed::SerialBase::Parity, int)
    .\objects\uartserial.o(i._ZN4mbed10UARTSerial16set_flow_controlENS_10SerialBase4FlowE7PinNameS3_) refers to .\objects\serialbase.o(i._ZN4mbed10SerialBase16set_flow_controlENS0_4FlowE7PinNameS2_) for mbed::SerialBase::set_flow_control(mbed::SerialBase::Flow, PinName, PinName)
    .\objects\uartserial.o(i._ZN4mbed10UARTSerial23set_data_carrier_detectE7PinNameb) refers to .\objects\mbed_retarget.o(i._Znwj) for operator new(unsigned)
    .\objects\uartserial.o(i._ZN4mbed10UARTSerial23set_data_carrier_detectE7PinNameb) refers to .\objects\interruptin.o(i._ZN4mbed11InterruptInC1E7PinName) for mbed::InterruptIn::InterruptIn(PinName)
    .\objects\uartserial.o(i._ZN4mbed10UARTSerial23set_data_carrier_detectE7PinNameb) refers to .\objects\uartserial.o(t._ZN4mbed8callbackINS_10UARTSerialES1_vEENS_8CallbackIFT1_vEEEPT0_MT_FS3_vE) for mbed::Callback<T3()> mbed::callback<mbed::UARTSerial, mbed::UARTSerial, void>(T2*, T3(T1::*)())
    .\objects\uartserial.o(i._ZN4mbed10UARTSerial23set_data_carrier_detectE7PinNameb) refers to .\objects\interruptin.o(i._ZN4mbed11InterruptIn4fallENS_8CallbackIFvvEEE) for mbed::InterruptIn::fall(mbed::Callback<void()>)
    .\objects\uartserial.o(i._ZN4mbed10UARTSerial23set_data_carrier_detectE7PinNameb) refers to .\objects\can.o(t._ZN4mbed8CallbackIFvvEED1Ev) for mbed::Callback<void()>::~Callback()
    .\objects\uartserial.o(i._ZN4mbed10UARTSerial23set_data_carrier_detectE7PinNameb) refers to .\objects\interruptin.o(i._ZN4mbed11InterruptIn4riseENS_8CallbackIFvvEEE) for mbed::InterruptIn::rise(mbed::Callback<void()>)
    .\objects\uartserial.o(i._ZN4mbed10UARTSerial23set_data_carrier_detectE7PinNameb) refers to .\objects\uartserial.o(.constdata) for <Data1>
    .\objects\uartserial.o(i._ZN4mbed10UARTSerial4readEPvj) refers to .\objects\uartserial.o(i._ZN4mbed10UARTSerial7wait_msEj) for mbed::UARTSerial::wait_ms(unsigned)
    .\objects\uartserial.o(i._ZN4mbed10UARTSerial4readEPvj) refers to .\objects\uartserial.o(t._ZNK4mbed14CircularBufferIcLj256EjE5emptyEv) for mbed::CircularBuffer<char, (unsigned)256, unsigned>::empty() const
    .\objects\uartserial.o(i._ZN4mbed10UARTSerial4readEPvj) refers to .\objects\uartserial.o(t._ZN4mbed14CircularBufferIcLj256EjE3popERc) for mbed::CircularBuffer<char, (unsigned)256, unsigned>::pop(char&)
    .\objects\uartserial.o(i._ZN4mbed10UARTSerial4readEPvj) refers to .\objects\mbed_critical.o(i.core_util_critical_section_enter) for core_util_critical_section_enter
    .\objects\uartserial.o(i._ZN4mbed10UARTSerial4readEPvj) refers to .\objects\uartserial.o(i._ZN4mbed10UARTSerial6rx_irqEv) for mbed::UARTSerial::rx_irq()
    .\objects\uartserial.o(i._ZN4mbed10UARTSerial4readEPvj) refers to .\objects\uartserial.o(t._ZNK4mbed14CircularBufferIcLj256EjE4fullEv) for mbed::CircularBuffer<char, (unsigned)256, unsigned>::full() const
    .\objects\uartserial.o(i._ZN4mbed10UARTSerial4readEPvj) refers to .\objects\uartserial.o(t._ZN4mbed8callbackINS_10UARTSerialES1_vEENS_8CallbackIFT1_vEEEPT0_MT_FS3_vE) for mbed::Callback<T3()> mbed::callback<mbed::UARTSerial, mbed::UARTSerial, void>(T2*, T3(T1::*)())
    .\objects\uartserial.o(i._ZN4mbed10UARTSerial4readEPvj) refers to .\objects\serialbase.o(i._ZN4mbed10SerialBase6attachENS_8CallbackIFvvEEENS0_7IrqTypeE) for mbed::SerialBase::attach(mbed::Callback<void()>, mbed::SerialBase::IrqType)
    .\objects\uartserial.o(i._ZN4mbed10UARTSerial4readEPvj) refers to .\objects\can.o(t._ZN4mbed8CallbackIFvvEED1Ev) for mbed::Callback<void()>::~Callback()
    .\objects\uartserial.o(i._ZN4mbed10UARTSerial4readEPvj) refers to .\objects\mbed_critical.o(i.core_util_critical_section_exit) for core_util_critical_section_exit
    .\objects\uartserial.o(i._ZN4mbed10UARTSerial4readEPvj) refers to .\objects\uartserial.o(.constdata) for <Data3>
    .\objects\uartserial.o(i._ZN4mbed10UARTSerial4syncEv) refers to .\objects\uartserial.o(i._ZN4mbed10UARTSerial7wait_msEj) for mbed::UARTSerial::wait_ms(unsigned)
    .\objects\uartserial.o(i._ZN4mbed10UARTSerial4syncEv) refers to .\objects\uartserial.o(t._ZNK4mbed14CircularBufferIcLj256EjE5emptyEv) for mbed::CircularBuffer<char, (unsigned)256, unsigned>::empty() const
    .\objects\uartserial.o(i._ZN4mbed10UARTSerial4wakeEv) refers to .\objects\can.o(t._ZNK4mbed8CallbackIFvvEEcvbEv) for mbed::Callback<void()>::operator bool() const
    .\objects\uartserial.o(i._ZN4mbed10UARTSerial4wakeEv) refers to .\objects\interruptin.o(t._ZNK4mbed8CallbackIFvvEEclEv) for mbed::Callback<void()>::operator ()() const
    .\objects\uartserial.o(i._ZN4mbed10UARTSerial5sigioENS_8CallbackIFvvEEE) refers to .\objects\mbed_critical.o(i.core_util_critical_section_enter) for core_util_critical_section_enter
    .\objects\uartserial.o(i._ZN4mbed10UARTSerial5sigioENS_8CallbackIFvvEEE) refers to .\objects\can.o(t._ZN4mbed8CallbackIFvvEED1Ev) for mbed::Callback<void()>::~Callback()
    .\objects\uartserial.o(i._ZN4mbed10UARTSerial5sigioENS_8CallbackIFvvEEE) refers to .\objects\can.o(t._ZNK4mbed8CallbackIFvvEEcvbEv) for mbed::Callback<void()>::operator bool() const
    .\objects\uartserial.o(i._ZN4mbed10UARTSerial5sigioENS_8CallbackIFvvEEE) refers to .\objects\interruptin.o(t._ZNK4mbed8CallbackIFvvEEclEv) for mbed::Callback<void()>::operator ()() const
    .\objects\uartserial.o(i._ZN4mbed10UARTSerial5sigioENS_8CallbackIFvvEEE) refers to .\objects\mbed_critical.o(i.core_util_critical_section_exit) for core_util_critical_section_exit
    .\objects\uartserial.o(i._ZN4mbed10UARTSerial5writeEPKvj) refers to .\objects\uartserial.o(t._ZNK4mbed14CircularBufferIcLj256EjE4fullEv) for mbed::CircularBuffer<char, (unsigned)256, unsigned>::full() const
    .\objects\uartserial.o(i._ZN4mbed10UARTSerial5writeEPKvj) refers to .\objects\uartserial.o(i._ZN4mbed10UARTSerial7wait_msEj) for mbed::UARTSerial::wait_ms(unsigned)
    .\objects\uartserial.o(i._ZN4mbed10UARTSerial5writeEPKvj) refers to .\objects\uartserial.o(t._ZN4mbed14CircularBufferIcLj256EjE4pushERKc) for mbed::CircularBuffer<char, (unsigned)256, unsigned>::push(const char&)
    .\objects\uartserial.o(i._ZN4mbed10UARTSerial5writeEPKvj) refers to .\objects\mbed_critical.o(i.core_util_critical_section_enter) for core_util_critical_section_enter
    .\objects\uartserial.o(i._ZN4mbed10UARTSerial5writeEPKvj) refers to .\objects\uartserial.o(i._ZN4mbed10UARTSerial6tx_irqEv) for mbed::UARTSerial::tx_irq()
    .\objects\uartserial.o(i._ZN4mbed10UARTSerial5writeEPKvj) refers to .\objects\uartserial.o(t._ZNK4mbed14CircularBufferIcLj256EjE5emptyEv) for mbed::CircularBuffer<char, (unsigned)256, unsigned>::empty() const
    .\objects\uartserial.o(i._ZN4mbed10UARTSerial5writeEPKvj) refers to .\objects\uartserial.o(t._ZN4mbed8callbackINS_10UARTSerialES1_vEENS_8CallbackIFT1_vEEEPT0_MT_FS3_vE) for mbed::Callback<T3()> mbed::callback<mbed::UARTSerial, mbed::UARTSerial, void>(T2*, T3(T1::*)())
    .\objects\uartserial.o(i._ZN4mbed10UARTSerial5writeEPKvj) refers to .\objects\serialbase.o(i._ZN4mbed10SerialBase6attachENS_8CallbackIFvvEEENS0_7IrqTypeE) for mbed::SerialBase::attach(mbed::Callback<void()>, mbed::SerialBase::IrqType)
    .\objects\uartserial.o(i._ZN4mbed10UARTSerial5writeEPKvj) refers to .\objects\can.o(t._ZN4mbed8CallbackIFvvEED1Ev) for mbed::Callback<void()>::~Callback()
    .\objects\uartserial.o(i._ZN4mbed10UARTSerial5writeEPKvj) refers to .\objects\mbed_critical.o(i.core_util_critical_section_exit) for core_util_critical_section_exit
    .\objects\uartserial.o(i._ZN4mbed10UARTSerial5writeEPKvj) refers to .\objects\uartserial.o(.constdata) for <Data2>
    .\objects\uartserial.o(i._ZN4mbed10UARTSerial6rx_irqEv) refers to .\objects\uartserial.o(t._ZNK4mbed14CircularBufferIcLj256EjE5emptyEv) for mbed::CircularBuffer<char, (unsigned)256, unsigned>::empty() const
    .\objects\uartserial.o(i._ZN4mbed10UARTSerial6rx_irqEv) refers to .\objects\serialbase.o(i._ZN4mbed10SerialBase10_base_getcEv) for mbed::SerialBase::_base_getc()
    .\objects\uartserial.o(i._ZN4mbed10UARTSerial6rx_irqEv) refers to .\objects\uartserial.o(t._ZN4mbed14CircularBufferIcLj256EjE4pushERKc) for mbed::CircularBuffer<char, (unsigned)256, unsigned>::push(const char&)
    .\objects\uartserial.o(i._ZN4mbed10UARTSerial6rx_irqEv) refers to .\objects\uartserial.o(t._ZNK4mbed14CircularBufferIcLj256EjE4fullEv) for mbed::CircularBuffer<char, (unsigned)256, unsigned>::full() const
    .\objects\uartserial.o(i._ZN4mbed10UARTSerial6rx_irqEv) refers to .\objects\serialbase.o(i._ZN4mbed10SerialBase8readableEv) for mbed::SerialBase::readable()
    .\objects\uartserial.o(i._ZN4mbed10UARTSerial6rx_irqEv) refers to .\objects\can.o(t._ZN4mbed8CallbackIFvvEEC1EPS1_) for mbed::Callback<void()>::Callback(void(*)())
    .\objects\uartserial.o(i._ZN4mbed10UARTSerial6rx_irqEv) refers to .\objects\serialbase.o(i._ZN4mbed10SerialBase6attachENS_8CallbackIFvvEEENS0_7IrqTypeE) for mbed::SerialBase::attach(mbed::Callback<void()>, mbed::SerialBase::IrqType)
    .\objects\uartserial.o(i._ZN4mbed10UARTSerial6rx_irqEv) refers to .\objects\can.o(t._ZN4mbed8CallbackIFvvEED1Ev) for mbed::Callback<void()>::~Callback()
    .\objects\uartserial.o(i._ZN4mbed10UARTSerial6rx_irqEv) refers to .\objects\uartserial.o(i._ZN4mbed10UARTSerial4wakeEv) for mbed::UARTSerial::wake()
    .\objects\uartserial.o(i._ZN4mbed10UARTSerial6tx_irqEv) refers to .\objects\uartserial.o(t._ZNK4mbed14CircularBufferIcLj256EjE4fullEv) for mbed::CircularBuffer<char, (unsigned)256, unsigned>::full() const
    .\objects\uartserial.o(i._ZN4mbed10UARTSerial6tx_irqEv) refers to .\objects\serialbase.o(i._ZN4mbed10SerialBase10_base_putcEi) for mbed::SerialBase::_base_putc(int)
    .\objects\uartserial.o(i._ZN4mbed10UARTSerial6tx_irqEv) refers to .\objects\serialbase.o(i._ZN4mbed10SerialBase9writeableEv) for mbed::SerialBase::writeable()
    .\objects\uartserial.o(i._ZN4mbed10UARTSerial6tx_irqEv) refers to .\objects\uartserial.o(t._ZN4mbed14CircularBufferIcLj256EjE3popERc) for mbed::CircularBuffer<char, (unsigned)256, unsigned>::pop(char&)
    .\objects\uartserial.o(i._ZN4mbed10UARTSerial6tx_irqEv) refers to .\objects\uartserial.o(t._ZNK4mbed14CircularBufferIcLj256EjE5emptyEv) for mbed::CircularBuffer<char, (unsigned)256, unsigned>::empty() const
    .\objects\uartserial.o(i._ZN4mbed10UARTSerial6tx_irqEv) refers to .\objects\can.o(t._ZN4mbed8CallbackIFvvEEC1EPS1_) for mbed::Callback<void()>::Callback(void(*)())
    .\objects\uartserial.o(i._ZN4mbed10UARTSerial6tx_irqEv) refers to .\objects\serialbase.o(i._ZN4mbed10SerialBase6attachENS_8CallbackIFvvEEENS0_7IrqTypeE) for mbed::SerialBase::attach(mbed::Callback<void()>, mbed::SerialBase::IrqType)
    .\objects\uartserial.o(i._ZN4mbed10UARTSerial6tx_irqEv) refers to .\objects\can.o(t._ZN4mbed8CallbackIFvvEED1Ev) for mbed::Callback<void()>::~Callback()
    .\objects\uartserial.o(i._ZN4mbed10UARTSerial6tx_irqEv) refers to .\objects\uartserial.o(i._ZNK4mbed10UARTSerial3hupEv) for mbed::UARTSerial::hup() const
    .\objects\uartserial.o(i._ZN4mbed10UARTSerial6tx_irqEv) refers to .\objects\uartserial.o(i._ZN4mbed10UARTSerial4wakeEv) for mbed::UARTSerial::wake()
    .\objects\uartserial.o(i._ZN4mbed10UARTSerial7dcd_irqEv) refers to .\objects\uartserial.o(i._ZN4mbed10UARTSerial4wakeEv) for mbed::UARTSerial::wake()
    .\objects\uartserial.o(i._ZN4mbed10UARTSerial7wait_msEj) refers to .\objects\thisthread.o(i._ZN4rtos10ThisThread9sleep_forEj) for rtos::ThisThread::sleep_for(unsigned)
    .\objects\uartserial.o(i._ZN4mbed10UARTSerial8api_lockEv) refers to .\objects\mutex.o(i._ZN4rtos5Mutex4lockEv) for rtos::Mutex::lock()
    .\objects\uartserial.o(i._ZN4mbed10UARTSerial8set_baudEi) refers to .\objects\serialbase.o(i._ZN4mbed10SerialBase4baudEi) for mbed::SerialBase::baud(int)
    .\objects\uartserial.o(i._ZN4mbed10UARTSerialC1E7PinNameS1_i) refers to .\objects\serialbase.o(i._ZN4mbed10SerialBaseC1E7PinNameS1_i) for mbed::SerialBase::SerialBase(PinName, PinName, int)
    .\objects\uartserial.o(i._ZN4mbed10UARTSerialC1E7PinNameS1_i) refers to .\objects\uartserial.o(t._ZN4mbed14CircularBufferIcLj256EjEC1Ev) for mbed::CircularBuffer<char, (unsigned)256, unsigned>::CircularBuffer()
    .\objects\uartserial.o(i._ZN4mbed10UARTSerialC1E7PinNameS1_i) refers to .\objects\mutex.o(i._ZN4rtos5MutexC1Ev) for rtos::Mutex::Mutex()
    .\objects\uartserial.o(i._ZN4mbed10UARTSerialC1E7PinNameS1_i) refers to .\objects\can.o(t._ZN4mbed8CallbackIFvvEEC1EPS1_) for mbed::Callback<void()>::Callback(void(*)())
    .\objects\uartserial.o(i._ZN4mbed10UARTSerialC1E7PinNameS1_i) refers to .\objects\uartserial.o(t._ZN4mbed8callbackINS_10UARTSerialES1_vEENS_8CallbackIFT1_vEEEPT0_MT_FS3_vE) for mbed::Callback<T3()> mbed::callback<mbed::UARTSerial, mbed::UARTSerial, void>(T2*, T3(T1::*)())
    .\objects\uartserial.o(i._ZN4mbed10UARTSerialC1E7PinNameS1_i) refers to .\objects\serialbase.o(i._ZN4mbed10SerialBase6attachENS_8CallbackIFvvEEENS0_7IrqTypeE) for mbed::SerialBase::attach(mbed::Callback<void()>, mbed::SerialBase::IrqType)
    .\objects\uartserial.o(i._ZN4mbed10UARTSerialC1E7PinNameS1_i) refers to .\objects\can.o(t._ZN4mbed8CallbackIFvvEED1Ev) for mbed::Callback<void()>::~Callback()
    .\objects\uartserial.o(i._ZN4mbed10UARTSerialC1E7PinNameS1_i) refers to .\objects\filehandle.o(.constdata__ZTVN4mbed10FileHandleE) for vtable for mbed::FileHandle
    .\objects\uartserial.o(i._ZN4mbed10UARTSerialC1E7PinNameS1_i) refers to .\objects\uartserial.o(.constdata__ZTVN4mbed10UARTSerialE) for vtable for mbed::UARTSerial
    .\objects\uartserial.o(i._ZN4mbed10UARTSerialC1E7PinNameS1_i) refers to .\objects\uartserial.o(.constdata) for <Data3>
    .\objects\uartserial.o(i._ZN4mbed10UARTSerialD0Ev) refers to .\objects\uartserial.o(i._ZN4mbed10UARTSerialD1Ev) for mbed::UARTSerial::~UARTSerial()
    .\objects\uartserial.o(i._ZN4mbed10UARTSerialD0Ev) refers to .\objects\mbed_retarget.o(i._ZdlPv) for operator delete (void*)
    .\objects\uartserial.o(i._ZN4mbed10UARTSerialD1Ev) refers to .\objects\can.o(t._ZN4mbed8CallbackIFvvEED1Ev) for mbed::Callback<void()>::~Callback()
    .\objects\uartserial.o(i._ZN4mbed10UARTSerialD1Ev) refers to .\objects\mutex.o(i._ZN4rtos5MutexD1Ev) for rtos::Mutex::~Mutex()
    .\objects\uartserial.o(i._ZN4mbed10UARTSerialD1Ev) refers to .\objects\serialbase.o(i._ZN4mbed10SerialBaseD1Ev) for mbed::SerialBase::~SerialBase()
    .\objects\uartserial.o(i._ZN4mbed10UARTSerialD1Ev) refers to .\objects\uartserial.o(.constdata__ZTVN4mbed10UARTSerialE) for vtable for mbed::UARTSerial
    .\objects\uartserial.o(i._ZNK4mbed10UARTSerial3hupEv) refers to .\objects\interruptin.o(i._ZN4mbed11InterruptIn4readEv) for mbed::InterruptIn::read()
    .\objects\uartserial.o(i._ZNK4mbed10UARTSerial4pollEs) refers to .\objects\uartserial.o(t._ZNK4mbed14CircularBufferIcLj256EjE5emptyEv) for mbed::CircularBuffer<char, (unsigned)256, unsigned>::empty() const
    .\objects\uartserial.o(i._ZNK4mbed10UARTSerial4pollEs) refers to .\objects\uartserial.o(i._ZNK4mbed10UARTSerial3hupEv) for mbed::UARTSerial::hup() const
    .\objects\uartserial.o(i._ZNK4mbed10UARTSerial4pollEs) refers to .\objects\uartserial.o(t._ZNK4mbed14CircularBufferIcLj256EjE4fullEv) for mbed::CircularBuffer<char, (unsigned)256, unsigned>::full() const
    .\objects\uartserial.o(i._ZThn188_N4mbed10UARTSerial4readEPvj) refers to .\objects\uartserial.o(i._ZN4mbed10UARTSerial4readEPvj) for mbed::UARTSerial::read(void*, unsigned)
    .\objects\uartserial.o(i._ZThn188_N4mbed10UARTSerial4seekEli) refers to .\objects\uartserial.o(i._ZN4mbed10UARTSerial4seekEli) for mbed::UARTSerial::seek(long, int)
    .\objects\uartserial.o(i._ZThn188_N4mbed10UARTSerial4syncEv) refers to .\objects\uartserial.o(i._ZN4mbed10UARTSerial4syncEv) for mbed::UARTSerial::sync()
    .\objects\uartserial.o(i._ZThn188_N4mbed10UARTSerial5closeEv) refers to .\objects\uartserial.o(i._ZN4mbed10UARTSerial5closeEv) for mbed::UARTSerial::close()
    .\objects\uartserial.o(i._ZThn188_N4mbed10UARTSerial5sigioENS_8CallbackIFvvEEE) refers to .\objects\uartserial.o(i._ZN4mbed10UARTSerial5sigioENS_8CallbackIFvvEEE) for mbed::UARTSerial::sigio(mbed::Callback<void()>)
    .\objects\uartserial.o(i._ZThn188_N4mbed10UARTSerial5writeEPKvj) refers to .\objects\uartserial.o(i._ZN4mbed10UARTSerial5writeEPKvj) for mbed::UARTSerial::write(const void*, unsigned)
    .\objects\uartserial.o(i._ZThn188_N4mbed10UARTSerial6isattyEv) refers to .\objects\uartserial.o(i._ZN4mbed10UARTSerial6isattyEv) for mbed::UARTSerial::isatty()
    .\objects\uartserial.o(i._ZThn188_N4mbed10UARTSerialD0Ev) refers to .\objects\uartserial.o(i._ZN4mbed10UARTSerialD0Ev) for mbed::UARTSerial::~UARTSerial__deallocating()
    .\objects\uartserial.o(i._ZThn188_N4mbed10UARTSerialD1Ev) refers to .\objects\uartserial.o(i._ZN4mbed10UARTSerialD1Ev) for mbed::UARTSerial::~UARTSerial()
    .\objects\uartserial.o(i._ZThn188_NK4mbed10UARTSerial4pollEs) refers to .\objects\uartserial.o(i._ZNK4mbed10UARTSerial4pollEs) for mbed::UARTSerial::poll(short) const
    .\objects\uartserial.o(.ARM.exidx) refers to .\objects\uartserial.o(i._ZN4mbed10UARTSerialC1E7PinNameS1_i) for i._ZN4mbed10UARTSerialC1E7PinNameS1_i
    .\objects\uartserial.o(.ARM.exidx) refers to .\objects\uartserial.o(i._ZN4mbed10UARTSerialD1Ev) for i._ZN4mbed10UARTSerialD1Ev
    .\objects\uartserial.o(.ARM.exidx) refers to .\objects\uartserial.o(i._ZN4mbed10UARTSerialD0Ev) for i._ZN4mbed10UARTSerialD0Ev
    .\objects\uartserial.o(.ARM.exidx) refers to .\objects\uartserial.o(i._ZThn188_N4mbed10UARTSerialD0Ev) for i._ZThn188_N4mbed10UARTSerialD0Ev
    .\objects\uartserial.o(.ARM.exidx) refers to .\objects\uartserial.o(i._ZThn188_N4mbed10UARTSerialD1Ev) for i._ZThn188_N4mbed10UARTSerialD1Ev
    .\objects\uartserial.o(.ARM.exidx) refers to .\objects\uartserial.o(i._ZNK4mbed10UARTSerial3hupEv) for i._ZNK4mbed10UARTSerial3hupEv
    .\objects\uartserial.o(.ARM.exidx) refers to .\objects\uartserial.o(i._ZNK4mbed10UARTSerial4pollEs) for i._ZNK4mbed10UARTSerial4pollEs
    .\objects\uartserial.o(.ARM.exidx) refers to .\objects\uartserial.o(i._ZThn188_NK4mbed10UARTSerial4pollEs) for i._ZThn188_NK4mbed10UARTSerial4pollEs
    .\objects\uartserial.o(.ARM.exidx) refers to .\objects\uartserial.o(i._ZN4mbed10UARTSerial4wakeEv) for i._ZN4mbed10UARTSerial4wakeEv
    .\objects\uartserial.o(.ARM.exidx) refers to .\objects\uartserial.o(i._ZN4mbed10UARTSerial6tx_irqEv) for i._ZN4mbed10UARTSerial6tx_irqEv
    .\objects\uartserial.o(.ARM.exidx) refers to .\objects\uartserial.o(i._ZN4mbed10UARTSerial7wait_msEj) for i._ZN4mbed10UARTSerial7wait_msEj
    .\objects\uartserial.o(.ARM.exidx) refers to .\objects\uartserial.o(i._ZN4mbed10UARTSerial5writeEPKvj) for i._ZN4mbed10UARTSerial5writeEPKvj
    .\objects\uartserial.o(.ARM.exidx) refers to .\objects\uartserial.o(i._ZThn188_N4mbed10UARTSerial5writeEPKvj) for i._ZThn188_N4mbed10UARTSerial5writeEPKvj
    .\objects\uartserial.o(.ARM.exidx) refers to .\objects\uartserial.o(i._ZN4mbed10UARTSerial6rx_irqEv) for i._ZN4mbed10UARTSerial6rx_irqEv
    .\objects\uartserial.o(.ARM.exidx) refers to .\objects\uartserial.o(i._ZN4mbed10UARTSerial4readEPvj) for i._ZN4mbed10UARTSerial4readEPvj
    .\objects\uartserial.o(.ARM.exidx) refers to .\objects\uartserial.o(i._ZThn188_N4mbed10UARTSerial4readEPvj) for i._ZThn188_N4mbed10UARTSerial4readEPvj
    .\objects\uartserial.o(.ARM.exidx) refers to .\objects\uartserial.o(i._ZN4mbed10UARTSerial5closeEv) for i._ZN4mbed10UARTSerial5closeEv
    .\objects\uartserial.o(.ARM.exidx) refers to .\objects\uartserial.o(i._ZThn188_N4mbed10UARTSerial5closeEv) for i._ZThn188_N4mbed10UARTSerial5closeEv
    .\objects\uartserial.o(.ARM.exidx) refers to .\objects\uartserial.o(i._ZN4mbed10UARTSerial6isattyEv) for i._ZN4mbed10UARTSerial6isattyEv
    .\objects\uartserial.o(.ARM.exidx) refers to .\objects\uartserial.o(i._ZThn188_N4mbed10UARTSerial6isattyEv) for i._ZThn188_N4mbed10UARTSerial6isattyEv
    .\objects\uartserial.o(.ARM.exidx) refers to .\objects\uartserial.o(i._ZN4mbed10UARTSerial4seekEli) for i._ZN4mbed10UARTSerial4seekEli
    .\objects\uartserial.o(.ARM.exidx) refers to .\objects\uartserial.o(i._ZThn188_N4mbed10UARTSerial4seekEli) for i._ZThn188_N4mbed10UARTSerial4seekEli
    .\objects\uartserial.o(.ARM.exidx) refers to .\objects\uartserial.o(i._ZN4mbed10UARTSerial4syncEv) for i._ZN4mbed10UARTSerial4syncEv
    .\objects\uartserial.o(.ARM.exidx) refers to .\objects\uartserial.o(i._ZThn188_N4mbed10UARTSerial4syncEv) for i._ZThn188_N4mbed10UARTSerial4syncEv
    .\objects\uartserial.o(.ARM.exidx) refers to .\objects\uartserial.o(i._ZN4mbed10UARTSerial5sigioENS_8CallbackIFvvEEE) for i._ZN4mbed10UARTSerial5sigioENS_8CallbackIFvvEEE
    .\objects\uartserial.o(.ARM.exidx) refers to .\objects\uartserial.o(i._ZThn188_N4mbed10UARTSerial5sigioENS_8CallbackIFvvEEE) for i._ZThn188_N4mbed10UARTSerial5sigioENS_8CallbackIFvvEEE
    .\objects\uartserial.o(.ARM.exidx) refers to .\objects\uartserial.o(i._ZN4mbed10UARTSerial23set_data_carrier_detectE7PinNameb) for i._ZN4mbed10UARTSerial23set_data_carrier_detectE7PinNameb
    .\objects\uartserial.o(.ARM.exidx) refers to .\objects\uartserial.o(i._ZN4mbed10UARTSerial8set_baudEi) for i._ZN4mbed10UARTSerial8set_baudEi
    .\objects\uartserial.o(.ARM.exidx) refers to .\objects\uartserial.o(i._ZN4mbed10UARTSerial10set_formatEiNS_10SerialBase6ParityEi) for i._ZN4mbed10UARTSerial10set_formatEiNS_10SerialBase6ParityEi
    .\objects\uartserial.o(.ARM.exidx) refers to .\objects\uartserial.o(i._ZN4mbed10UARTSerial16set_flow_controlENS_10SerialBase4FlowE7PinNameS3_) for i._ZN4mbed10UARTSerial16set_flow_controlENS_10SerialBase4FlowE7PinNameS3_
    .\objects\uartserial.o(.ARM.exidx) refers to .\objects\uartserial.o(i._ZN4mbed10UARTSerial4lockEv) for i._ZN4mbed10UARTSerial4lockEv
    .\objects\uartserial.o(.ARM.exidx) refers to .\objects\uartserial.o(i._ZN4mbed10UARTSerial6unlockEv) for i._ZN4mbed10UARTSerial6unlockEv
    .\objects\uartserial.o(.ARM.exidx) refers to .\objects\uartserial.o(i._ZN4mbed10UARTSerial8api_lockEv) for i._ZN4mbed10UARTSerial8api_lockEv
    .\objects\uartserial.o(.ARM.exidx) refers to .\objects\uartserial.o(i._ZN4mbed10UARTSerial10api_unlockEv) for i._ZN4mbed10UARTSerial10api_unlockEv
    .\objects\uartserial.o(.ARM.exidx) refers to .\objects\uartserial.o(i._ZN4mbed10UARTSerial7dcd_irqEv) for i._ZN4mbed10UARTSerial7dcd_irqEv
    .\objects\uartserial.o(.constdata) refers to .\objects\uartserial.o(i._ZN4mbed10UARTSerial7dcd_irqEv) for mbed::UARTSerial::dcd_irq()
    .\objects\uartserial.o(.constdata) refers to .\objects\uartserial.o(i._ZN4mbed10UARTSerial6tx_irqEv) for mbed::UARTSerial::tx_irq()
    .\objects\uartserial.o(.constdata) refers to .\objects\uartserial.o(i._ZN4mbed10UARTSerial6rx_irqEv) for mbed::UARTSerial::rx_irq()
    .\objects\eventqueue.o(i._ZN6events10EventQueue10backgroundEN4mbed8CallbackIFviEEE) refers to .\objects\i2c.o(t._ZN4mbed8CallbackIFviEED1Ev) for mbed::Callback<void(int)>::~Callback()
    .\objects\eventqueue.o(i._ZN6events10EventQueue10backgroundEN4mbed8CallbackIFviEEE) refers to .\objects\equeue.o(i.equeue_background) for equeue_background
    .\objects\eventqueue.o(i._ZN6events10EventQueue10backgroundEN4mbed8CallbackIFviEEE) refers to .\objects\eventqueue.o(t._ZN4mbed8CallbackIFviEE5thunkEPvi) for mbed::Callback<void(int)>::thunk(void*, int)
    .\objects\eventqueue.o(i._ZN6events10EventQueue14break_dispatchEv) refers to .\objects\equeue.o(i.equeue_break) for equeue_break
    .\objects\eventqueue.o(i._ZN6events10EventQueue4tickEv) refers to .\objects\equeue_mbed.o(i.equeue_tick) for equeue_tick
    .\objects\eventqueue.o(i._ZN6events10EventQueue5chainEPS0_) refers to .\objects\equeue.o(i.equeue_chain) for equeue_chain
    .\objects\eventqueue.o(i._ZN6events10EventQueue6cancelEi) refers to .\objects\equeue.o(i.equeue_cancel) for equeue_cancel
    .\objects\eventqueue.o(i._ZN6events10EventQueue8dispatchEi) refers to .\objects\equeue.o(i.equeue_dispatch) for equeue_dispatch
    .\objects\eventqueue.o(i._ZN6events10EventQueue9time_leftEi) refers to .\objects\equeue.o(i.equeue_timeleft) for equeue_timeleft
    .\objects\eventqueue.o(i._ZN6events10EventQueueC1EjPh) refers to .\objects\equeue.o(i.equeue_create) for equeue_create
    .\objects\eventqueue.o(i._ZN6events10EventQueueC1EjPh) refers to .\objects\equeue.o(i.equeue_create_inplace) for equeue_create_inplace
    .\objects\eventqueue.o(i._ZN6events10EventQueueC1EjPh) refers to .\objects\i2c.o(.constdata__ZZN4mbed8CallbackIFviEE8generateIPS1_EEvRKT_E3ops) for void mbed::Callback<void(int)>::generate<void(*)(int)>(const T1&)::ops
    .\objects\eventqueue.o(i._ZN6events10EventQueueD1Ev) refers to .\objects\equeue.o(i.equeue_destroy) for equeue_destroy
    .\objects\eventqueue.o(i._ZN6events10EventQueueD1Ev) refers to .\objects\i2c.o(t._ZN4mbed8CallbackIFviEED1Ev) for mbed::Callback<void(int)>::~Callback()
    .\objects\eventqueue.o(.ARM.exidx) refers to .\objects\eventqueue.o(i._ZN6events10EventQueueC1EjPh) for i._ZN6events10EventQueueC1EjPh
    .\objects\eventqueue.o(.ARM.exidx) refers to .\objects\eventqueue.o(i._ZN6events10EventQueueD1Ev) for i._ZN6events10EventQueueD1Ev
    .\objects\eventqueue.o(.ARM.exidx) refers to .\objects\eventqueue.o(i._ZN6events10EventQueue8dispatchEi) for i._ZN6events10EventQueue8dispatchEi
    .\objects\eventqueue.o(.ARM.exidx) refers to .\objects\eventqueue.o(i._ZN6events10EventQueue14break_dispatchEv) for i._ZN6events10EventQueue14break_dispatchEv
    .\objects\eventqueue.o(.ARM.exidx) refers to .\objects\eventqueue.o(i._ZN6events10EventQueue4tickEv) for i._ZN6events10EventQueue4tickEv
    .\objects\eventqueue.o(.ARM.exidx) refers to .\objects\eventqueue.o(i._ZN6events10EventQueue6cancelEi) for i._ZN6events10EventQueue6cancelEi
    .\objects\eventqueue.o(.ARM.exidx) refers to .\objects\eventqueue.o(i._ZN6events10EventQueue9time_leftEi) for i._ZN6events10EventQueue9time_leftEi
    .\objects\eventqueue.o(.ARM.exidx) refers to .\objects\eventqueue.o(i._ZN6events10EventQueue10backgroundEN4mbed8CallbackIFviEEE) for i._ZN6events10EventQueue10backgroundEN4mbed8CallbackIFviEEE
    .\objects\eventqueue.o(.ARM.exidx) refers to .\objects\eventqueue.o(i._ZN6events10EventQueue5chainEPS0_) for i._ZN6events10EventQueue5chainEPS0_
    .\objects\mbed_shared_queues.o(i._ZN4mbed16mbed_event_queueEv) refers to .\objects\mbed_shared_queues.o(t._ZN4mbed33do_shared_event_queue_with_threadIL12osPriority_t24ELj256ELj1024EEEPN6events10EventQueueEv) for events::EventQueue* mbed::do_shared_event_queue_with_thread<(osPriority_t)24, (unsigned)256, (unsigned)1024>()
    .\objects\mbed_shared_queues.o(i._ZN4mbed25mbed_highprio_event_queueEv) refers to .\objects\mbed_shared_queues.o(t._ZN4mbed33do_shared_event_queue_with_threadIL12osPriority_t40ELj256ELj1024EEEPN6events10EventQueueEv) for events::EventQueue* mbed::do_shared_event_queue_with_thread<(osPriority_t)40, (unsigned)256, (unsigned)1024>()
    .\objects\mbed_shared_queues.o(.ARM.exidx) refers to .\objects\mbed_shared_queues.o(i._ZN4mbed16mbed_event_queueEv) for i._ZN4mbed16mbed_event_queueEv
    .\objects\mbed_shared_queues.o(.ARM.exidx) refers to .\objects\mbed_shared_queues.o(i._ZN4mbed25mbed_highprio_event_queueEv) for i._ZN4mbed25mbed_highprio_event_queueEv
    .\objects\mbed_shared_queues.o(.constdata) refers to .\objects\mbed_shared_queues.o(i._ZN6events10EventQueue16dispatch_foreverEv) for events::EventQueue::dispatch_forever()
    .\objects\equeue_mbed.o(i.equeue_mutex_lock) refers to .\objects\mbed_critical.o(i.core_util_critical_section_enter) for core_util_critical_section_enter
    .\objects\equeue_mbed.o(i.equeue_mutex_unlock) refers to .\objects\mbed_critical.o(i.core_util_critical_section_exit) for core_util_critical_section_exit
    .\objects\equeue_mbed.o(i.equeue_sema_create) refers to .\objects\rtx_evflags.o(i.osEventFlagsNew) for osEventFlagsNew
    .\objects\equeue_mbed.o(i.equeue_sema_destroy) refers to .\objects\rtx_evflags.o(i.osEventFlagsDelete) for osEventFlagsDelete
    .\objects\equeue_mbed.o(i.equeue_sema_signal) refers to .\objects\rtx_evflags.o(i.osEventFlagsSet) for osEventFlagsSet
    .\objects\equeue_mbed.o(i.equeue_sema_wait) refers to .\objects\rtx_evflags.o(i.osEventFlagsWait) for osEventFlagsWait
    .\objects\equeue_mbed.o(i.equeue_tick) refers to .\objects\rtx_kernel.o(i.osKernelGetTickCount) for osKernelGetTickCount
    .\objects\equeue_mbed.o(.ARM.exidx) refers to .\objects\equeue_mbed.o(i.equeue_tick) for i.equeue_tick
    .\objects\equeue_mbed.o(.ARM.exidx) refers to .\objects\equeue_mbed.o(i.equeue_mutex_create) for i.equeue_mutex_create
    .\objects\equeue_mbed.o(.ARM.exidx) refers to .\objects\equeue_mbed.o(i.equeue_mutex_destroy) for i.equeue_mutex_destroy
    .\objects\equeue_mbed.o(.ARM.exidx) refers to .\objects\equeue_mbed.o(i.equeue_mutex_lock) for i.equeue_mutex_lock
    .\objects\equeue_mbed.o(.ARM.exidx) refers to .\objects\equeue_mbed.o(i.equeue_mutex_unlock) for i.equeue_mutex_unlock
    .\objects\equeue_mbed.o(.ARM.exidx) refers to .\objects\equeue_mbed.o(i.equeue_sema_create) for i.equeue_sema_create
    .\objects\equeue_mbed.o(.ARM.exidx) refers to .\objects\equeue_mbed.o(i.equeue_sema_destroy) for i.equeue_sema_destroy
    .\objects\equeue_mbed.o(.ARM.exidx) refers to .\objects\equeue_mbed.o(i.equeue_sema_signal) for i.equeue_sema_signal
    .\objects\equeue_mbed.o(.ARM.exidx) refers to .\objects\equeue_mbed.o(i.equeue_sema_wait) for i.equeue_sema_wait
    .\objects\equeue.o(i.equeue_alloc) refers to .\objects\equeue.o(i.equeue_mem_alloc) for equeue_mem_alloc
    .\objects\equeue.o(i.equeue_background) refers to .\objects\equeue_mbed.o(i.equeue_mutex_lock) for equeue_mutex_lock
    .\objects\equeue.o(i.equeue_background) refers to .\objects\equeue_mbed.o(i.equeue_tick) for equeue_tick
    .\objects\equeue.o(i.equeue_background) refers to .\objects\equeue.o(i.equeue_clampdiff) for equeue_clampdiff
    .\objects\equeue.o(i.equeue_background) refers to .\objects\equeue_mbed.o(i.equeue_mutex_unlock) for equeue_mutex_unlock
    .\objects\equeue.o(i.equeue_break) refers to .\objects\equeue_mbed.o(i.equeue_mutex_lock) for equeue_mutex_lock
    .\objects\equeue.o(i.equeue_break) refers to .\objects\equeue_mbed.o(i.equeue_mutex_unlock) for equeue_mutex_unlock
    .\objects\equeue.o(i.equeue_break) refers to .\objects\equeue_mbed.o(i.equeue_sema_signal) for equeue_sema_signal
    .\objects\equeue.o(i.equeue_call) refers to .\objects\equeue.o(i.equeue_alloc) for equeue_alloc
    .\objects\equeue.o(i.equeue_call) refers to .\objects\equeue.o(i.equeue_post) for equeue_post
    .\objects\equeue.o(i.equeue_call) refers to .\objects\equeue.o(i.ecallback_dispatch) for ecallback_dispatch
    .\objects\equeue.o(i.equeue_call_every) refers to .\objects\equeue.o(i.equeue_alloc) for equeue_alloc
    .\objects\equeue.o(i.equeue_call_every) refers to .\objects\equeue.o(i.equeue_event_delay) for equeue_event_delay
    .\objects\equeue.o(i.equeue_call_every) refers to .\objects\equeue.o(i.equeue_event_period) for equeue_event_period
    .\objects\equeue.o(i.equeue_call_every) refers to .\objects\equeue.o(i.equeue_post) for equeue_post
    .\objects\equeue.o(i.equeue_call_every) refers to .\objects\equeue.o(i.ecallback_dispatch) for ecallback_dispatch
    .\objects\equeue.o(i.equeue_call_in) refers to .\objects\equeue.o(i.equeue_alloc) for equeue_alloc
    .\objects\equeue.o(i.equeue_call_in) refers to .\objects\equeue.o(i.equeue_event_delay) for equeue_event_delay
    .\objects\equeue.o(i.equeue_call_in) refers to .\objects\equeue.o(i.equeue_post) for equeue_post
    .\objects\equeue.o(i.equeue_call_in) refers to .\objects\equeue.o(i.ecallback_dispatch) for ecallback_dispatch
    .\objects\equeue.o(i.equeue_cancel) refers to .\objects\equeue.o(i.equeue_unqueue) for equeue_unqueue
    .\objects\equeue.o(i.equeue_cancel) refers to .\objects\equeue.o(i.equeue_dealloc) for equeue_dealloc
    .\objects\equeue.o(i.equeue_chain) refers to .\objects\equeue.o(i.equeue_background) for equeue_background
    .\objects\equeue.o(i.equeue_chain) refers to .\objects\equeue.o(i.equeue_alloc) for equeue_alloc
    .\objects\equeue.o(i.equeue_chain) refers to .\objects\equeue.o(i.equeue_chain_update) for equeue_chain_update
    .\objects\equeue.o(i.equeue_chain_dispatch) refers to .\objects\equeue.o(i.equeue_dispatch) for equeue_dispatch
    .\objects\equeue.o(i.equeue_chain_update) refers to .\objects\equeue.o(i.equeue_cancel) for equeue_cancel
    .\objects\equeue.o(i.equeue_chain_update) refers to .\objects\equeue.o(i.equeue_call_in) for equeue_call_in
    .\objects\equeue.o(i.equeue_chain_update) refers to .\objects\equeue.o(i.equeue_dealloc) for equeue_dealloc
    .\objects\equeue.o(i.equeue_chain_update) refers to .\objects\equeue.o(i.equeue_chain_dispatch) for equeue_chain_dispatch
    .\objects\equeue.o(i.equeue_clampdiff) refers to .\objects\equeue.o(i.equeue_tickdiff) for equeue_tickdiff
    .\objects\equeue.o(i.equeue_create) refers to D:\ProgramFiles\Keil_v5\ARM\ARMCC\Bin\..\lib\armlib\c_w.l(h1_alloc_mt.o)(.text) for malloc
    .\objects\equeue.o(i.equeue_create) refers to .\objects\equeue.o(i.equeue_create_inplace) for equeue_create_inplace
    .\objects\equeue.o(i.equeue_create_inplace) refers to .\objects\equeue_mbed.o(i.equeue_tick) for equeue_tick
    .\objects\equeue.o(i.equeue_create_inplace) refers to .\objects\equeue_mbed.o(i.equeue_sema_create) for equeue_sema_create
    .\objects\equeue.o(i.equeue_create_inplace) refers to .\objects\equeue_mbed.o(i.equeue_mutex_create) for equeue_mutex_create
    .\objects\equeue.o(i.equeue_dealloc) refers to .\objects\equeue.o(i.equeue_mem_dealloc) for equeue_mem_dealloc
    .\objects\equeue.o(i.equeue_dequeue) refers to .\objects\equeue_mbed.o(i.equeue_mutex_lock) for equeue_mutex_lock
    .\objects\equeue.o(i.equeue_dequeue) refers to .\objects\equeue.o(i.equeue_tickdiff) for equeue_tickdiff
    .\objects\equeue.o(i.equeue_dequeue) refers to .\objects\equeue_mbed.o(i.equeue_mutex_unlock) for equeue_mutex_unlock
    .\objects\equeue.o(i.equeue_destroy) refers to .\objects\equeue_mbed.o(i.equeue_mutex_destroy) for equeue_mutex_destroy
    .\objects\equeue.o(i.equeue_destroy) refers to .\objects\equeue_mbed.o(i.equeue_sema_destroy) for equeue_sema_destroy
    .\objects\equeue.o(i.equeue_destroy) refers to D:\ProgramFiles\Keil_v5\ARM\ARMCC\Bin\..\lib\armlib\c_w.l(h1_free_mt.o)(.text) for free
    .\objects\equeue.o(i.equeue_dispatch) refers to .\objects\equeue_mbed.o(i.equeue_tick) for equeue_tick
    .\objects\equeue.o(i.equeue_dispatch) refers to .\objects\equeue.o(i.equeue_dequeue) for equeue_dequeue
    .\objects\equeue.o(i.equeue_dispatch) refers to .\objects\equeue.o(i.equeue_enqueue) for equeue_enqueue
    .\objects\equeue.o(i.equeue_dispatch) refers to .\objects\equeue.o(i.equeue_incid) for equeue_incid
    .\objects\equeue.o(i.equeue_dispatch) refers to .\objects\equeue.o(i.equeue_dealloc) for equeue_dealloc
    .\objects\equeue.o(i.equeue_dispatch) refers to .\objects\equeue.o(i.equeue_tickdiff) for equeue_tickdiff
    .\objects\equeue.o(i.equeue_dispatch) refers to .\objects\equeue_mbed.o(i.equeue_mutex_lock) for equeue_mutex_lock
    .\objects\equeue.o(i.equeue_dispatch) refers to .\objects\equeue.o(i.equeue_clampdiff) for equeue_clampdiff
    .\objects\equeue.o(i.equeue_dispatch) refers to .\objects\equeue_mbed.o(i.equeue_mutex_unlock) for equeue_mutex_unlock
    .\objects\equeue.o(i.equeue_dispatch) refers to .\objects\equeue_mbed.o(i.equeue_sema_wait) for equeue_sema_wait
    .\objects\equeue.o(i.equeue_enqueue) refers to .\objects\equeue.o(i.equeue_clampdiff) for equeue_clampdiff
    .\objects\equeue.o(i.equeue_enqueue) refers to .\objects\equeue_mbed.o(i.equeue_mutex_lock) for equeue_mutex_lock
    .\objects\equeue.o(i.equeue_enqueue) refers to .\objects\equeue.o(i.equeue_tickdiff) for equeue_tickdiff
    .\objects\equeue.o(i.equeue_enqueue) refers to .\objects\equeue_mbed.o(i.equeue_mutex_unlock) for equeue_mutex_unlock
    .\objects\equeue.o(i.equeue_mem_alloc) refers to .\objects\equeue_mbed.o(i.equeue_mutex_lock) for equeue_mutex_lock
    .\objects\equeue.o(i.equeue_mem_alloc) refers to .\objects\equeue_mbed.o(i.equeue_mutex_unlock) for equeue_mutex_unlock
    .\objects\equeue.o(i.equeue_mem_dealloc) refers to .\objects\equeue_mbed.o(i.equeue_mutex_lock) for equeue_mutex_lock
    .\objects\equeue.o(i.equeue_mem_dealloc) refers to .\objects\equeue_mbed.o(i.equeue_mutex_unlock) for equeue_mutex_unlock
    .\objects\equeue.o(i.equeue_post) refers to .\objects\equeue_mbed.o(i.equeue_tick) for equeue_tick
    .\objects\equeue.o(i.equeue_post) refers to .\objects\equeue.o(i.equeue_enqueue) for equeue_enqueue
    .\objects\equeue.o(i.equeue_post) refers to .\objects\equeue_mbed.o(i.equeue_sema_signal) for equeue_sema_signal
    .\objects\equeue.o(i.equeue_timeleft) refers to .\objects\equeue_mbed.o(i.equeue_mutex_lock) for equeue_mutex_lock
    .\objects\equeue.o(i.equeue_timeleft) refers to .\objects\equeue_mbed.o(i.equeue_tick) for equeue_tick
    .\objects\equeue.o(i.equeue_timeleft) refers to .\objects\equeue.o(i.equeue_clampdiff) for equeue_clampdiff
    .\objects\equeue.o(i.equeue_timeleft) refers to .\objects\equeue_mbed.o(i.equeue_mutex_unlock) for equeue_mutex_unlock
    .\objects\equeue.o(i.equeue_unqueue) refers to .\objects\equeue_mbed.o(i.equeue_mutex_lock) for equeue_mutex_lock
    .\objects\equeue.o(i.equeue_unqueue) refers to .\objects\equeue_mbed.o(i.equeue_mutex_unlock) for equeue_mutex_unlock
    .\objects\equeue.o(i.equeue_unqueue) refers to .\objects\equeue.o(i.equeue_tickdiff) for equeue_tickdiff
    .\objects\equeue.o(i.equeue_unqueue) refers to .\objects\equeue.o(i.equeue_incid) for equeue_incid
    .\objects\mbed_critical_section_api.o(i.hal_critical_section_enter) refers to .\objects\mbed_critical_section_api.o(i.are_interrupts_enabled) for are_interrupts_enabled
    .\objects\mbed_critical_section_api.o(i.hal_critical_section_enter) refers to .\objects\mbed_critical_section_api.o(.data) for state_saved
    .\objects\mbed_critical_section_api.o(i.hal_critical_section_exit) refers to .\objects\mbed_critical_section_api.o(i.are_interrupts_enabled) for are_interrupts_enabled
    .\objects\mbed_critical_section_api.o(i.hal_critical_section_exit) refers to .\objects\mbed_assert.o(i.mbed_assert_internal) for mbed_assert_internal
    .\objects\mbed_critical_section_api.o(i.hal_critical_section_exit) refers to .\objects\mbed_critical_section_api.o(.data) for state_saved
    .\objects\mbed_critical_section_api.o(i.hal_in_critical_section) refers to .\objects\mbed_critical_section_api.o(.data) for state_saved
    .\objects\mbed_flash_api.o(i.flash_read) refers to D:\ProgramFiles\Keil_v5\ARM\ARMCC\Bin\..\lib\armlib\c_w.l(rt_memcpy_v6.o)(.text) for __aeabi_memcpy
    .\objects\mbed_gpio.o(i._gpio_init_in) refers to .\objects\gpio_api.o(i.gpio_init) for gpio_init
    .\objects\mbed_gpio.o(i._gpio_init_in) refers to .\objects\gpio_api.o(i.gpio_dir) for gpio_dir
    .\objects\mbed_gpio.o(i._gpio_init_in) refers to .\objects\gpio_api.o(i.gpio_mode) for gpio_mode
    .\objects\mbed_gpio.o(i._gpio_init_out) refers to .\objects\gpio_api.o(i.gpio_init) for gpio_init
    .\objects\mbed_gpio.o(i._gpio_init_out) refers to .\objects\mbed_gpio.o(i.gpio_write) for gpio_write
    .\objects\mbed_gpio.o(i._gpio_init_out) refers to .\objects\gpio_api.o(i.gpio_dir) for gpio_dir
    .\objects\mbed_gpio.o(i._gpio_init_out) refers to .\objects\gpio_api.o(i.gpio_mode) for gpio_mode
    .\objects\mbed_gpio.o(i.gpio_init_in) refers to .\objects\mbed_gpio.o(i.gpio_init_in_ex) for gpio_init_in_ex
    .\objects\mbed_gpio.o(i.gpio_init_in_ex) refers to .\objects\mbed_gpio.o(i._gpio_init_in) for _gpio_init_in
    .\objects\mbed_gpio.o(i.gpio_init_inout) refers to .\objects\mbed_gpio.o(i._gpio_init_in) for _gpio_init_in
    .\objects\mbed_gpio.o(i.gpio_init_inout) refers to .\objects\mbed_gpio.o(i.gpio_write) for gpio_write
    .\objects\mbed_gpio.o(i.gpio_init_inout) refers to .\objects\mbed_gpio.o(i._gpio_init_out) for _gpio_init_out
    .\objects\mbed_gpio.o(i.gpio_init_out) refers to .\objects\mbed_gpio.o(i.gpio_init_out_ex) for gpio_init_out_ex
    .\objects\mbed_gpio.o(i.gpio_init_out_ex) refers to .\objects\mbed_gpio.o(i._gpio_init_out) for _gpio_init_out
    .\objects\mbed_lp_ticker_api.o(i.get_lp_ticker_data) refers to .\objects\mbed_lp_ticker_wrapper.o(i.get_lp_ticker_wrapper_data) for get_lp_ticker_wrapper_data
    .\objects\mbed_lp_ticker_api.o(i.get_lp_ticker_data) refers to .\objects\mbed_lp_ticker_api.o(.constdata) for lp_data
    .\objects\mbed_lp_ticker_api.o(i.lp_ticker_irq_handler) refers to .\objects\mbed_lp_ticker_wrapper.o(i.lp_ticker_wrapper_irq_handler) for lp_ticker_wrapper_irq_handler
    .\objects\mbed_lp_ticker_api.o(i.lp_ticker_irq_handler) refers to .\objects\mbed_lp_ticker_api.o(.data) for irq_handler
    .\objects\mbed_lp_ticker_api.o(i.set_lp_ticker_irq_handler) refers to .\objects\mbed_lp_ticker_api.o(.data) for irq_handler
    .\objects\mbed_lp_ticker_api.o(.constdata) refers to .\objects\lp_ticker.o(i.lp_ticker_init) for lp_ticker_init
    .\objects\mbed_lp_ticker_api.o(.constdata) refers to .\objects\lp_ticker.o(i.lp_ticker_read) for lp_ticker_read
    .\objects\mbed_lp_ticker_api.o(.constdata) refers to .\objects\lp_ticker.o(i.lp_ticker_disable_interrupt) for lp_ticker_disable_interrupt
    .\objects\mbed_lp_ticker_api.o(.constdata) refers to .\objects\lp_ticker.o(i.lp_ticker_clear_interrupt) for lp_ticker_clear_interrupt
    .\objects\mbed_lp_ticker_api.o(.constdata) refers to .\objects\lp_ticker.o(i.lp_ticker_set_interrupt) for lp_ticker_set_interrupt
    .\objects\mbed_lp_ticker_api.o(.constdata) refers to .\objects\lp_ticker.o(i.lp_ticker_fire_interrupt) for lp_ticker_fire_interrupt
    .\objects\mbed_lp_ticker_api.o(.constdata) refers to .\objects\lp_ticker.o(i.lp_ticker_free) for lp_ticker_free
    .\objects\mbed_lp_ticker_api.o(.constdata) refers to .\objects\lp_ticker.o(i.lp_ticker_get_info) for lp_ticker_get_info
    .\objects\mbed_lp_ticker_api.o(.constdata) refers to .\objects\mbed_lp_ticker_api.o(.bss) for events
    .\objects\mbed_lp_ticker_api.o(.data) refers to .\objects\mbed_ticker_api.o(i.ticker_irq_handler) for ticker_irq_handler
    .\objects\mbed_pinmap_common.o(i.pinmap_function) refers to .\objects\mbed_pinmap_common.o(i.pinmap_find_function) for pinmap_find_function
    .\objects\mbed_pinmap_common.o(i.pinmap_function) refers to .\objects\mbed_error.o(i.mbed_error) for mbed_error
    .\objects\mbed_pinmap_common.o(i.pinmap_merge) refers to .\objects\mbed_error.o(i.mbed_error) for mbed_error
    .\objects\mbed_pinmap_common.o(i.pinmap_peripheral) refers to .\objects\mbed_pinmap_common.o(i.pinmap_find_peripheral) for pinmap_find_peripheral
    .\objects\mbed_pinmap_common.o(i.pinmap_peripheral) refers to .\objects\mbed_error.o(i.mbed_error) for mbed_error
    .\objects\mbed_pinmap_common.o(i.pinmap_pinout) refers to .\objects\pinmap.o(i.pin_function) for pin_function
    .\objects\mbed_pinmap_common.o(i.pinmap_pinout) refers to .\objects\pinmap.o(i.pin_mode) for pin_mode
    .\objects\mbed_pinmap_common.o(i.pinmap_pinout) refers to .\objects\mbed_error.o(i.mbed_error) for mbed_error
    .\objects\mbed_sleep_manager.o(i.mbed_time_deepsleep) refers to .\objects\mbed_sleep_manager.o(.data) for deep_sleep_time
    .\objects\mbed_sleep_manager.o(i.mbed_time_idle) refers to .\objects\mbed_sleep_manager.o(.data) for sleep_time
    .\objects\mbed_sleep_manager.o(i.mbed_time_sleep) refers to .\objects\mbed_sleep_manager.o(.data) for sleep_time
    .\objects\mbed_sleep_manager.o(i.sleep_manager_can_deep_sleep) refers to .\objects\mbed_sleep_manager.o(.data) for deep_sleep_lock
    .\objects\mbed_sleep_manager.o(i.sleep_manager_can_deep_sleep_test_check) refers to .\objects\mbed_us_ticker_api.o(i.get_us_ticker_data) for get_us_ticker_data
    .\objects\mbed_sleep_manager.o(i.sleep_manager_can_deep_sleep_test_check) refers to .\objects\mbed_ticker_api.o(i.ticker_read) for ticker_read
    .\objects\mbed_sleep_manager.o(i.sleep_manager_can_deep_sleep_test_check) refers to .\objects\mbed_sleep_manager.o(i.sleep_manager_can_deep_sleep) for sleep_manager_can_deep_sleep
    .\objects\mbed_sleep_manager.o(i.sleep_manager_lock_deep_sleep_internal) refers to .\objects\mbed_critical.o(i.core_util_critical_section_enter) for core_util_critical_section_enter
    .\objects\mbed_sleep_manager.o(i.sleep_manager_lock_deep_sleep_internal) refers to .\objects\mbed_critical.o(i.core_util_critical_section_exit) for core_util_critical_section_exit
    .\objects\mbed_sleep_manager.o(i.sleep_manager_lock_deep_sleep_internal) refers to .\objects\mbed_error.o(i.mbed_error) for mbed_error
    .\objects\mbed_sleep_manager.o(i.sleep_manager_lock_deep_sleep_internal) refers to .\objects\mbed_critical.o(i.core_util_atomic_incr_u16) for core_util_atomic_incr_u16
    .\objects\mbed_sleep_manager.o(i.sleep_manager_lock_deep_sleep_internal) refers to .\objects\mbed_sleep_manager.o(.data) for deep_sleep_lock
    .\objects\mbed_sleep_manager.o(i.sleep_manager_sleep_auto) refers to .\objects\mbed_critical.o(i.core_util_critical_section_enter) for core_util_critical_section_enter
    .\objects\mbed_sleep_manager.o(i.sleep_manager_sleep_auto) refers to .\objects\mbed_sleep_manager.o(i.sleep_manager_can_deep_sleep) for sleep_manager_can_deep_sleep
    .\objects\mbed_sleep_manager.o(i.sleep_manager_sleep_auto) refers to .\objects\sleep.o(i.hal_deepsleep) for hal_deepsleep
    .\objects\mbed_sleep_manager.o(i.sleep_manager_sleep_auto) refers to .\objects\sleep.o(i.hal_sleep) for hal_sleep
    .\objects\mbed_sleep_manager.o(i.sleep_manager_sleep_auto) refers to .\objects\mbed_critical.o(i.core_util_critical_section_exit) for core_util_critical_section_exit
    .\objects\mbed_sleep_manager.o(i.sleep_manager_sleep_auto) refers to .\objects\mbed_sleep_manager.o(.data) for deep_sleep_time
    .\objects\mbed_sleep_manager.o(i.sleep_manager_unlock_deep_sleep_internal) refers to .\objects\mbed_critical.o(i.core_util_critical_section_enter) for core_util_critical_section_enter
    .\objects\mbed_sleep_manager.o(i.sleep_manager_unlock_deep_sleep_internal) refers to .\objects\mbed_critical.o(i.core_util_critical_section_exit) for core_util_critical_section_exit
    .\objects\mbed_sleep_manager.o(i.sleep_manager_unlock_deep_sleep_internal) refers to .\objects\mbed_error.o(i.mbed_error) for mbed_error
    .\objects\mbed_sleep_manager.o(i.sleep_manager_unlock_deep_sleep_internal) refers to .\objects\mbed_critical.o(i.core_util_atomic_decr_u16) for core_util_atomic_decr_u16
    .\objects\mbed_sleep_manager.o(i.sleep_manager_unlock_deep_sleep_internal) refers to .\objects\mbed_sleep_manager.o(.data) for deep_sleep_lock
    .\objects\mbed_ticker_api.o(i.compute_tick_round_up) refers to D:\ProgramFiles\Keil_v5\ARM\ARMCC\Bin\..\lib\armlib\c_w.l(llshl.o)(.text) for __aeabi_llsl
    .\objects\mbed_ticker_api.o(i.compute_tick_round_up) refers to D:\ProgramFiles\Keil_v5\ARM\ARMCC\Bin\..\lib\armlib\c_w.l(lludivv7m.o)(.text) for __aeabi_uldivmod
    .\objects\mbed_ticker_api.o(i.initialize) refers to .\objects\mbed_assert.o(i.mbed_assert_internal) for mbed_assert_internal
    .\objects\mbed_ticker_api.o(i.initialize) refers to D:\ProgramFiles\Keil_v5\ARM\ARMCC\Bin\..\lib\armlib\c_w.l(lludivv7m.o)(.text) for __aeabi_uldivmod
    .\objects\mbed_ticker_api.o(i.initialize) refers to D:\ProgramFiles\Keil_v5\ARM\ARMCC\Bin\..\lib\armlib\c_w.l(llshl.o)(.text) for __aeabi_llsl
    .\objects\mbed_ticker_api.o(i.initialize) refers to .\objects\mbed_ticker_api.o(i.update_present_time) for update_present_time
    .\objects\mbed_ticker_api.o(i.initialize) refers to .\objects\mbed_ticker_api.o(i.schedule_interrupt) for schedule_interrupt
    .\objects\mbed_ticker_api.o(i.schedule_interrupt) refers to .\objects\mbed_ticker_api.o(i.update_present_time) for update_present_time
    .\objects\mbed_ticker_api.o(i.schedule_interrupt) refers to .\objects\mbed_ticker_api.o(i.compute_tick_round_up) for compute_tick_round_up
    .\objects\mbed_ticker_api.o(i.schedule_interrupt) refers to .\objects\mbed_assert.o(i.mbed_assert_internal) for mbed_assert_internal
    .\objects\mbed_ticker_api.o(i.schedule_interrupt) refers to .\objects\mbed_ticker_api.o(i._ticker_match_interval_passed) for _ticker_match_interval_passed
    .\objects\mbed_ticker_api.o(i.ticker_get_next_timestamp) refers to .\objects\mbed_critical.o(i.core_util_critical_section_enter) for core_util_critical_section_enter
    .\objects\mbed_ticker_api.o(i.ticker_get_next_timestamp) refers to .\objects\mbed_critical.o(i.core_util_critical_section_exit) for core_util_critical_section_exit
    .\objects\mbed_ticker_api.o(i.ticker_insert_event) refers to .\objects\mbed_critical.o(i.core_util_critical_section_enter) for core_util_critical_section_enter
    .\objects\mbed_ticker_api.o(i.ticker_insert_event) refers to .\objects\mbed_ticker_api.o(i.update_present_time) for update_present_time
    .\objects\mbed_ticker_api.o(i.ticker_insert_event) refers to .\objects\mbed_ticker_api.o(i.convert_timestamp) for convert_timestamp
    .\objects\mbed_ticker_api.o(i.ticker_insert_event) refers to .\objects\mbed_ticker_api.o(i.ticker_insert_event_us) for ticker_insert_event_us
    .\objects\mbed_ticker_api.o(i.ticker_insert_event) refers to .\objects\mbed_critical.o(i.core_util_critical_section_exit) for core_util_critical_section_exit
    .\objects\mbed_ticker_api.o(i.ticker_insert_event_us) refers to .\objects\mbed_critical.o(i.core_util_critical_section_enter) for core_util_critical_section_enter
    .\objects\mbed_ticker_api.o(i.ticker_insert_event_us) refers to .\objects\mbed_ticker_api.o(i.update_present_time) for update_present_time
    .\objects\mbed_ticker_api.o(i.ticker_insert_event_us) refers to .\objects\mbed_ticker_api.o(i.schedule_interrupt) for schedule_interrupt
    .\objects\mbed_ticker_api.o(i.ticker_insert_event_us) refers to .\objects\mbed_critical.o(i.core_util_critical_section_exit) for core_util_critical_section_exit
    .\objects\mbed_ticker_api.o(i.ticker_irq_handler) refers to .\objects\mbed_critical.o(i.core_util_critical_section_enter) for core_util_critical_section_enter
    .\objects\mbed_ticker_api.o(i.ticker_irq_handler) refers to .\objects\mbed_critical.o(i.core_util_critical_section_exit) for core_util_critical_section_exit
    .\objects\mbed_ticker_api.o(i.ticker_irq_handler) refers to .\objects\mbed_ticker_api.o(i.update_present_time) for update_present_time
    .\objects\mbed_ticker_api.o(i.ticker_irq_handler) refers to .\objects\mbed_ticker_api.o(i.schedule_interrupt) for schedule_interrupt
    .\objects\mbed_ticker_api.o(i.ticker_read) refers to .\objects\mbed_ticker_api.o(i.ticker_read_us) for ticker_read_us
    .\objects\mbed_ticker_api.o(i.ticker_read_us) refers to .\objects\mbed_ticker_api.o(i.initialize) for initialize
    .\objects\mbed_ticker_api.o(i.ticker_read_us) refers to .\objects\mbed_critical.o(i.core_util_critical_section_enter) for core_util_critical_section_enter
    .\objects\mbed_ticker_api.o(i.ticker_read_us) refers to .\objects\mbed_ticker_api.o(i.update_present_time) for update_present_time
    .\objects\mbed_ticker_api.o(i.ticker_read_us) refers to .\objects\mbed_critical.o(i.core_util_critical_section_exit) for core_util_critical_section_exit
    .\objects\mbed_ticker_api.o(i.ticker_remove_event) refers to .\objects\mbed_critical.o(i.core_util_critical_section_enter) for core_util_critical_section_enter
    .\objects\mbed_ticker_api.o(i.ticker_remove_event) refers to .\objects\mbed_ticker_api.o(i.schedule_interrupt) for schedule_interrupt
    .\objects\mbed_ticker_api.o(i.ticker_remove_event) refers to .\objects\mbed_critical.o(i.core_util_critical_section_exit) for core_util_critical_section_exit
    .\objects\mbed_ticker_api.o(i.ticker_resume) refers to .\objects\mbed_critical.o(i.core_util_critical_section_enter) for core_util_critical_section_enter
    .\objects\mbed_ticker_api.o(i.ticker_resume) refers to .\objects\mbed_ticker_api.o(i.update_present_time) for update_present_time
    .\objects\mbed_ticker_api.o(i.ticker_resume) refers to .\objects\mbed_ticker_api.o(i.schedule_interrupt) for schedule_interrupt
    .\objects\mbed_ticker_api.o(i.ticker_resume) refers to .\objects\mbed_ticker_api.o(i.initialize) for initialize
    .\objects\mbed_ticker_api.o(i.ticker_resume) refers to .\objects\mbed_critical.o(i.core_util_critical_section_exit) for core_util_critical_section_exit
    .\objects\mbed_ticker_api.o(i.ticker_set_handler) refers to .\objects\mbed_ticker_api.o(i.initialize) for initialize
    .\objects\mbed_ticker_api.o(i.ticker_set_handler) refers to .\objects\mbed_critical.o(i.core_util_critical_section_enter) for core_util_critical_section_enter
    .\objects\mbed_ticker_api.o(i.ticker_set_handler) refers to .\objects\mbed_ticker_api.o(i.set_handler) for set_handler
    .\objects\mbed_ticker_api.o(i.ticker_set_handler) refers to .\objects\mbed_critical.o(i.core_util_critical_section_exit) for core_util_critical_section_exit
    .\objects\mbed_ticker_api.o(i.ticker_suspend) refers to .\objects\mbed_critical.o(i.core_util_critical_section_enter) for core_util_critical_section_enter
    .\objects\mbed_ticker_api.o(i.ticker_suspend) refers to .\objects\mbed_critical.o(i.core_util_critical_section_exit) for core_util_critical_section_exit
    .\objects\mbed_ticker_api.o(i.update_present_time) refers to D:\ProgramFiles\Keil_v5\ARM\ARMCC\Bin\..\lib\armlib\c_w.l(llushr.o)(.text) for __aeabi_llsr
    .\objects\mbed_ticker_api.o(i.update_present_time) refers to D:\ProgramFiles\Keil_v5\ARM\ARMCC\Bin\..\lib\armlib\c_w.l(llshl.o)(.text) for __aeabi_llsl
    .\objects\mbed_ticker_api.o(i.update_present_time) refers to D:\ProgramFiles\Keil_v5\ARM\ARMCC\Bin\..\lib\armlib\c_w.l(lludivv7m.o)(.text) for __aeabi_uldivmod
    .\objects\mbed_us_ticker_api.o(i.get_us_ticker_data) refers to .\objects\mbed_us_ticker_api.o(.constdata) for us_data
    .\objects\mbed_us_ticker_api.o(i.set_us_ticker_irq_handler) refers to .\objects\mbed_us_ticker_api.o(.data) for irq_handler
    .\objects\mbed_us_ticker_api.o(i.us_ticker_irq_handler) refers to .\objects\mbed_us_ticker_api.o(.data) for irq_handler
    .\objects\mbed_us_ticker_api.o(i.us_ticker_irq_handler) refers to .\objects\mbed_us_ticker_api.o(.constdata) for us_data
    .\objects\mbed_us_ticker_api.o(.constdata) refers to .\objects\us_ticker.o(i.us_ticker_init) for us_ticker_init
    .\objects\mbed_us_ticker_api.o(.constdata) refers to .\objects\us_ticker.o(i.us_ticker_read) for us_ticker_read
    .\objects\mbed_us_ticker_api.o(.constdata) refers to .\objects\us_ticker.o(i.us_ticker_disable_interrupt) for us_ticker_disable_interrupt
    .\objects\mbed_us_ticker_api.o(.constdata) refers to .\objects\us_ticker.o(i.us_ticker_clear_interrupt) for us_ticker_clear_interrupt
    .\objects\mbed_us_ticker_api.o(.constdata) refers to .\objects\us_ticker.o(i.us_ticker_set_interrupt) for us_ticker_set_interrupt
    .\objects\mbed_us_ticker_api.o(.constdata) refers to .\objects\us_ticker.o(i.us_ticker_fire_interrupt) for us_ticker_fire_interrupt
    .\objects\mbed_us_ticker_api.o(.constdata) refers to .\objects\us_ticker.o(i.us_ticker_free) for us_ticker_free
    .\objects\mbed_us_ticker_api.o(.constdata) refers to .\objects\us_ticker.o(i.us_ticker_get_info) for us_ticker_get_info
    .\objects\mbed_us_ticker_api.o(.constdata) refers to .\objects\mbed_us_ticker_api.o(.bss) for events
    .\objects\mbed_us_ticker_api.o(.data) refers to .\objects\mbed_ticker_api.o(i.ticker_irq_handler) for ticker_irq_handler
    .\objects\lowpowertickerwrapper.o(i._ZN21LowPowerTickerWrapper11irq_handlerEPFvPK13ticker_data_tE) refers to .\objects\mbed_critical.o(i.core_util_critical_section_enter) for core_util_critical_section_enter
    .\objects\lowpowertickerwrapper.o(i._ZN21LowPowerTickerWrapper11irq_handlerEPFvPK13ticker_data_tE) refers to .\objects\mbed_critical.o(i.core_util_critical_section_exit) for core_util_critical_section_exit
    .\objects\lowpowertickerwrapper.o(i._ZN21LowPowerTickerWrapper11irq_handlerEPFvPK13ticker_data_tE) refers to .\objects\lowpowertickerwrapper.o(i._ZN21LowPowerTickerWrapper12_match_checkEj) for LowPowerTickerWrapper::_match_check(unsigned)
    .\objects\lowpowertickerwrapper.o(i._ZN21LowPowerTickerWrapper11irq_handlerEPFvPK13ticker_data_tE) refers to .\objects\ticker.o(i._ZN4mbed6Ticker6detachEv) for mbed::Ticker::detach()
    .\objects\lowpowertickerwrapper.o(i._ZN21LowPowerTickerWrapper12_match_checkEj) refers to .\objects\mbed_critical.o(i.core_util_in_critical_section) for core_util_in_critical_section
    .\objects\lowpowertickerwrapper.o(i._ZN21LowPowerTickerWrapper12_match_checkEj) refers to .\objects\mbed_assert.o(i.mbed_assert_internal) for mbed_assert_internal
    .\objects\lowpowertickerwrapper.o(i._ZN21LowPowerTickerWrapper12_match_checkEj) refers to .\objects\mbed_ticker_api.o(i._ticker_match_interval_passed) for _ticker_match_interval_passed
    .\objects\lowpowertickerwrapper.o(i._ZN21LowPowerTickerWrapper13set_interruptEj) refers to .\objects\mbed_critical.o(i.core_util_critical_section_enter) for core_util_critical_section_enter
    .\objects\lowpowertickerwrapper.o(i._ZN21LowPowerTickerWrapper13set_interruptEj) refers to .\objects\lowpowertickerwrapper.o(i._ZN21LowPowerTickerWrapper15_schedule_matchEj) for LowPowerTickerWrapper::_schedule_match(unsigned)
    .\objects\lowpowertickerwrapper.o(i._ZN21LowPowerTickerWrapper13set_interruptEj) refers to .\objects\mbed_critical.o(i.core_util_critical_section_exit) for core_util_critical_section_exit
    .\objects\lowpowertickerwrapper.o(i._ZN21LowPowerTickerWrapper14fire_interruptEv) refers to .\objects\mbed_critical.o(i.core_util_critical_section_enter) for core_util_critical_section_enter
    .\objects\lowpowertickerwrapper.o(i._ZN21LowPowerTickerWrapper14fire_interruptEv) refers to .\objects\mbed_critical.o(i.core_util_critical_section_exit) for core_util_critical_section_exit
    .\objects\lowpowertickerwrapper.o(i._ZN21LowPowerTickerWrapper15_lp_ticks_to_usEj) refers to .\objects\mbed_critical.o(i.core_util_in_critical_section) for core_util_in_critical_section
    .\objects\lowpowertickerwrapper.o(i._ZN21LowPowerTickerWrapper15_lp_ticks_to_usEj) refers to .\objects\mbed_assert.o(i.mbed_assert_internal) for mbed_assert_internal
    .\objects\lowpowertickerwrapper.o(i._ZN21LowPowerTickerWrapper15_schedule_matchEj) refers to .\objects\mbed_critical.o(i.core_util_in_critical_section) for core_util_in_critical_section
    .\objects\lowpowertickerwrapper.o(i._ZN21LowPowerTickerWrapper15_schedule_matchEj) refers to .\objects\mbed_assert.o(i.mbed_assert_internal) for mbed_assert_internal
    .\objects\lowpowertickerwrapper.o(i._ZN21LowPowerTickerWrapper15_schedule_matchEj) refers to .\objects\lowpowertickerwrapper.o(i._ZN21LowPowerTickerWrapper15_lp_ticks_to_usEj) for LowPowerTickerWrapper::_lp_ticks_to_us(unsigned)
    .\objects\lowpowertickerwrapper.o(i._ZN21LowPowerTickerWrapper15_schedule_matchEj) refers to .\objects\lowpowertickerwrapper.o(t._ZN4mbed8callbackI21LowPowerTickerWrapperS1_vEENS_8CallbackIFT1_vEEEPT0_MT_FS3_vE) for mbed::Callback<T3()> mbed::callback<LowPowerTickerWrapper, LowPowerTickerWrapper, void>(T2*, T3(T1::*)())
    .\objects\lowpowertickerwrapper.o(i._ZN21LowPowerTickerWrapper15_schedule_matchEj) refers to .\objects\lowpowertickerwrapper.o(i._ZN4mbed6Ticker9attach_usENS_8CallbackIFvvEEEy) for mbed::Ticker::attach_us(mbed::Callback<void()>, unsigned long long)
    .\objects\lowpowertickerwrapper.o(i._ZN21LowPowerTickerWrapper15_schedule_matchEj) refers to .\objects\can.o(t._ZN4mbed8CallbackIFvvEED1Ev) for mbed::Callback<void()>::~Callback()
    .\objects\lowpowertickerwrapper.o(i._ZN21LowPowerTickerWrapper15_schedule_matchEj) refers to .\objects\lowpowertickerwrapper.o(.constdata) for <Data1>
    .\objects\lowpowertickerwrapper.o(i._ZN21LowPowerTickerWrapper15clear_interruptEv) refers to .\objects\mbed_critical.o(i.core_util_critical_section_enter) for core_util_critical_section_enter
    .\objects\lowpowertickerwrapper.o(i._ZN21LowPowerTickerWrapper15clear_interruptEv) refers to .\objects\mbed_critical.o(i.core_util_critical_section_exit) for core_util_critical_section_exit
    .\objects\lowpowertickerwrapper.o(i._ZN21LowPowerTickerWrapper15timeout_pendingEv) refers to .\objects\mbed_critical.o(i.core_util_critical_section_enter) for core_util_critical_section_enter
    .\objects\lowpowertickerwrapper.o(i._ZN21LowPowerTickerWrapper15timeout_pendingEv) refers to .\objects\mbed_critical.o(i.core_util_critical_section_exit) for core_util_critical_section_exit
    .\objects\lowpowertickerwrapper.o(i._ZN21LowPowerTickerWrapper16_timeout_handlerEv) refers to .\objects\mbed_critical.o(i.core_util_critical_section_enter) for core_util_critical_section_enter
    .\objects\lowpowertickerwrapper.o(i._ZN21LowPowerTickerWrapper16_timeout_handlerEv) refers to .\objects\mbed_ticker_api.o(i._ticker_match_interval_passed) for _ticker_match_interval_passed
    .\objects\lowpowertickerwrapper.o(i._ZN21LowPowerTickerWrapper16_timeout_handlerEv) refers to .\objects\lowpowertickerwrapper.o(i._ZN21LowPowerTickerWrapper15_schedule_matchEj) for LowPowerTickerWrapper::_schedule_match(unsigned)
    .\objects\lowpowertickerwrapper.o(i._ZN21LowPowerTickerWrapper16_timeout_handlerEv) refers to .\objects\mbed_critical.o(i.core_util_critical_section_exit) for core_util_critical_section_exit
    .\objects\lowpowertickerwrapper.o(i._ZN21LowPowerTickerWrapper17disable_interruptEv) refers to .\objects\mbed_critical.o(i.core_util_critical_section_enter) for core_util_critical_section_enter
    .\objects\lowpowertickerwrapper.o(i._ZN21LowPowerTickerWrapper17disable_interruptEv) refers to .\objects\mbed_critical.o(i.core_util_critical_section_exit) for core_util_critical_section_exit
    .\objects\lowpowertickerwrapper.o(i._ZN21LowPowerTickerWrapper4freeEv) refers to .\objects\mbed_critical.o(i.core_util_critical_section_enter) for core_util_critical_section_enter
    .\objects\lowpowertickerwrapper.o(i._ZN21LowPowerTickerWrapper4freeEv) refers to .\objects\lowpowertickerwrapper.o(i._ZN21LowPowerTickerWrapper6_resetEv) for LowPowerTickerWrapper::_reset()
    .\objects\lowpowertickerwrapper.o(i._ZN21LowPowerTickerWrapper4freeEv) refers to .\objects\mbed_critical.o(i.core_util_critical_section_exit) for core_util_critical_section_exit
    .\objects\lowpowertickerwrapper.o(i._ZN21LowPowerTickerWrapper4initEv) refers to .\objects\mbed_critical.o(i.core_util_critical_section_enter) for core_util_critical_section_enter
    .\objects\lowpowertickerwrapper.o(i._ZN21LowPowerTickerWrapper4initEv) refers to .\objects\lowpowertickerwrapper.o(i._ZN21LowPowerTickerWrapper6_resetEv) for LowPowerTickerWrapper::_reset()
    .\objects\lowpowertickerwrapper.o(i._ZN21LowPowerTickerWrapper4initEv) refers to .\objects\mbed_critical.o(i.core_util_critical_section_exit) for core_util_critical_section_exit
    .\objects\lowpowertickerwrapper.o(i._ZN21LowPowerTickerWrapper4readEv) refers to .\objects\mbed_critical.o(i.core_util_critical_section_enter) for core_util_critical_section_enter
    .\objects\lowpowertickerwrapper.o(i._ZN21LowPowerTickerWrapper4readEv) refers to .\objects\lowpowertickerwrapper.o(i._ZN21LowPowerTickerWrapper12_match_checkEj) for LowPowerTickerWrapper::_match_check(unsigned)
    .\objects\lowpowertickerwrapper.o(i._ZN21LowPowerTickerWrapper4readEv) refers to .\objects\mbed_critical.o(i.core_util_critical_section_exit) for core_util_critical_section_exit
    .\objects\lowpowertickerwrapper.o(i._ZN21LowPowerTickerWrapper6_resetEv) refers to .\objects\mbed_critical.o(i.core_util_in_critical_section) for core_util_in_critical_section
    .\objects\lowpowertickerwrapper.o(i._ZN21LowPowerTickerWrapper6_resetEv) refers to .\objects\mbed_assert.o(i.mbed_assert_internal) for mbed_assert_internal
    .\objects\lowpowertickerwrapper.o(i._ZN21LowPowerTickerWrapper6_resetEv) refers to .\objects\ticker.o(i._ZN4mbed6Ticker6detachEv) for mbed::Ticker::detach()
    .\objects\lowpowertickerwrapper.o(i._ZN21LowPowerTickerWrapper6_resetEv) refers to D:\ProgramFiles\Keil_v5\ARM\ARMCC\Bin\..\lib\armlib\c_w.l(llshl.o)(.text) for __aeabi_llsl
    .\objects\lowpowertickerwrapper.o(i._ZN21LowPowerTickerWrapper6resumeEv) refers to .\objects\mbed_critical.o(i.core_util_critical_section_enter) for core_util_critical_section_enter
    .\objects\lowpowertickerwrapper.o(i._ZN21LowPowerTickerWrapper6resumeEv) refers to .\objects\mbed_critical.o(i.core_util_critical_section_exit) for core_util_critical_section_exit
    .\objects\lowpowertickerwrapper.o(i._ZN21LowPowerTickerWrapper7suspendEv) refers to .\objects\mbed_critical.o(i.core_util_critical_section_enter) for core_util_critical_section_enter
    .\objects\lowpowertickerwrapper.o(i._ZN21LowPowerTickerWrapper7suspendEv) refers to .\objects\lowpowertickerwrapper.o(i._ZN21LowPowerTickerWrapper6_resetEv) for LowPowerTickerWrapper::_reset()
    .\objects\lowpowertickerwrapper.o(i._ZN21LowPowerTickerWrapper7suspendEv) refers to .\objects\mbed_critical.o(i.core_util_critical_section_exit) for core_util_critical_section_exit
    .\objects\lowpowertickerwrapper.o(i._ZN21LowPowerTickerWrapper8get_infoEv) refers to .\objects\mbed_critical.o(i.core_util_critical_section_enter) for core_util_critical_section_enter
    .\objects\lowpowertickerwrapper.o(i._ZN21LowPowerTickerWrapper8get_infoEv) refers to .\objects\mbed_critical.o(i.core_util_critical_section_exit) for core_util_critical_section_exit
    .\objects\lowpowertickerwrapper.o(i._ZN21LowPowerTickerWrapperC1EPK13ticker_data_tPK18ticker_interface_tjj) refers to .\objects\lowpowertickerwrapper.o(i._ZN4mbed6TickerC1Ev) for mbed::Ticker::Ticker()
    .\objects\lowpowertickerwrapper.o(i._ZN21LowPowerTickerWrapperC1EPK13ticker_data_tPK18ticker_interface_tjj) refers to .\objects\mbed_critical.o(i.core_util_critical_section_enter) for core_util_critical_section_enter
    .\objects\lowpowertickerwrapper.o(i._ZN21LowPowerTickerWrapperC1EPK13ticker_data_tPK18ticker_interface_tjj) refers to .\objects\lowpowertickerwrapper.o(i._ZN21LowPowerTickerWrapper6_resetEv) for LowPowerTickerWrapper::_reset()
    .\objects\lowpowertickerwrapper.o(i._ZN21LowPowerTickerWrapperC1EPK13ticker_data_tPK18ticker_interface_tjj) refers to .\objects\mbed_critical.o(i.core_util_critical_section_exit) for core_util_critical_section_exit
    .\objects\lowpowertickerwrapper.o(i._ZN21LowPowerTickerWrapperC1EPK13ticker_data_tPK18ticker_interface_tjj) refers to .\objects\timeout.o(.constdata__ZTVN4mbed7TimeoutE) for vtable for mbed::Timeout
    .\objects\lowpowertickerwrapper.o(.ARM.exidx) refers to .\objects\lowpowertickerwrapper.o(i._ZN21LowPowerTickerWrapper6_resetEv) for i._ZN21LowPowerTickerWrapper6_resetEv
    .\objects\lowpowertickerwrapper.o(.ARM.exidx) refers to .\objects\lowpowertickerwrapper.o(i._ZN21LowPowerTickerWrapperC1EPK13ticker_data_tPK18ticker_interface_tjj) for i._ZN21LowPowerTickerWrapperC1EPK13ticker_data_tPK18ticker_interface_tjj
    .\objects\lowpowertickerwrapper.o(.ARM.exidx) refers to .\objects\lowpowertickerwrapper.o(i._ZN21LowPowerTickerWrapper12_match_checkEj) for i._ZN21LowPowerTickerWrapper12_match_checkEj
    .\objects\lowpowertickerwrapper.o(.ARM.exidx) refers to .\objects\lowpowertickerwrapper.o(i._ZN21LowPowerTickerWrapper11irq_handlerEPFvPK13ticker_data_tE) for i._ZN21LowPowerTickerWrapper11irq_handlerEPFvPK13ticker_data_tE
    .\objects\lowpowertickerwrapper.o(.ARM.exidx) refers to .\objects\lowpowertickerwrapper.o(i._ZN21LowPowerTickerWrapper7suspendEv) for i._ZN21LowPowerTickerWrapper7suspendEv
    .\objects\lowpowertickerwrapper.o(.ARM.exidx) refers to .\objects\lowpowertickerwrapper.o(i._ZN21LowPowerTickerWrapper6resumeEv) for i._ZN21LowPowerTickerWrapper6resumeEv
    .\objects\lowpowertickerwrapper.o(.ARM.exidx) refers to .\objects\lowpowertickerwrapper.o(i._ZN21LowPowerTickerWrapper15timeout_pendingEv) for i._ZN21LowPowerTickerWrapper15timeout_pendingEv
    .\objects\lowpowertickerwrapper.o(.ARM.exidx) refers to .\objects\lowpowertickerwrapper.o(i._ZN21LowPowerTickerWrapper4initEv) for i._ZN21LowPowerTickerWrapper4initEv
    .\objects\lowpowertickerwrapper.o(.ARM.exidx) refers to .\objects\lowpowertickerwrapper.o(i._ZN21LowPowerTickerWrapper4freeEv) for i._ZN21LowPowerTickerWrapper4freeEv
    .\objects\lowpowertickerwrapper.o(.ARM.exidx) refers to .\objects\lowpowertickerwrapper.o(i._ZN21LowPowerTickerWrapper4readEv) for i._ZN21LowPowerTickerWrapper4readEv
    .\objects\lowpowertickerwrapper.o(.ARM.exidx) refers to .\objects\lowpowertickerwrapper.o(i._ZN21LowPowerTickerWrapper15_lp_ticks_to_usEj) for i._ZN21LowPowerTickerWrapper15_lp_ticks_to_usEj
    .\objects\lowpowertickerwrapper.o(.ARM.exidx) refers to .\objects\lowpowertickerwrapper.o(i._ZN21LowPowerTickerWrapper15_schedule_matchEj) for i._ZN21LowPowerTickerWrapper15_schedule_matchEj
    .\objects\lowpowertickerwrapper.o(.ARM.exidx) refers to .\objects\lowpowertickerwrapper.o(i._ZN21LowPowerTickerWrapper13set_interruptEj) for i._ZN21LowPowerTickerWrapper13set_interruptEj
    .\objects\lowpowertickerwrapper.o(.ARM.exidx) refers to .\objects\lowpowertickerwrapper.o(i._ZN21LowPowerTickerWrapper17disable_interruptEv) for i._ZN21LowPowerTickerWrapper17disable_interruptEv
    .\objects\lowpowertickerwrapper.o(.ARM.exidx) refers to .\objects\lowpowertickerwrapper.o(i._ZN21LowPowerTickerWrapper15clear_interruptEv) for i._ZN21LowPowerTickerWrapper15clear_interruptEv
    .\objects\lowpowertickerwrapper.o(.ARM.exidx) refers to .\objects\lowpowertickerwrapper.o(i._ZN21LowPowerTickerWrapper14fire_interruptEv) for i._ZN21LowPowerTickerWrapper14fire_interruptEv
    .\objects\lowpowertickerwrapper.o(.ARM.exidx) refers to .\objects\lowpowertickerwrapper.o(i._ZN21LowPowerTickerWrapper8get_infoEv) for i._ZN21LowPowerTickerWrapper8get_infoEv
    .\objects\lowpowertickerwrapper.o(.ARM.exidx) refers to .\objects\lowpowertickerwrapper.o(i._ZN21LowPowerTickerWrapper16_timeout_handlerEv) for i._ZN21LowPowerTickerWrapper16_timeout_handlerEv
    .\objects\lowpowertickerwrapper.o(.constdata) refers to .\objects\lowpowertickerwrapper.o(i._ZN21LowPowerTickerWrapper16_timeout_handlerEv) for LowPowerTickerWrapper::_timeout_handler()
    .\objects\mbed_lp_ticker_wrapper.o(i._Z22lp_ticker_wrapper_freev) refers to .\objects\lowpowertickerwrapper.o(i._ZN21LowPowerTickerWrapper4freeEv) for LowPowerTickerWrapper::free()
    .\objects\mbed_lp_ticker_wrapper.o(i._Z22lp_ticker_wrapper_freev) refers to .\objects\mbed_lp_ticker_wrapper.o(.data) for ticker_wrapper
    .\objects\mbed_lp_ticker_wrapper.o(i._Z22lp_ticker_wrapper_initv) refers to .\objects\lowpowertickerwrapper.o(i._ZN21LowPowerTickerWrapper4initEv) for LowPowerTickerWrapper::init()
    .\objects\mbed_lp_ticker_wrapper.o(i._Z22lp_ticker_wrapper_initv) refers to .\objects\mbed_lp_ticker_wrapper.o(.data) for ticker_wrapper
    .\objects\mbed_lp_ticker_wrapper.o(i._Z22lp_ticker_wrapper_readv) refers to .\objects\lowpowertickerwrapper.o(i._ZN21LowPowerTickerWrapper4readEv) for LowPowerTickerWrapper::read()
    .\objects\mbed_lp_ticker_wrapper.o(i._Z22lp_ticker_wrapper_readv) refers to .\objects\mbed_lp_ticker_wrapper.o(.data) for ticker_wrapper
    .\objects\mbed_lp_ticker_wrapper.o(i._Z26lp_ticker_wrapper_get_infov) refers to .\objects\lowpowertickerwrapper.o(i._ZN21LowPowerTickerWrapper8get_infoEv) for LowPowerTickerWrapper::get_info()
    .\objects\mbed_lp_ticker_wrapper.o(i._Z26lp_ticker_wrapper_get_infov) refers to .\objects\mbed_lp_ticker_wrapper.o(.data) for ticker_wrapper
    .\objects\mbed_lp_ticker_wrapper.o(i._Z31lp_ticker_wrapper_set_interruptj) refers to .\objects\lowpowertickerwrapper.o(i._ZN21LowPowerTickerWrapper13set_interruptEj) for LowPowerTickerWrapper::set_interrupt(unsigned)
    .\objects\mbed_lp_ticker_wrapper.o(i._Z31lp_ticker_wrapper_set_interruptj) refers to .\objects\mbed_lp_ticker_wrapper.o(.data) for ticker_wrapper
    .\objects\mbed_lp_ticker_wrapper.o(i._Z32lp_ticker_wrapper_fire_interruptv) refers to .\objects\lowpowertickerwrapper.o(i._ZN21LowPowerTickerWrapper14fire_interruptEv) for LowPowerTickerWrapper::fire_interrupt()
    .\objects\mbed_lp_ticker_wrapper.o(i._Z32lp_ticker_wrapper_fire_interruptv) refers to .\objects\mbed_lp_ticker_wrapper.o(.data) for ticker_wrapper
    .\objects\mbed_lp_ticker_wrapper.o(i._Z33lp_ticker_wrapper_clear_interruptv) refers to .\objects\lowpowertickerwrapper.o(i._ZN21LowPowerTickerWrapper15clear_interruptEv) for LowPowerTickerWrapper::clear_interrupt()
    .\objects\mbed_lp_ticker_wrapper.o(i._Z33lp_ticker_wrapper_clear_interruptv) refers to .\objects\mbed_lp_ticker_wrapper.o(.data) for ticker_wrapper
    .\objects\mbed_lp_ticker_wrapper.o(i._Z35lp_ticker_wrapper_disable_interruptv) refers to .\objects\lowpowertickerwrapper.o(i._ZN21LowPowerTickerWrapper17disable_interruptEv) for LowPowerTickerWrapper::disable_interrupt()
    .\objects\mbed_lp_ticker_wrapper.o(i._Z35lp_ticker_wrapper_disable_interruptv) refers to .\objects\mbed_lp_ticker_wrapper.o(.data) for ticker_wrapper
    .\objects\mbed_lp_ticker_wrapper.o(i.get_lp_ticker_wrapper_data) refers to .\objects\mbed_critical.o(i.core_util_critical_section_enter) for core_util_critical_section_enter
    .\objects\mbed_lp_ticker_wrapper.o(i.get_lp_ticker_wrapper_data) refers to .\objects\lowpowertickerwrapper.o(i._ZN21LowPowerTickerWrapperC1EPK13ticker_data_tPK18ticker_interface_tjj) for LowPowerTickerWrapper::LowPowerTickerWrapper(const ticker_data_t*, const ticker_interface_t*, unsigned, unsigned)
    .\objects\mbed_lp_ticker_wrapper.o(i.get_lp_ticker_wrapper_data) refers to .\objects\mbed_critical.o(i.core_util_critical_section_exit) for core_util_critical_section_exit
    .\objects\mbed_lp_ticker_wrapper.o(i.get_lp_ticker_wrapper_data) refers to .\objects\mbed_lp_ticker_wrapper.o(.data) for init
    .\objects\mbed_lp_ticker_wrapper.o(i.get_lp_ticker_wrapper_data) refers to .\objects\mbed_lp_ticker_wrapper.o(.bss) for ticker_wrapper_data
    .\objects\mbed_lp_ticker_wrapper.o(i.get_lp_ticker_wrapper_data) refers to .\objects\mbed_lp_ticker_wrapper.o(.constdata) for lp_interface
    .\objects\mbed_lp_ticker_wrapper.o(i.lp_ticker_wrapper_irq_handler) refers to .\objects\mbed_critical.o(i.core_util_critical_section_enter) for core_util_critical_section_enter
    .\objects\mbed_lp_ticker_wrapper.o(i.lp_ticker_wrapper_irq_handler) refers to .\objects\mbed_lp_ticker_api.o(i.get_lp_ticker_data) for get_lp_ticker_data
    .\objects\mbed_lp_ticker_wrapper.o(i.lp_ticker_wrapper_irq_handler) refers to .\objects\lowpowertickerwrapper.o(i._ZN21LowPowerTickerWrapper11irq_handlerEPFvPK13ticker_data_tE) for LowPowerTickerWrapper::irq_handler(void(*)(const ticker_data_t*))
    .\objects\mbed_lp_ticker_wrapper.o(i.lp_ticker_wrapper_irq_handler) refers to .\objects\mbed_critical.o(i.core_util_critical_section_exit) for core_util_critical_section_exit
    .\objects\mbed_lp_ticker_wrapper.o(i.lp_ticker_wrapper_irq_handler) refers to .\objects\mbed_lp_ticker_wrapper.o(.data) for init
    .\objects\mbed_lp_ticker_wrapper.o(i.lp_ticker_wrapper_resume) refers to .\objects\mbed_lp_ticker_api.o(i.get_lp_ticker_data) for get_lp_ticker_data
    .\objects\mbed_lp_ticker_wrapper.o(i.lp_ticker_wrapper_resume) refers to .\objects\lowpowertickerwrapper.o(i._ZN21LowPowerTickerWrapper6resumeEv) for LowPowerTickerWrapper::resume()
    .\objects\mbed_lp_ticker_wrapper.o(i.lp_ticker_wrapper_resume) refers to .\objects\mbed_lp_ticker_wrapper.o(.data) for init
    .\objects\mbed_lp_ticker_wrapper.o(i.lp_ticker_wrapper_suspend) refers to .\objects\mbed_lp_ticker_api.o(i.get_lp_ticker_data) for get_lp_ticker_data
    .\objects\mbed_lp_ticker_wrapper.o(i.lp_ticker_wrapper_suspend) refers to .\objects\lowpowertickerwrapper.o(i._ZN21LowPowerTickerWrapper7suspendEv) for LowPowerTickerWrapper::suspend()
    .\objects\mbed_lp_ticker_wrapper.o(i.lp_ticker_wrapper_suspend) refers to .\objects\mbed_lp_ticker_wrapper.o(.data) for init
    .\objects\mbed_lp_ticker_wrapper.o(.ARM.exidx) refers to .\objects\mbed_lp_ticker_wrapper.o(i._Z22lp_ticker_wrapper_initv) for i._Z22lp_ticker_wrapper_initv
    .\objects\mbed_lp_ticker_wrapper.o(.ARM.exidx) refers to .\objects\mbed_lp_ticker_wrapper.o(i._Z22lp_ticker_wrapper_readv) for i._Z22lp_ticker_wrapper_readv
    .\objects\mbed_lp_ticker_wrapper.o(.ARM.exidx) refers to .\objects\mbed_lp_ticker_wrapper.o(i._Z31lp_ticker_wrapper_set_interruptj) for i._Z31lp_ticker_wrapper_set_interruptj
    .\objects\mbed_lp_ticker_wrapper.o(.ARM.exidx) refers to .\objects\mbed_lp_ticker_wrapper.o(i._Z35lp_ticker_wrapper_disable_interruptv) for i._Z35lp_ticker_wrapper_disable_interruptv
    .\objects\mbed_lp_ticker_wrapper.o(.ARM.exidx) refers to .\objects\mbed_lp_ticker_wrapper.o(i._Z33lp_ticker_wrapper_clear_interruptv) for i._Z33lp_ticker_wrapper_clear_interruptv
    .\objects\mbed_lp_ticker_wrapper.o(.ARM.exidx) refers to .\objects\mbed_lp_ticker_wrapper.o(i._Z32lp_ticker_wrapper_fire_interruptv) for i._Z32lp_ticker_wrapper_fire_interruptv
    .\objects\mbed_lp_ticker_wrapper.o(.ARM.exidx) refers to .\objects\mbed_lp_ticker_wrapper.o(i._Z26lp_ticker_wrapper_get_infov) for i._Z26lp_ticker_wrapper_get_infov
    .\objects\mbed_lp_ticker_wrapper.o(.ARM.exidx) refers to .\objects\mbed_lp_ticker_wrapper.o(i._Z22lp_ticker_wrapper_freev) for i._Z22lp_ticker_wrapper_freev
    .\objects\mbed_lp_ticker_wrapper.o(.ARM.exidx) refers to .\objects\mbed_lp_ticker_wrapper.o(i.lp_ticker_wrapper_irq_handler) for i.lp_ticker_wrapper_irq_handler
    .\objects\mbed_lp_ticker_wrapper.o(.ARM.exidx) refers to .\objects\mbed_lp_ticker_wrapper.o(i.get_lp_ticker_wrapper_data) for i.get_lp_ticker_wrapper_data
    .\objects\mbed_lp_ticker_wrapper.o(.ARM.exidx) refers to .\objects\mbed_lp_ticker_wrapper.o(i.lp_ticker_wrapper_suspend) for i.lp_ticker_wrapper_suspend
    .\objects\mbed_lp_ticker_wrapper.o(.ARM.exidx) refers to .\objects\mbed_lp_ticker_wrapper.o(i.lp_ticker_wrapper_resume) for i.lp_ticker_wrapper_resume
    .\objects\mbed_lp_ticker_wrapper.o(.constdata) refers to .\objects\mbed_lp_ticker_wrapper.o(i._Z22lp_ticker_wrapper_initv) for lp_ticker_wrapper_init()
    .\objects\mbed_lp_ticker_wrapper.o(.constdata) refers to .\objects\mbed_lp_ticker_wrapper.o(i._Z22lp_ticker_wrapper_readv) for lp_ticker_wrapper_read()
    .\objects\mbed_lp_ticker_wrapper.o(.constdata) refers to .\objects\mbed_lp_ticker_wrapper.o(i._Z35lp_ticker_wrapper_disable_interruptv) for lp_ticker_wrapper_disable_interrupt()
    .\objects\mbed_lp_ticker_wrapper.o(.constdata) refers to .\objects\mbed_lp_ticker_wrapper.o(i._Z33lp_ticker_wrapper_clear_interruptv) for lp_ticker_wrapper_clear_interrupt()
    .\objects\mbed_lp_ticker_wrapper.o(.constdata) refers to .\objects\mbed_lp_ticker_wrapper.o(i._Z31lp_ticker_wrapper_set_interruptj) for lp_ticker_wrapper_set_interrupt(unsigned)
    .\objects\mbed_lp_ticker_wrapper.o(.constdata) refers to .\objects\mbed_lp_ticker_wrapper.o(i._Z32lp_ticker_wrapper_fire_interruptv) for lp_ticker_wrapper_fire_interrupt()
    .\objects\mbed_lp_ticker_wrapper.o(.constdata) refers to .\objects\mbed_lp_ticker_wrapper.o(i._Z22lp_ticker_wrapper_freev) for lp_ticker_wrapper_free()
    .\objects\mbed_lp_ticker_wrapper.o(.constdata) refers to .\objects\mbed_lp_ticker_wrapper.o(i._Z26lp_ticker_wrapper_get_infov) for lp_ticker_wrapper_get_info()
    .\objects\mbed_application.o(i.mbed_start_application) refers to .\objects\mbed_application.o(i.powerdown_nvic) for powerdown_nvic
    .\objects\mbed_application.o(i.mbed_start_application) refers to .\objects\mbed_application.o(i.powerdown_scb) for powerdown_scb
    .\objects\mbed_application.o(i.mbed_start_application) refers to .\objects\mbed_application.o(.emb_text) for __asm___18_mbed_application_c_4c27bb74__start_new_application
    .\objects\mbed_assert.o(i.mbed_assert_internal) refers to .\objects\mbed_critical.o(i.core_util_critical_section_enter) for core_util_critical_section_enter
    .\objects\mbed_assert.o(i.mbed_assert_internal) refers to .\objects\mbed_board.o(i.mbed_error_printf) for mbed_error_printf
    .\objects\mbed_assert.o(i.mbed_assert_internal) refers to .\objects\mbed_board.o(i.mbed_die) for mbed_die
    .\objects\mbed_board.o(i.mbed_die) refers to .\objects\mbed_critical.o(i.core_util_critical_section_enter) for core_util_critical_section_enter
    .\objects\mbed_board.o(i.mbed_die) refers to .\objects\mbed_gpio.o(i.gpio_init_out) for gpio_init_out
    .\objects\mbed_board.o(i.mbed_die) refers to .\objects\mbed_board.o(i.gpio_write) for gpio_write
    .\objects\mbed_board.o(i.mbed_die) refers to .\objects\mbed_wait_api_rtos.o(i.wait_ms) for wait_ms
    .\objects\mbed_board.o(i.mbed_error_printf) refers to .\objects\mbed_board.o(i.mbed_error_vfprintf) for mbed_error_vfprintf
    .\objects\mbed_board.o(i.mbed_error_vfprintf) refers to .\objects\mbed_critical.o(i.core_util_critical_section_enter) for core_util_critical_section_enter
    .\objects\mbed_board.o(i.mbed_error_vfprintf) refers to D:\ProgramFiles\Keil_v5\ARM\ARMCC\Bin\..\lib\armlib\c_w.l(vsnprintf.o)(.text) for vsnprintf
    .\objects\mbed_board.o(i.mbed_error_vfprintf) refers to .\objects\serial_api.o(i.serial_init) for serial_init
    .\objects\mbed_board.o(i.mbed_error_vfprintf) refers to .\objects\serial_device.o(i.serial_putc) for serial_putc
    .\objects\mbed_board.o(i.mbed_error_vfprintf) refers to .\objects\mbed_critical.o(i.core_util_critical_section_exit) for core_util_critical_section_exit
    .\objects\mbed_board.o(i.mbed_error_vfprintf) refers to .\objects\serial_api.o(.data) for stdio_uart_inited
    .\objects\mbed_board.o(i.mbed_error_vfprintf) refers to .\objects\serial_api.o(.bss) for stdio_uart
    .\objects\mbed_critical.o(i.core_util_atomic_cas_ptr) refers to .\objects\mbed_critical.o(i.core_util_atomic_cas_u32) for core_util_atomic_cas_u32
    .\objects\mbed_critical.o(i.core_util_atomic_decr_ptr) refers to .\objects\mbed_critical.o(i.core_util_atomic_decr_u32) for core_util_atomic_decr_u32
    .\objects\mbed_critical.o(i.core_util_atomic_incr_ptr) refers to .\objects\mbed_critical.o(i.core_util_atomic_incr_u32) for core_util_atomic_incr_u32
    .\objects\mbed_critical.o(i.core_util_critical_section_enter) refers to .\objects\mbed_assert.o(i.mbed_assert_internal) for mbed_assert_internal
    .\objects\mbed_critical.o(i.core_util_critical_section_enter) refers to .\objects\mbed_critical_section_api.o(i.hal_critical_section_enter) for hal_critical_section_enter
    .\objects\mbed_critical.o(i.core_util_critical_section_enter) refers to .\objects\mbed_critical.o(.data) for critical_section_reentrancy_counter
    .\objects\mbed_critical.o(i.core_util_critical_section_exit) refers to .\objects\mbed_critical_section_api.o(i.hal_critical_section_exit) for hal_critical_section_exit
    .\objects\mbed_critical.o(i.core_util_critical_section_exit) refers to .\objects\mbed_critical.o(.data) for critical_section_reentrancy_counter
    .\objects\mbed_critical.o(i.core_util_in_critical_section) refers to .\objects\mbed_critical_section_api.o(i.hal_in_critical_section) for hal_in_critical_section
    .\objects\mbed_error.o(i.error) refers to .\objects\mbed_error.o(i.handle_error) for handle_error
    .\objects\mbed_error.o(i.error) refers to .\objects\mbed_error.o(i.print_error_report) for print_error_report
    .\objects\mbed_error.o(i.error) refers to .\objects\mbed_board.o(i.mbed_error_vfprintf) for mbed_error_vfprintf
    .\objects\mbed_error.o(i.error) refers to .\objects\mbed_retarget.o(i.exit) for exit
    .\objects\mbed_error.o(i.error) refers to .\objects\mbed_error.o(.data) for error_in_progress
    .\objects\mbed_error.o(i.error) refers to .\objects\mbed_error.o(.bss) for last_error_ctx
    .\objects\mbed_error.o(i.handle_error) refers to .\objects\mbed_critical.o(i.core_util_critical_section_enter) for core_util_critical_section_enter
    .\objects\mbed_error.o(i.handle_error) refers to .\objects\mbed_critical.o(i.core_util_critical_section_exit) for core_util_critical_section_exit
    .\objects\mbed_error.o(i.handle_error) refers to D:\ProgramFiles\Keil_v5\ARM\ARMCC\Bin\..\lib\armlib\c_w.l(aeabi_memset.o)(.text) for __aeabi_memset
    .\objects\mbed_error.o(i.handle_error) refers to D:\ProgramFiles\Keil_v5\ARM\ARMCC\Bin\..\lib\armlib\c_w.l(rt_memcpy_w.o)(.text) for __aeabi_memcpy4
    .\objects\mbed_error.o(i.handle_error) refers to .\objects\mbed_error.o(.data) for error_in_progress
    .\objects\mbed_error.o(i.handle_error) refers to .\objects\rtx_kernel.o(.data.os) for osRtxInfo
    .\objects\mbed_error.o(i.handle_error) refers to .\objects\mbed_error.o(.bss) for first_error_ctx
    .\objects\mbed_error.o(i.mbed_clear_all_errors) refers to .\objects\mbed_critical.o(i.core_util_critical_section_enter) for core_util_critical_section_enter
    .\objects\mbed_error.o(i.mbed_clear_all_errors) refers to D:\ProgramFiles\Keil_v5\ARM\ARMCC\Bin\..\lib\armlib\c_w.l(aeabi_memset.o)(.text) for __aeabi_memset
    .\objects\mbed_error.o(i.mbed_clear_all_errors) refers to .\objects\mbed_critical.o(i.core_util_critical_section_exit) for core_util_critical_section_exit
    .\objects\mbed_error.o(i.mbed_clear_all_errors) refers to .\objects\mbed_error.o(.bss) for last_error_ctx
    .\objects\mbed_error.o(i.mbed_clear_all_errors) refers to .\objects\mbed_error.o(.data) for error_count
    .\objects\mbed_error.o(i.mbed_error) refers to .\objects\mbed_error.o(i.handle_error) for handle_error
    .\objects\mbed_error.o(i.mbed_error) refers to .\objects\mbed_error.o(i.print_error_report) for print_error_report
    .\objects\mbed_error.o(i.mbed_error) refers to .\objects\mbed_error.o(i.mbed_halt_system) for mbed_halt_system
    .\objects\mbed_error.o(i.mbed_error) refers to .\objects\mbed_error.o(.bss) for last_error_ctx
    .\objects\mbed_error.o(i.mbed_get_error_count) refers to .\objects\mbed_error.o(.data) for error_count
    .\objects\mbed_error.o(i.mbed_get_first_error) refers to .\objects\mbed_error.o(.bss) for first_error_ctx
    .\objects\mbed_error.o(i.mbed_get_first_error_info) refers to D:\ProgramFiles\Keil_v5\ARM\ARMCC\Bin\..\lib\armlib\c_w.l(rt_memcpy_w.o)(.text) for __aeabi_memcpy4
    .\objects\mbed_error.o(i.mbed_get_first_error_info) refers to .\objects\mbed_error.o(.bss) for first_error_ctx
    .\objects\mbed_error.o(i.mbed_get_last_error) refers to .\objects\mbed_error.o(.bss) for last_error_ctx
    .\objects\mbed_error.o(i.mbed_get_last_error_info) refers to D:\ProgramFiles\Keil_v5\ARM\ARMCC\Bin\..\lib\armlib\c_w.l(rt_memcpy_w.o)(.text) for __aeabi_memcpy4
    .\objects\mbed_error.o(i.mbed_get_last_error_info) refers to .\objects\mbed_error.o(.bss) for last_error_ctx
    .\objects\mbed_error.o(i.mbed_halt_system) refers to .\objects\mbed_critical.o(i.core_util_is_isr_active) for core_util_is_isr_active
    .\objects\mbed_error.o(i.mbed_halt_system) refers to .\objects\mbed_critical.o(i.core_util_are_interrupts_enabled) for core_util_are_interrupts_enabled
    .\objects\mbed_error.o(i.mbed_halt_system) refers to .\objects\mbed_retarget.o(i.exit) for exit
    .\objects\mbed_error.o(i.mbed_set_error_hook) refers to .\objects\mbed_error.o(.data) for error_hook
    .\objects\mbed_error.o(i.mbed_warning) refers to .\objects\mbed_error.o(i.handle_error) for handle_error
    .\objects\mbed_error.o(i.print_error_report) refers to .\objects\mbed_board.o(i.mbed_error_printf) for mbed_error_printf
    .\objects\mbed_error.o(i.print_error_report) refers to .\objects\mbed_error.o(.conststring) for .conststring
    .\objects\mbed_mktime.o(i._rtc_localtime) refers to .\objects\mbed_mktime.o(i._rtc_is_leap_year) for _rtc_is_leap_year
    .\objects\mbed_mktime.o(i._rtc_localtime) refers to .\objects\mbed_mktime.o(.constdata) for seconds_before_month
    .\objects\mbed_mktime.o(i._rtc_maketime) refers to .\objects\mbed_mktime.o(i._rtc_is_leap_year) for _rtc_is_leap_year
    .\objects\mbed_mktime.o(i._rtc_maketime) refers to .\objects\mbed_mktime.o(.constdata) for seconds_before_month
    .\objects\mbed_stats.o(i.mbed_stats_cpu_get) refers to .\objects\mbed_assert.o(i.mbed_assert_internal) for mbed_assert_internal
    .\objects\mbed_stats.o(i.mbed_stats_cpu_get) refers to D:\ProgramFiles\Keil_v5\ARM\ARMCC\Bin\..\lib\armlib\c_w.l(rt_memclr_w.o)(.text) for __aeabi_memclr4
    .\objects\mbed_stats.o(i.mbed_stats_stack_get) refers to .\objects\mbed_assert.o(i.mbed_assert_internal) for mbed_assert_internal
    .\objects\mbed_stats.o(i.mbed_stats_stack_get_each) refers to .\objects\mbed_assert.o(i.mbed_assert_internal) for mbed_assert_internal
    .\objects\mbed_stats.o(i.mbed_stats_stack_get_each) refers to D:\ProgramFiles\Keil_v5\ARM\ARMCC\Bin\..\lib\armlib\c_w.l(rt_memclr_w.o)(.text) for __aeabi_memclr4
    .\objects\mbed_stats.o(i.mbed_stats_sys_get) refers to .\objects\mbed_assert.o(i.mbed_assert_internal) for mbed_assert_internal
    .\objects\mbed_stats.o(i.mbed_stats_thread_get_each) refers to .\objects\mbed_assert.o(i.mbed_assert_internal) for mbed_assert_internal
    .\objects\mbed_stats.o(i.mbed_stats_thread_get_each) refers to D:\ProgramFiles\Keil_v5\ARM\ARMCC\Bin\..\lib\armlib\c_w.l(rt_memclr_w.o)(.text) for __aeabi_memclr4
    .\objects\atcmdparser.o(i._Z8debug_ifiPKcz) refers to D:\ProgramFiles\Keil_v5\ARM\ARMCC\Bin\..\lib\armlib\c_w.l(c89vfprintf.o)(.text) for __c89vfprintf
    .\objects\atcmdparser.o(i._Z8debug_ifiPKcz) refers to D:\ProgramFiles\Keil_v5\ARM\ARMCC\Bin\..\lib\armlib\c_w.l(stdio_streams.o)(.bss) for __stderr
    .\objects\atcmdparser.o(i._ZN4mbed11ATCmdParser11process_oobEv) refers to .\objects\atcmdparser.o(i._ZNK4mbed10FileHandle8readableEv) for mbed::FileHandle::readable() const
    .\objects\atcmdparser.o(i._ZN4mbed11ATCmdParser11process_oobEv) refers to .\objects\atcmdparser.o(i._ZN4mbed11ATCmdParser4getcEv) for mbed::ATCmdParser::getc()
    .\objects\atcmdparser.o(i._ZN4mbed11ATCmdParser11process_oobEv) refers to D:\ProgramFiles\Keil_v5\ARM\ARMCC\Bin\..\lib\armlib\c_w.l(memcmp.o)(.text) for memcmp
    .\objects\atcmdparser.o(i._ZN4mbed11ATCmdParser11process_oobEv) refers to .\objects\atcmdparser.o(i._Z8debug_ifiPKcz) for debug_if(int, const char*, ...)
    .\objects\atcmdparser.o(i._ZN4mbed11ATCmdParser11process_oobEv) refers to .\objects\interruptin.o(t._ZNK4mbed8CallbackIFvvEEclEv) for mbed::Callback<void()>::operator ()() const
    .\objects\atcmdparser.o(i._ZN4mbed11ATCmdParser3oobEPKcNS_8CallbackIFvvEEE) refers to .\objects\mbed_retarget.o(i._Znwj) for operator new(unsigned)
    .\objects\atcmdparser.o(i._ZN4mbed11ATCmdParser3oobEPKcNS_8CallbackIFvvEEE) refers to D:\ProgramFiles\Keil_v5\ARM\ARMCC\Bin\..\lib\armlib\c_w.l(strlen.o)(.text) for strlen
    .\objects\atcmdparser.o(i._ZN4mbed11ATCmdParser3oobEPKcNS_8CallbackIFvvEEE) refers to .\objects\can.o(t._ZN4mbed8CallbackIFvvEEaSERKS2_) for mbed::Callback<void()>::operator =(const mbed::Callback<void()>&)
    .\objects\atcmdparser.o(i._ZN4mbed11ATCmdParser3oobEPKcNS_8CallbackIFvvEEE) refers to .\objects\can.o(.constdata__ZZN4mbed8CallbackIFvvEE8generateIPS1_EEvRKT_E3ops) for void mbed::Callback<void()>::generate<void(*)()>(const T1&)::ops
    .\objects\atcmdparser.o(i._ZN4mbed11ATCmdParser4getcEv) refers to .\objects\mbed_poll.o(i._ZN4mbed4pollEPNS_6pollfhEji) for mbed::poll(mbed::pollfh*, unsigned, int)
    .\objects\atcmdparser.o(i._ZN4mbed11ATCmdParser4putcEc) refers to .\objects\mbed_poll.o(i._ZN4mbed4pollEPNS_6pollfhEji) for mbed::poll(mbed::pollfh*, unsigned, int)
    .\objects\atcmdparser.o(i._ZN4mbed11ATCmdParser4readEPci) refers to .\objects\atcmdparser.o(i._ZN4mbed11ATCmdParser4getcEv) for mbed::ATCmdParser::getc()
    .\objects\atcmdparser.o(i._ZN4mbed11ATCmdParser4recvEPKcz) refers to .\objects\atcmdparser.o(i._ZN4mbed11ATCmdParser5vrecvEPKcSt9__va_list) for mbed::ATCmdParser::vrecv(const char*, std::__va_list)
    .\objects\atcmdparser.o(i._ZN4mbed11ATCmdParser4sendEPKcz) refers to .\objects\atcmdparser.o(i._ZN4mbed11ATCmdParser5vsendEPKcSt9__va_list) for mbed::ATCmdParser::vsend(const char*, std::__va_list)
    .\objects\atcmdparser.o(i._ZN4mbed11ATCmdParser5flushEv) refers to .\objects\atcmdparser.o(i._ZNK4mbed10FileHandle8readableEv) for mbed::FileHandle::readable() const
    .\objects\atcmdparser.o(i._ZN4mbed11ATCmdParser5scanfEPKcz) refers to .\objects\atcmdparser.o(i._ZN4mbed11ATCmdParser6vscanfEPKcSt9__va_list) for mbed::ATCmdParser::vscanf(const char*, std::__va_list)
    .\objects\atcmdparser.o(i._ZN4mbed11ATCmdParser5vrecvEPKcSt9__va_list) refers to .\objects\atcmdparser.o(i._Z8debug_ifiPKcz) for debug_if(int, const char*, ...)
    .\objects\atcmdparser.o(i._ZN4mbed11ATCmdParser5vrecvEPKcSt9__va_list) refers to .\objects\atcmdparser.o(i._ZN4mbed11ATCmdParser4getcEv) for mbed::ATCmdParser::getc()
    .\objects\atcmdparser.o(i._ZN4mbed11ATCmdParser5vrecvEPKcSt9__va_list) refers to D:\ProgramFiles\Keil_v5\ARM\ARMCC\Bin\..\lib\armlib\c_w.l(memcmp.o)(.text) for memcmp
    .\objects\atcmdparser.o(i._ZN4mbed11ATCmdParser5vrecvEPKcSt9__va_list) refers to .\objects\interruptin.o(t._ZNK4mbed8CallbackIFvvEEclEv) for mbed::Callback<void()>::operator ()() const
    .\objects\atcmdparser.o(i._ZN4mbed11ATCmdParser5vrecvEPKcSt9__va_list) refers to D:\ProgramFiles\Keil_v5\ARM\ARMCC\Bin\..\lib\armlib\c_w.l(sscanf.o)(.text) for sscanf
    .\objects\atcmdparser.o(i._ZN4mbed11ATCmdParser5vrecvEPKcSt9__va_list) refers to D:\ProgramFiles\Keil_v5\ARM\ARMCC\Bin\..\lib\armlib\c_w.l(rt_memcpy_v6.o)(.text) for __aeabi_memcpy
    .\objects\atcmdparser.o(i._ZN4mbed11ATCmdParser5vrecvEPKcSt9__va_list) refers to D:\ProgramFiles\Keil_v5\ARM\ARMCC\Bin\..\lib\armlib\c_w.l(vsscanf.o)(.text) for vsscanf
    .\objects\atcmdparser.o(i._ZN4mbed11ATCmdParser5vsendEPKcSt9__va_list) refers to D:\ProgramFiles\Keil_v5\ARM\ARMCC\Bin\..\lib\armlib\c_w.l(c89vsprintf.o)(.text) for __c89vsprintf
    .\objects\atcmdparser.o(i._ZN4mbed11ATCmdParser5vsendEPKcSt9__va_list) refers to .\objects\atcmdparser.o(i._ZN4mbed11ATCmdParser4putcEc) for mbed::ATCmdParser::putc(char)
    .\objects\atcmdparser.o(i._ZN4mbed11ATCmdParser5vsendEPKcSt9__va_list) refers to .\objects\atcmdparser.o(i._Z8debug_ifiPKcz) for debug_if(int, const char*, ...)
    .\objects\atcmdparser.o(i._ZN4mbed11ATCmdParser5writeEPKci) refers to .\objects\atcmdparser.o(i._ZN4mbed11ATCmdParser4putcEc) for mbed::ATCmdParser::putc(char)
    .\objects\atcmdparser.o(i._ZN4mbed11ATCmdParser6printfEPKcz) refers to .\objects\atcmdparser.o(i._ZN4mbed11ATCmdParser7vprintfEPKcSt9__va_list) for mbed::ATCmdParser::vprintf(const char*, std::__va_list)
    .\objects\atcmdparser.o(i._ZN4mbed11ATCmdParser6vscanfEPKcSt9__va_list) refers to .\objects\atcmdparser.o(i._ZN4mbed11ATCmdParser4getcEv) for mbed::ATCmdParser::getc()
    .\objects\atcmdparser.o(i._ZN4mbed11ATCmdParser6vscanfEPKcSt9__va_list) refers to D:\ProgramFiles\Keil_v5\ARM\ARMCC\Bin\..\lib\armlib\c_w.l(sscanf.o)(.text) for sscanf
    .\objects\atcmdparser.o(i._ZN4mbed11ATCmdParser6vscanfEPKcSt9__va_list) refers to D:\ProgramFiles\Keil_v5\ARM\ARMCC\Bin\..\lib\armlib\c_w.l(vsscanf.o)(.text) for vsscanf
    .\objects\atcmdparser.o(i._ZN4mbed11ATCmdParser7vprintfEPKcSt9__va_list) refers to D:\ProgramFiles\Keil_v5\ARM\ARMCC\Bin\..\lib\armlib\c_w.l(c89vsprintf.o)(.text) for __c89vsprintf
    .\objects\atcmdparser.o(i._ZN4mbed11ATCmdParser7vprintfEPKcSt9__va_list) refers to .\objects\atcmdparser.o(i._ZN4mbed11ATCmdParser4putcEc) for mbed::ATCmdParser::putc(char)
    .\objects\atcmdparser.o(.ARM.exidx) refers to .\objects\atcmdparser.o(i._Z8debug_ifiPKcz) for i._Z8debug_ifiPKcz
    .\objects\atcmdparser.o(.ARM.exidx) refers to .\objects\atcmdparser.o(i._ZN4mbed11ATCmdParser4putcEc) for i._ZN4mbed11ATCmdParser4putcEc
    .\objects\atcmdparser.o(.ARM.exidx) refers to .\objects\atcmdparser.o(i._ZN4mbed11ATCmdParser5vsendEPKcSt9__va_list) for i._ZN4mbed11ATCmdParser5vsendEPKcSt9__va_list
    .\objects\atcmdparser.o(.ARM.exidx) refers to .\objects\atcmdparser.o(i._ZN4mbed11ATCmdParser4sendEPKcz) for i._ZN4mbed11ATCmdParser4sendEPKcz
    .\objects\atcmdparser.o(.ARM.exidx) refers to .\objects\atcmdparser.o(i._ZN4mbed11ATCmdParser4getcEv) for i._ZN4mbed11ATCmdParser4getcEv
    .\objects\atcmdparser.o(.ARM.exidx) refers to .\objects\atcmdparser.o(i._ZN4mbed11ATCmdParser5vrecvEPKcSt9__va_list) for i._ZN4mbed11ATCmdParser5vrecvEPKcSt9__va_list
    .\objects\atcmdparser.o(.ARM.exidx) refers to .\objects\atcmdparser.o(i._ZN4mbed11ATCmdParser4recvEPKcz) for i._ZN4mbed11ATCmdParser4recvEPKcz
    .\objects\atcmdparser.o(.ARM.exidx) refers to .\objects\atcmdparser.o(i._ZN4mbed11ATCmdParser5writeEPKci) for i._ZN4mbed11ATCmdParser5writeEPKci
    .\objects\atcmdparser.o(.ARM.exidx) refers to .\objects\atcmdparser.o(i._ZN4mbed11ATCmdParser4readEPci) for i._ZN4mbed11ATCmdParser4readEPci
    .\objects\atcmdparser.o(.ARM.exidx) refers to .\objects\atcmdparser.o(i._ZN4mbed11ATCmdParser7vprintfEPKcSt9__va_list) for i._ZN4mbed11ATCmdParser7vprintfEPKcSt9__va_list
    .\objects\atcmdparser.o(.ARM.exidx) refers to .\objects\atcmdparser.o(i._ZN4mbed11ATCmdParser6printfEPKcz) for i._ZN4mbed11ATCmdParser6printfEPKcz
    .\objects\atcmdparser.o(.ARM.exidx) refers to .\objects\atcmdparser.o(i._ZN4mbed11ATCmdParser6vscanfEPKcSt9__va_list) for i._ZN4mbed11ATCmdParser6vscanfEPKcSt9__va_list
    .\objects\atcmdparser.o(.ARM.exidx) refers to .\objects\atcmdparser.o(i._ZN4mbed11ATCmdParser5scanfEPKcz) for i._ZN4mbed11ATCmdParser5scanfEPKcz
    .\objects\atcmdparser.o(.ARM.exidx) refers to .\objects\atcmdparser.o(i._ZN4mbed11ATCmdParser3oobEPKcNS_8CallbackIFvvEEE) for i._ZN4mbed11ATCmdParser3oobEPKcNS_8CallbackIFvvEEE
    .\objects\atcmdparser.o(.ARM.exidx) refers to .\objects\atcmdparser.o(i._ZN4mbed11ATCmdParser5flushEv) for i._ZN4mbed11ATCmdParser5flushEv
    .\objects\atcmdparser.o(.ARM.exidx) refers to .\objects\atcmdparser.o(i._ZN4mbed11ATCmdParser5abortEv) for i._ZN4mbed11ATCmdParser5abortEv
    .\objects\atcmdparser.o(.ARM.exidx) refers to .\objects\atcmdparser.o(i._ZN4mbed11ATCmdParser11process_oobEv) for i._ZN4mbed11ATCmdParser11process_oobEv
    .\objects\callchain.o(i._ZN4mbed9CallChain3addENS_8CallbackIFvvEEE) refers to .\objects\mbed_retarget.o(i._Znwj) for operator new(unsigned)
    .\objects\callchain.o(i._ZN4mbed9CallChain3addENS_8CallbackIFvvEEE) refers to .\objects\callchain.o(i._ZN4mbed13CallChainLinkC1ERNS_8CallbackIFvvEEE) for mbed::CallChainLink::CallChainLink(mbed::Callback<void()>&)
    .\objects\callchain.o(i._ZN4mbed9CallChain4callEv) refers to .\objects\mbed_assert.o(i.mbed_assert_internal) for mbed_assert_internal
    .\objects\callchain.o(i._ZN4mbed9CallChain4callEv) refers to .\objects\can.o(.constdata__ZZNK4mbed8CallbackIFvvEE4callEvEs_0) for mbed::Callback<void()>::call() const::string (instance 2)
    .\objects\callchain.o(i._ZN4mbed9CallChain4callEv) refers to .\objects\can.o(.constdata__ZZNK4mbed8CallbackIFvvEE4callEvEs) for mbed::Callback<void()>::call() const::string
    .\objects\callchain.o(i._ZN4mbed9CallChain5clearEv) refers to .\objects\callchain.o(i._ZN4mbed13CallChainLinkD1Ev) for mbed::CallChainLink::~CallChainLink()
    .\objects\callchain.o(i._ZN4mbed9CallChain5clearEv) refers to .\objects\mbed_retarget.o(i._ZdlPv) for operator delete (void*)
    .\objects\callchain.o(i._ZN4mbed9CallChain6removeEPNS_8CallbackIFvvEEE) refers to .\objects\callchain.o(i._ZN4mbed13CallChainLinkD1Ev) for mbed::CallChainLink::~CallChainLink()
    .\objects\callchain.o(i._ZN4mbed9CallChain6removeEPNS_8CallbackIFvvEEE) refers to .\objects\mbed_retarget.o(i._ZdlPv) for operator delete (void*)
    .\objects\callchain.o(i._ZN4mbed9CallChain9add_frontENS_8CallbackIFvvEEE) refers to .\objects\mbed_retarget.o(i._Znwj) for operator new(unsigned)
    .\objects\callchain.o(i._ZN4mbed9CallChain9add_frontENS_8CallbackIFvvEEE) refers to .\objects\callchain.o(i._ZN4mbed13CallChainLinkC1ERNS_8CallbackIFvvEEE) for mbed::CallChainLink::CallChainLink(mbed::Callback<void()>&)
    .\objects\callchain.o(i._ZN4mbed9CallChainC1Ei) refers to .\objects\callchain.o(.constdata__ZTVN4mbed9CallChainE) for vtable for mbed::CallChain
    .\objects\callchain.o(i._ZN4mbed9CallChainD0Ev) refers to .\objects\callchain.o(i._ZN4mbed9CallChainD1Ev) for mbed::CallChain::~CallChain()
    .\objects\callchain.o(i._ZN4mbed9CallChainD0Ev) refers to .\objects\mbed_retarget.o(i._ZdlPv) for operator delete (void*)
    .\objects\callchain.o(i._ZN4mbed9CallChainD1Ev) refers to .\objects\callchain.o(i._ZN4mbed9CallChain5clearEv) for mbed::CallChain::clear()
    .\objects\callchain.o(i._ZN4mbed9CallChainD1Ev) refers to .\objects\callchain.o(.constdata__ZTVN4mbed9CallChainE) for vtable for mbed::CallChain
    .\objects\callchain.o(.ARM.exidx) refers to .\objects\callchain.o(i._ZN4mbed9CallChainC1Ei) for i._ZN4mbed9CallChainC1Ei
    .\objects\callchain.o(.ARM.exidx) refers to .\objects\callchain.o(i._ZN4mbed9CallChain5clearEv) for i._ZN4mbed9CallChain5clearEv
    .\objects\callchain.o(.ARM.exidx) refers to .\objects\callchain.o(i._ZN4mbed9CallChainD1Ev) for i._ZN4mbed9CallChainD1Ev
    .\objects\callchain.o(.ARM.exidx) refers to .\objects\callchain.o(i._ZN4mbed9CallChainD0Ev) for i._ZN4mbed9CallChainD0Ev
    .\objects\callchain.o(.ARM.exidx) refers to .\objects\callchain.o(i._ZN4mbed9CallChain3addENS_8CallbackIFvvEEE) for i._ZN4mbed9CallChain3addENS_8CallbackIFvvEEE
    .\objects\callchain.o(.ARM.exidx) refers to .\objects\callchain.o(i._ZN4mbed9CallChain9add_frontENS_8CallbackIFvvEEE) for i._ZN4mbed9CallChain9add_frontENS_8CallbackIFvvEEE
    .\objects\callchain.o(.ARM.exidx) refers to .\objects\callchain.o(i._ZNK4mbed9CallChain4sizeEv) for i._ZNK4mbed9CallChain4sizeEv
    .\objects\callchain.o(.ARM.exidx) refers to .\objects\callchain.o(i._ZNK4mbed9CallChain3getEi) for i._ZNK4mbed9CallChain3getEi
    .\objects\callchain.o(.ARM.exidx) refers to .\objects\callchain.o(i._ZNK4mbed9CallChain4findEPNS_8CallbackIFvvEEE) for i._ZNK4mbed9CallChain4findEPNS_8CallbackIFvvEEE
    .\objects\callchain.o(.ARM.exidx) refers to .\objects\callchain.o(i._ZN4mbed9CallChain6removeEPNS_8CallbackIFvvEEE) for i._ZN4mbed9CallChain6removeEPNS_8CallbackIFvvEEE
    .\objects\callchain.o(.ARM.exidx) refers to .\objects\callchain.o(i._ZN4mbed9CallChain4callEv) for i._ZN4mbed9CallChain4callEv
    .\objects\filebase.o(i._ZN4mbed8FileBase14set_as_defaultEv) refers to .\objects\flashiap.o(t._ZN12SingletonPtrIN4rtos5MutexEEptEv) for SingletonPtr<rtos::Mutex>::operator ->()
    .\objects\filebase.o(i._ZN4mbed8FileBase14set_as_defaultEv) refers to .\objects\mutex.o(i._ZN4rtos5Mutex4lockEv) for rtos::Mutex::lock()
    .\objects\filebase.o(i._ZN4mbed8FileBase14set_as_defaultEv) refers to .\objects\mutex.o(i._ZN4rtos5Mutex6unlockEv) for rtos::Mutex::unlock()
    .\objects\filebase.o(i._ZN4mbed8FileBase14set_as_defaultEv) refers to .\objects\filebase.o(.bss) for mbed::FileBase::_mutex
    .\objects\filebase.o(i._ZN4mbed8FileBase14set_as_defaultEv) refers to .\objects\filebase.o(.data) for mbed::FileBase::_default
    .\objects\filebase.o(i._ZN4mbed8FileBase3getEi) refers to .\objects\flashiap.o(t._ZN12SingletonPtrIN4rtos5MutexEEptEv) for SingletonPtr<rtos::Mutex>::operator ->()
    .\objects\filebase.o(i._ZN4mbed8FileBase3getEi) refers to .\objects\mutex.o(i._ZN4rtos5Mutex4lockEv) for rtos::Mutex::lock()
    .\objects\filebase.o(i._ZN4mbed8FileBase3getEi) refers to .\objects\mutex.o(i._ZN4rtos5Mutex6unlockEv) for rtos::Mutex::unlock()
    .\objects\filebase.o(i._ZN4mbed8FileBase3getEi) refers to .\objects\filebase.o(.bss) for mbed::FileBase::_mutex
    .\objects\filebase.o(i._ZN4mbed8FileBase3getEi) refers to .\objects\filebase.o(.data) for mbed::FileBase::_head
    .\objects\filebase.o(i._ZN4mbed8FileBase6lookupEPKcj) refers to .\objects\flashiap.o(t._ZN12SingletonPtrIN4rtos5MutexEEptEv) for SingletonPtr<rtos::Mutex>::operator ->()
    .\objects\filebase.o(i._ZN4mbed8FileBase6lookupEPKcj) refers to .\objects\mutex.o(i._ZN4rtos5Mutex4lockEv) for rtos::Mutex::lock()
    .\objects\filebase.o(i._ZN4mbed8FileBase6lookupEPKcj) refers to D:\ProgramFiles\Keil_v5\ARM\ARMCC\Bin\..\lib\armlib\c_w.l(strlen.o)(.text) for strlen
    .\objects\filebase.o(i._ZN4mbed8FileBase6lookupEPKcj) refers to D:\ProgramFiles\Keil_v5\ARM\ARMCC\Bin\..\lib\armlib\c_w.l(memcmp.o)(.text) for memcmp
    .\objects\filebase.o(i._ZN4mbed8FileBase6lookupEPKcj) refers to .\objects\mutex.o(i._ZN4rtos5Mutex6unlockEv) for rtos::Mutex::unlock()
    .\objects\filebase.o(i._ZN4mbed8FileBase6lookupEPKcj) refers to .\objects\filebase.o(.bss) for mbed::FileBase::_mutex
    .\objects\filebase.o(i._ZN4mbed8FileBase6lookupEPKcj) refers to .\objects\filebase.o(.data) for mbed::FileBase::_head
    .\objects\filebase.o(i._ZN4mbed8FileBaseC1EPKcNS_8PathTypeE) refers to .\objects\flashiap.o(t._ZN12SingletonPtrIN4rtos5MutexEEptEv) for SingletonPtr<rtos::Mutex>::operator ->()
    .\objects\filebase.o(i._ZN4mbed8FileBaseC1EPKcNS_8PathTypeE) refers to .\objects\mutex.o(i._ZN4rtos5Mutex4lockEv) for rtos::Mutex::lock()
    .\objects\filebase.o(i._ZN4mbed8FileBaseC1EPKcNS_8PathTypeE) refers to .\objects\mutex.o(i._ZN4rtos5Mutex6unlockEv) for rtos::Mutex::unlock()
    .\objects\filebase.o(i._ZN4mbed8FileBaseC1EPKcNS_8PathTypeE) refers to .\objects\filebase.o(.constdata__ZTVN4mbed8FileBaseE) for vtable for mbed::FileBase
    .\objects\filebase.o(i._ZN4mbed8FileBaseC1EPKcNS_8PathTypeE) refers to .\objects\filebase.o(.bss) for mbed::FileBase::_mutex
    .\objects\filebase.o(i._ZN4mbed8FileBaseC1EPKcNS_8PathTypeE) refers to .\objects\filebase.o(.data) for mbed::FileBase::_head
    .\objects\filebase.o(i._ZN4mbed8FileBaseD0Ev) refers to .\objects\filebase.o(i._ZN4mbed8FileBaseD1Ev) for mbed::FileBase::~FileBase()
    .\objects\filebase.o(i._ZN4mbed8FileBaseD0Ev) refers to .\objects\mbed_retarget.o(i._ZdlPv) for operator delete (void*)
    .\objects\filebase.o(i._ZN4mbed8FileBaseD1Ev) refers to .\objects\flashiap.o(t._ZN12SingletonPtrIN4rtos5MutexEEptEv) for SingletonPtr<rtos::Mutex>::operator ->()
    .\objects\filebase.o(i._ZN4mbed8FileBaseD1Ev) refers to .\objects\mutex.o(i._ZN4rtos5Mutex4lockEv) for rtos::Mutex::lock()
    .\objects\filebase.o(i._ZN4mbed8FileBaseD1Ev) refers to .\objects\mutex.o(i._ZN4rtos5Mutex6unlockEv) for rtos::Mutex::unlock()
    .\objects\filebase.o(i._ZN4mbed8FileBaseD1Ev) refers to .\objects\filebase.o(i._ZN4mbed8FileBase11getPathTypeEv) for mbed::FileBase::getPathType()
    .\objects\filebase.o(i._ZN4mbed8FileBaseD1Ev) refers to .\objects\mbed_retarget.o(i._ZN4mbed17remove_filehandleEPNS_10FileHandleE) for mbed::remove_filehandle(mbed::FileHandle*)
    .\objects\filebase.o(i._ZN4mbed8FileBaseD1Ev) refers to .\objects\filebase.o(.constdata__ZTVN4mbed8FileBaseE) for vtable for mbed::FileBase
    .\objects\filebase.o(i._ZN4mbed8FileBaseD1Ev) refers to .\objects\filebase.o(.bss) for mbed::FileBase::_mutex
    .\objects\filebase.o(i._ZN4mbed8FileBaseD1Ev) refers to .\objects\filebase.o(.data) for mbed::FileBase::_head
    .\objects\filebase.o(.ARM.exidx) refers to .\objects\filebase.o(i._ZN4mbed8FileBaseC1EPKcNS_8PathTypeE) for i._ZN4mbed8FileBaseC1EPKcNS_8PathTypeE
    .\objects\filebase.o(.ARM.exidx) refers to .\objects\filebase.o(i._ZN4mbed8FileBase11getPathTypeEv) for i._ZN4mbed8FileBase11getPathTypeEv
    .\objects\filebase.o(.ARM.exidx) refers to .\objects\filebase.o(i._ZN4mbed8FileBaseD1Ev) for i._ZN4mbed8FileBaseD1Ev
    .\objects\filebase.o(.ARM.exidx) refers to .\objects\filebase.o(i._ZN4mbed8FileBaseD0Ev) for i._ZN4mbed8FileBaseD0Ev
    .\objects\filebase.o(.ARM.exidx) refers to .\objects\filebase.o(i._ZN4mbed8FileBase7getNameEv) for i._ZN4mbed8FileBase7getNameEv
    .\objects\filebase.o(.ARM.exidx) refers to .\objects\filebase.o(i._ZN4mbed8FileBase6lookupEPKcj) for i._ZN4mbed8FileBase6lookupEPKcj
    .\objects\filebase.o(.ARM.exidx) refers to .\objects\filebase.o(i._ZN4mbed8FileBase3getEi) for i._ZN4mbed8FileBase3getEi
    .\objects\filebase.o(.ARM.exidx) refers to .\objects\filebase.o(i._ZN4mbed8FileBase14set_as_defaultEv) for i._ZN4mbed8FileBase14set_as_defaultEv
    .\objects\filehandle.o(.ARM.exidx) refers to .\objects\filehandle.o(i._ZN4mbed10FileHandle4sizeEv) for i._ZN4mbed10FileHandle4sizeEv
    .\objects\filepath.o(i._ZN4mbed8FilePath10fileSystemEv) refers to .\objects\filepath.o(i._ZN4mbed8FilePath12isFileSystemEv) for mbed::FilePath::isFileSystem()
    .\objects\filepath.o(i._ZN4mbed8FilePath12isFileSystemEv) refers to .\objects\filebase.o(i._ZN4mbed8FileBase11getPathTypeEv) for mbed::FileBase::getPathType()
    .\objects\filepath.o(i._ZN4mbed8FilePath4fileEv) refers to .\objects\filepath.o(i._ZN4mbed8FilePath6isFileEv) for mbed::FilePath::isFile()
    .\objects\filepath.o(i._ZN4mbed8FilePath6isFileEv) refers to .\objects\filebase.o(i._ZN4mbed8FileBase11getPathTypeEv) for mbed::FileBase::getPathType()
    .\objects\filepath.o(i._ZN4mbed8FilePathC1EPKc) refers to D:\ProgramFiles\Keil_v5\ARM\ARMCC\Bin\..\lib\armlib\c_w.l(strspn.o)(.text) for strspn
    .\objects\filepath.o(i._ZN4mbed8FilePathC1EPKc) refers to .\objects\mbed_assert.o(i.mbed_assert_internal) for mbed_assert_internal
    .\objects\filepath.o(i._ZN4mbed8FilePathC1EPKc) refers to .\objects\filebase.o(i._ZN4mbed8FileBase6lookupEPKcj) for mbed::FileBase::lookup(const char*, unsigned)
    .\objects\filepath.o(.ARM.exidx) refers to .\objects\filepath.o(i._ZN4mbed8FilePathC1EPKc) for i._ZN4mbed8FilePathC1EPKc
    .\objects\filepath.o(.ARM.exidx) refers to .\objects\filepath.o(i._ZN4mbed8FilePath8fileNameEv) for i._ZN4mbed8FilePath8fileNameEv
    .\objects\filepath.o(.ARM.exidx) refers to .\objects\filepath.o(i._ZN4mbed8FilePath12isFileSystemEv) for i._ZN4mbed8FilePath12isFileSystemEv
    .\objects\filepath.o(.ARM.exidx) refers to .\objects\filepath.o(i._ZN4mbed8FilePath10fileSystemEv) for i._ZN4mbed8FilePath10fileSystemEv
    .\objects\filepath.o(.ARM.exidx) refers to .\objects\filepath.o(i._ZN4mbed8FilePath6isFileEv) for i._ZN4mbed8FilePath6isFileEv
    .\objects\filepath.o(.ARM.exidx) refers to .\objects\filepath.o(i._ZN4mbed8FilePath4fileEv) for i._ZN4mbed8FilePath4fileEv
    .\objects\filepath.o(.ARM.exidx) refers to .\objects\filepath.o(i._ZN4mbed8FilePath6existsEv) for i._ZN4mbed8FilePath6existsEv
    .\objects\filesystemhandle.o(.ARM.exidx) refers to .\objects\filesystemhandle.o(i._ZN4mbed16FileSystemHandle4openEPPNS_9DirHandleEPKc) for i._ZN4mbed16FileSystemHandle4openEPPNS_9DirHandleEPKc
    .\objects\filesystemhandle.o(.ARM.exidx) refers to .\objects\filesystemhandle.o(i._ZN4mbed16FileSystemHandle6removeEPKc) for i._ZN4mbed16FileSystemHandle6removeEPKc
    .\objects\filesystemhandle.o(.ARM.exidx) refers to .\objects\filesystemhandle.o(i._ZN4mbed16FileSystemHandle6renameEPKcS2_) for i._ZN4mbed16FileSystemHandle6renameEPKcS2_
    .\objects\filesystemhandle.o(.ARM.exidx) refers to .\objects\filesystemhandle.o(i._ZN4mbed16FileSystemHandle4statEPKcP4stat) for i._ZN4mbed16FileSystemHandle4statEPKcP4stat
    .\objects\filesystemhandle.o(.ARM.exidx) refers to .\objects\filesystemhandle.o(i._ZN4mbed16FileSystemHandle5mkdirEPKcj) for i._ZN4mbed16FileSystemHandle5mkdirEPKcj
    .\objects\filesystemhandle.o(.ARM.exidx) refers to .\objects\filesystemhandle.o(i._ZN4mbed16FileSystemHandle7statvfsEPKcP7statvfs) for i._ZN4mbed16FileSystemHandle7statvfsEPKcP7statvfs
    .\objects\mbed_alloc_wrappers.o(i.mbed_stats_heap_get) refers to D:\ProgramFiles\Keil_v5\ARM\ARMCC\Bin\..\lib\armlib\c_w.l(rt_memclr_w.o)(.text) for __aeabi_memclr4
    .\objects\mbed_alloc_wrappers.o(.ARM.exidx) refers to .\objects\mbed_alloc_wrappers.o(i.mbed_stats_heap_get) for i.mbed_stats_heap_get
    .\objects\mbed_mem_trace.o(i.mbed_mem_trace_calloc) refers to .\objects\mbed_mem_trace.o(.data) for mem_trace_cb
    .\objects\mbed_mem_trace.o(i.mbed_mem_trace_default_callback) refers to D:\ProgramFiles\Keil_v5\ARM\ARMCC\Bin\..\lib\armlib\c_w.l(_printf_percent.o)(.ARM.Collect$$_printf_percent$$00000000) for _printf_percent
    .\objects\mbed_mem_trace.o(i.mbed_mem_trace_default_callback) refers to D:\ProgramFiles\Keil_v5\ARM\ARMCC\Bin\..\lib\armlib\c_w.l(_printf_u.o)(.ARM.Collect$$_printf_percent$$0000000A) for _printf_u
    .\objects\mbed_mem_trace.o(i.mbed_mem_trace_default_callback) refers to D:\ProgramFiles\Keil_v5\ARM\ARMCC\Bin\..\lib\armlib\c_w.l(_printf_p.o)(.ARM.Collect$$_printf_percent$$00000002) for _printf_p
    .\objects\mbed_mem_trace.o(i.mbed_mem_trace_default_callback) refers to D:\ProgramFiles\Keil_v5\ARM\ARMCC\Bin\..\lib\armlib\c_w.l(_printf_dec.o)(.text) for _printf_int_dec
    .\objects\mbed_mem_trace.o(i.mbed_mem_trace_default_callback) refers to D:\ProgramFiles\Keil_v5\ARM\ARMCC\Bin\..\lib\armlib\c_w.l(_printf_hex_int_ll_ptr.o)(.text) for _printf_longlong_hex
    .\objects\mbed_mem_trace.o(i.mbed_mem_trace_default_callback) refers to D:\ProgramFiles\Keil_v5\ARM\ARMCC\Bin\..\lib\armlib\c_w.l(__2printf.o)(.text) for __2printf
    .\objects\mbed_mem_trace.o(i.mbed_mem_trace_free) refers to .\objects\mbed_mem_trace.o(.data) for mem_trace_cb
    .\objects\mbed_mem_trace.o(i.mbed_mem_trace_lock) refers to .\objects\flashiap.o(t._ZN12SingletonPtrIN4rtos5MutexEEptEv) for SingletonPtr<rtos::Mutex>::operator ->()
    .\objects\mbed_mem_trace.o(i.mbed_mem_trace_lock) refers to .\objects\mutex.o(i._ZN4rtos5Mutex4lockEv) for rtos::Mutex::lock()
    .\objects\mbed_mem_trace.o(i.mbed_mem_trace_lock) refers to .\objects\mbed_mem_trace.o(.bss) for mem_trace_mutex
    .\objects\mbed_mem_trace.o(i.mbed_mem_trace_lock) refers to .\objects\mbed_mem_trace.o(.data) for trace_lock_count
    .\objects\mbed_mem_trace.o(i.mbed_mem_trace_malloc) refers to .\objects\mbed_mem_trace.o(.data) for mem_trace_cb
    .\objects\mbed_mem_trace.o(i.mbed_mem_trace_realloc) refers to .\objects\mbed_mem_trace.o(.data) for mem_trace_cb
    .\objects\mbed_mem_trace.o(i.mbed_mem_trace_set_callback) refers to .\objects\mbed_mem_trace.o(.data) for mem_trace_cb
    .\objects\mbed_mem_trace.o(i.mbed_mem_trace_unlock) refers to .\objects\flashiap.o(t._ZN12SingletonPtrIN4rtos5MutexEEptEv) for SingletonPtr<rtos::Mutex>::operator ->()
    .\objects\mbed_mem_trace.o(i.mbed_mem_trace_unlock) refers to .\objects\mutex.o(i._ZN4rtos5Mutex6unlockEv) for rtos::Mutex::unlock()
    .\objects\mbed_mem_trace.o(i.mbed_mem_trace_unlock) refers to .\objects\mbed_mem_trace.o(.data) for trace_lock_count
    .\objects\mbed_mem_trace.o(i.mbed_mem_trace_unlock) refers to .\objects\mbed_mem_trace.o(.bss) for mem_trace_mutex
    .\objects\mbed_mem_trace.o(.ARM.exidx) refers to .\objects\mbed_mem_trace.o(i.mbed_mem_trace_set_callback) for i.mbed_mem_trace_set_callback
    .\objects\mbed_mem_trace.o(.ARM.exidx) refers to .\objects\mbed_mem_trace.o(i.mbed_mem_trace_lock) for i.mbed_mem_trace_lock
    .\objects\mbed_mem_trace.o(.ARM.exidx) refers to .\objects\mbed_mem_trace.o(i.mbed_mem_trace_unlock) for i.mbed_mem_trace_unlock
    .\objects\mbed_mem_trace.o(.ARM.exidx) refers to .\objects\mbed_mem_trace.o(i.mbed_mem_trace_malloc) for i.mbed_mem_trace_malloc
    .\objects\mbed_mem_trace.o(.ARM.exidx) refers to .\objects\mbed_mem_trace.o(i.mbed_mem_trace_realloc) for i.mbed_mem_trace_realloc
    .\objects\mbed_mem_trace.o(.ARM.exidx) refers to .\objects\mbed_mem_trace.o(i.mbed_mem_trace_calloc) for i.mbed_mem_trace_calloc
    .\objects\mbed_mem_trace.o(.ARM.exidx) refers to .\objects\mbed_mem_trace.o(i.mbed_mem_trace_free) for i.mbed_mem_trace_free
    .\objects\mbed_mem_trace.o(.ARM.exidx) refers to .\objects\mbed_mem_trace.o(i.mbed_mem_trace_default_callback) for i.mbed_mem_trace_default_callback
    .\objects\mbed_poll.o(i._ZN4mbed4pollEPNS_6pollfhEji) refers to .\objects\kernel.o(i._ZN4rtos6Kernel12get_ms_countEv) for rtos::Kernel::get_ms_count()
    .\objects\mbed_poll.o(i._ZN4mbed4pollEPNS_6pollfhEji) refers to .\objects\thisthread.o(i._ZN4rtos10ThisThread9sleep_forEj) for rtos::ThisThread::sleep_for(unsigned)
    .\objects\mbed_poll.o(.ARM.exidx) refers to .\objects\mbed_poll.o(i._ZN4mbed4pollEPNS_6pollfhEji) for i._ZN4mbed4pollEPNS_6pollfhEji
    .\objects\mbed_retarget.o(i._Z11get_consolei) refers to .\objects\mbed_retarget.o(i._ZN4mbed21mbed_override_consoleEi) for mbed::mbed_override_console(int)
    .\objects\mbed_retarget.o(i._Z11get_consolei) refers to .\objects\mbed_retarget.o(i._ZN4mbed28mbed_target_override_consoleEi) for mbed::mbed_target_override_console(int)
    .\objects\mbed_retarget.o(i._Z11get_consolei) refers to .\objects\mbed_retarget.o(i._Z15default_consolev) for default_console()
    .\objects\mbed_retarget.o(i._Z14singleton_lockv) refers to .\objects\rtx_mutex.o(i.osMutexAcquire) for osMutexAcquire
    .\objects\mbed_retarget.o(i._Z14singleton_lockv) refers to .\objects\mbed_rtos_rtx.o(.data) for singleton_mutex_id
    .\objects\mbed_retarget.o(i._Z14unbind_from_fdiPN4mbed10FileHandleE) refers to D:\ProgramFiles\Keil_v5\ARM\ARMCC\Bin\..\lib\armlib\c_w.l(rt_errno_addr_twolibspace.o)(.text) for __aeabi_errno_addr
    .\objects\mbed_retarget.o(i._Z14unbind_from_fdiPN4mbed10FileHandleE) refers to .\objects\mbed_retarget.o(.data) for filehandles
    .\objects\mbed_retarget.o(i._Z15default_consolev) refers to .\objects\mbed_retarget.o(i.__cxa_guard_acquire) for __cxa_guard_acquire
    .\objects\mbed_retarget.o(i._Z15default_consolev) refers to .\objects\mbed_retarget.o(i._ZN12DirectSerialC1E7PinNameS0_i) for DirectSerial::DirectSerial(PinName, PinName, int)
    .\objects\mbed_retarget.o(i._Z15default_consolev) refers to .\objects\mbed_retarget.o(i.__aeabi_atexit) for __aeabi_atexit
    .\objects\mbed_retarget.o(i._Z15default_consolev) refers to .\objects\mbed_retarget.o(i.__cxa_guard_release) for __cxa_guard_release
    .\objects\mbed_retarget.o(i._Z15default_consolev) refers to .\objects\mbed_retarget.o(.data) for _ZGV_ZZ15default_consolevE7console
    .\objects\mbed_retarget.o(i._Z15default_consolev) refers to .\objects\mbed_retarget.o(i._ZN12DirectSerialD1Ev) for DirectSerial::~DirectSerial()
    .\objects\mbed_retarget.o(i._Z16singleton_unlockv) refers to .\objects\rtx_mutex.o(i.osMutexRelease) for osMutexRelease
    .\objects\mbed_retarget.o(i._Z16singleton_unlockv) refers to .\objects\mbed_rtos_rtx.o(.data) for singleton_mutex_id
    .\objects\mbed_retarget.o(i._Z18handle_open_errorsij) refers to D:\ProgramFiles\Keil_v5\ARM\ARMCC\Bin\..\lib\armlib\c_w.l(rt_errno_addr_twolibspace.o)(.text) for __aeabi_errno_addr
    .\objects\mbed_retarget.o(i._Z18handle_open_errorsij) refers to .\objects\mbed_retarget.o(.data) for filehandles
    .\objects\mbed_retarget.o(i._Z18reserve_filehandlev) refers to .\objects\flashiap.o(t._ZN12SingletonPtrIN4rtos5MutexEEptEv) for SingletonPtr<rtos::Mutex>::operator ->()
    .\objects\mbed_retarget.o(i._Z18reserve_filehandlev) refers to .\objects\mutex.o(i._ZN4rtos5Mutex4lockEv) for rtos::Mutex::lock()
    .\objects\mbed_retarget.o(i._Z18reserve_filehandlev) refers to D:\ProgramFiles\Keil_v5\ARM\ARMCC\Bin\..\lib\armlib\c_w.l(rt_errno_addr_twolibspace.o)(.text) for __aeabi_errno_addr
    .\objects\mbed_retarget.o(i._Z18reserve_filehandlev) refers to .\objects\mutex.o(i._ZN4rtos5Mutex6unlockEv) for rtos::Mutex::unlock()
    .\objects\mbed_retarget.o(i._Z18reserve_filehandlev) refers to .\objects\mbed_retarget.o(.bss) for filehandle_mutex
    .\objects\mbed_retarget.o(i._Z18reserve_filehandlev) refers to .\objects\mbed_retarget.o(.data) for filehandles
    .\objects\mbed_retarget.o(i._Z7get_fhci) refers to .\objects\mbed_retarget.o(i._Z11get_consolei) for get_console(int)
    .\objects\mbed_retarget.o(i._Z7get_fhci) refers to .\objects\mbed_retarget.o(.data) for filehandles
    .\objects\mbed_retarget.o(i._ZN12DirectSerial4readEPvj) refers to .\objects\serial_device.o(i.serial_getc) for serial_getc
    .\objects\mbed_retarget.o(i._ZN12DirectSerial4readEPvj) refers to .\objects\serial_api.o(.bss) for stdio_uart
    .\objects\mbed_retarget.o(i._ZN12DirectSerial5writeEPKvj) refers to .\objects\serial_device.o(i.serial_putc) for serial_putc
    .\objects\mbed_retarget.o(i._ZN12DirectSerial5writeEPKvj) refers to .\objects\serial_api.o(.bss) for stdio_uart
    .\objects\mbed_retarget.o(i._ZN12DirectSerialC1E7PinNameS0_i) refers to .\objects\serial_api.o(i.serial_init) for serial_init
    .\objects\mbed_retarget.o(i._ZN12DirectSerialC1E7PinNameS0_i) refers to .\objects\serial_api.o(i.serial_baud) for serial_baud
    .\objects\mbed_retarget.o(i._ZN12DirectSerialC1E7PinNameS0_i) refers to .\objects\filehandle.o(.constdata__ZTVN4mbed10FileHandleE) for vtable for mbed::FileHandle
    .\objects\mbed_retarget.o(i._ZN12DirectSerialC1E7PinNameS0_i) refers to .\objects\mbed_retarget.o(.constdata__ZTV12DirectSerial) for vtable for DirectSerial
    .\objects\mbed_retarget.o(i._ZN12DirectSerialC1E7PinNameS0_i) refers to .\objects\serial_api.o(.data) for stdio_uart_inited
    .\objects\mbed_retarget.o(i._ZN12DirectSerialC1E7PinNameS0_i) refers to .\objects\serial_api.o(.bss) for stdio_uart
    .\objects\mbed_retarget.o(i._ZN4mbed10bind_to_fdEPNS_10FileHandleE) refers to .\objects\mbed_retarget.o(i._Z18reserve_filehandlev) for reserve_filehandle()
    .\objects\mbed_retarget.o(i._ZN4mbed10bind_to_fdEPNS_10FileHandleE) refers to .\objects\mbed_retarget.o(.data) for filehandles
    .\objects\mbed_retarget.o(i._ZN4mbed10bind_to_fdEPNS_10FileHandleE) refers to .\objects\mbed_retarget.o(.bss) for stdio_in_prev
    .\objects\mbed_retarget.o(i._ZN4mbed17remove_filehandleEPNS_10FileHandleE) refers to .\objects\flashiap.o(t._ZN12SingletonPtrIN4rtos5MutexEEptEv) for SingletonPtr<rtos::Mutex>::operator ->()
    .\objects\mbed_retarget.o(i._ZN4mbed17remove_filehandleEPNS_10FileHandleE) refers to .\objects\mutex.o(i._ZN4rtos5Mutex4lockEv) for rtos::Mutex::lock()
    .\objects\mbed_retarget.o(i._ZN4mbed17remove_filehandleEPNS_10FileHandleE) refers to .\objects\mutex.o(i._ZN4rtos5Mutex6unlockEv) for rtos::Mutex::unlock()
    .\objects\mbed_retarget.o(i._ZN4mbed17remove_filehandleEPNS_10FileHandleE) refers to .\objects\mbed_retarget.o(.bss) for filehandle_mutex
    .\objects\mbed_retarget.o(i._ZN4mbed17remove_filehandleEPNS_10FileHandleE) refers to .\objects\mbed_retarget.o(.data) for filehandles
    .\objects\mbed_retarget.o(i._ZN4mbed26mbed_set_unbuffered_streamEPSt6__FILE) refers to D:\ProgramFiles\Keil_v5\ARM\ARMCC\Bin\..\lib\armlib\c_w.l(setbuf.o)(.text) for setbuf
    .\objects\mbed_retarget.o(i._ZN4mbed6fdopenEPNS_10FileHandleEPKc) refers to .\objects\mbed_retarget.o(i._ZN4mbed10bind_to_fdEPNS_10FileHandleE) for mbed::bind_to_fd(mbed::FileHandle*)
    .\objects\mbed_retarget.o(i._ZN4mbed6fdopenEPNS_10FileHandleEPKc) refers to .\objects\mbed_retarget.o(i.fdopen) for fdopen
    .\objects\mbed_retarget.o(i._ZN4mbed6fdopenEPNS_10FileHandleEPKc) refers to .\objects\mbed_retarget.o(i._Z14unbind_from_fdiPN4mbed10FileHandleE) for unbind_from_fd(int, mbed::FileHandle*)
    .\objects\mbed_retarget.o(i._ZN4mbed9mbed_getcEPSt6__FILE) refers to D:\ProgramFiles\Keil_v5\ARM\ARMCC\Bin\..\lib\armlib\c_w.l(fgetc_locked.o)(.text) for fgetc
    .\objects\mbed_retarget.o(i._ZN4mbed9mbed_getsEPciPSt6__FILE) refers to D:\ProgramFiles\Keil_v5\ARM\ARMCC\Bin\..\lib\armlib\c_w.l(fgets_locked.o)(.text) for fgets
    .\objects\mbed_retarget.o(i._ZNK12DirectSerial4pollEs) refers to .\objects\serial_api.o(i.serial_readable) for serial_readable
    .\objects\mbed_retarget.o(i._ZNK12DirectSerial4pollEs) refers to .\objects\serial_api.o(i.serial_writable) for serial_writable
    .\objects\mbed_retarget.o(i._ZNK12DirectSerial4pollEs) refers to .\objects\serial_api.o(.bss) for stdio_uart
    .\objects\mbed_retarget.o(i._ZdaPv) refers to D:\ProgramFiles\Keil_v5\ARM\ARMCC\Bin\..\lib\armlib\c_w.l(h1_free_mt.o)(.text) for free
    .\objects\mbed_retarget.o(i._ZdlPv) refers to D:\ProgramFiles\Keil_v5\ARM\ARMCC\Bin\..\lib\armlib\c_w.l(h1_free_mt.o)(.text) for free
    .\objects\mbed_retarget.o(i._Znaj) refers to D:\ProgramFiles\Keil_v5\ARM\ARMCC\Bin\..\lib\armlib\c_w.l(h1_alloc_mt.o)(.text) for malloc
    .\objects\mbed_retarget.o(i._Znaj) refers to .\objects\mbed_error.o(i.mbed_error) for mbed_error
    .\objects\mbed_retarget.o(i._ZnajRKSt9nothrow_t) refers to D:\ProgramFiles\Keil_v5\ARM\ARMCC\Bin\..\lib\armlib\c_w.l(h1_alloc_mt.o)(.text) for malloc
    .\objects\mbed_retarget.o(i._Znwj) refers to D:\ProgramFiles\Keil_v5\ARM\ARMCC\Bin\..\lib\armlib\c_w.l(h1_alloc_mt.o)(.text) for malloc
    .\objects\mbed_retarget.o(i._Znwj) refers to .\objects\mbed_error.o(i.mbed_error) for mbed_error
    .\objects\mbed_retarget.o(i._ZnwjRKSt9nothrow_t) refers to D:\ProgramFiles\Keil_v5\ARM\ARMCC\Bin\..\lib\armlib\c_w.l(h1_alloc_mt.o)(.text) for malloc
    .\objects\mbed_retarget.o(i.__cxa_guard_abort) refers to .\objects\mbed_assert.o(i.mbed_assert_internal) for mbed_assert_internal
    .\objects\mbed_retarget.o(i.__cxa_guard_abort) refers to .\objects\mbed_retarget.o(i._Z16singleton_unlockv) for singleton_unlock()
    .\objects\mbed_retarget.o(i.__cxa_guard_acquire) refers to .\objects\mbed_retarget.o(i._Z14singleton_lockv) for singleton_lock()
    .\objects\mbed_retarget.o(i.__cxa_guard_acquire) refers to .\objects\mbed_retarget.o(i._Z16singleton_unlockv) for singleton_unlock()
    .\objects\mbed_retarget.o(i.__cxa_guard_acquire) refers to .\objects\mbed_assert.o(i.mbed_assert_internal) for mbed_assert_internal
    .\objects\mbed_retarget.o(i.__cxa_guard_release) refers to .\objects\mbed_assert.o(i.mbed_assert_internal) for mbed_assert_internal
    .\objects\mbed_retarget.o(i.__cxa_guard_release) refers to .\objects\mbed_retarget.o(i._Z16singleton_unlockv) for singleton_unlock()
    .\objects\mbed_retarget.o(i.__user_setup_stackheap) refers to .\objects\mbed_retarget.o(i._mbed_user_setup_stackheap) for _mbed_user_setup_stackheap
    .\objects\mbed_retarget.o(i._sys_close) refers to .\objects\mbed_retarget.o(i.close) for close
    .\objects\mbed_retarget.o(i._sys_ensure) refers to .\objects\mbed_retarget.o(i.fsync) for fsync
    .\objects\mbed_retarget.o(i._sys_flen) refers to .\objects\mbed_retarget.o(i._Z7get_fhci) for get_fhc(int)
    .\objects\mbed_retarget.o(i._sys_flen) refers to D:\ProgramFiles\Keil_v5\ARM\ARMCC\Bin\..\lib\armlib\c_w.l(rt_errno_addr_twolibspace.o)(.text) for __aeabi_errno_addr
    .\objects\mbed_retarget.o(i._sys_istty) refers to .\objects\mbed_retarget.o(i.isatty) for isatty
    .\objects\mbed_retarget.o(i._sys_open) refers to D:\ProgramFiles\Keil_v5\ARM\ARMCC\Bin\..\lib\armlib\c_w.l(strcmpv7m.o)(.text) for strcmp
    .\objects\mbed_retarget.o(i._sys_open) refers to .\objects\mbed_retarget.o(i._Z7get_fhci) for get_fhc(int)
    .\objects\mbed_retarget.o(i._sys_open) refers to .\objects\mbed_retarget.o(i.open) for open
    .\objects\mbed_retarget.o(i._sys_open) refers to .\objects\mbed_retarget.o(.constdata) for __stdin_name
    .\objects\mbed_retarget.o(i._sys_read) refers to D:\ProgramFiles\Keil_v5\ARM\ARMCC\Bin\..\lib\armlib\c_w.l(rt_errno_addr_twolibspace.o)(.text) for __aeabi_errno_addr
    .\objects\mbed_retarget.o(i._sys_read) refers to .\objects\mbed_retarget.o(i._Z12convert_crlfi) for convert_crlf(int)
    .\objects\mbed_retarget.o(i._sys_read) refers to .\objects\mbed_retarget.o(i.read) for read
    .\objects\mbed_retarget.o(i._sys_read) refers to .\objects\mbed_retarget.o(.bss) for stdio_in_prev
    .\objects\mbed_retarget.o(i._sys_seek) refers to .\objects\mbed_retarget.o(i.lseek) for lseek
    .\objects\mbed_retarget.o(i._sys_write) refers to D:\ProgramFiles\Keil_v5\ARM\ARMCC\Bin\..\lib\armlib\c_w.l(rt_errno_addr_twolibspace.o)(.text) for __aeabi_errno_addr
    .\objects\mbed_retarget.o(i._sys_write) refers to .\objects\mbed_retarget.o(i._Z12convert_crlfi) for convert_crlf(int)
    .\objects\mbed_retarget.o(i._sys_write) refers to .\objects\mbed_retarget.o(i.write) for write
    .\objects\mbed_retarget.o(i._sys_write) refers to .\objects\mbed_retarget.o(.bss) for stdio_out_prev
    .\objects\mbed_retarget.o(i.clock) refers to .\objects\flashiap.o(t._ZN12SingletonPtrIN4rtos5MutexEEptEv) for SingletonPtr<rtos::Mutex>::operator ->()
    .\objects\mbed_retarget.o(i.clock) refers to .\objects\mutex.o(i._ZN4rtos5Mutex4lockEv) for rtos::Mutex::lock()
    .\objects\mbed_retarget.o(i.clock) refers to .\objects\mbed_us_ticker_api.o(i.get_us_ticker_data) for get_us_ticker_data
    .\objects\mbed_retarget.o(i.clock) refers to .\objects\mbed_ticker_api.o(i.ticker_read) for ticker_read
    .\objects\mbed_retarget.o(i.clock) refers to .\objects\mutex.o(i._ZN4rtos5Mutex6unlockEv) for rtos::Mutex::unlock()
    .\objects\mbed_retarget.o(i.clock) refers to .\objects\mbed_retarget.o(.bss) for _mutex
    .\objects\mbed_retarget.o(i.close) refers to .\objects\mbed_retarget.o(i._Z7get_fhci) for get_fhc(int)
    .\objects\mbed_retarget.o(i.close) refers to D:\ProgramFiles\Keil_v5\ARM\ARMCC\Bin\..\lib\armlib\c_w.l(rt_errno_addr_twolibspace.o)(.text) for __aeabi_errno_addr
    .\objects\mbed_retarget.o(i.close) refers to .\objects\mbed_retarget.o(.data) for filehandles
    .\objects\mbed_retarget.o(i.closedir) refers to D:\ProgramFiles\Keil_v5\ARM\ARMCC\Bin\..\lib\armlib\c_w.l(rt_errno_addr_twolibspace.o)(.text) for __aeabi_errno_addr
    .\objects\mbed_retarget.o(i.exit) refers to D:\ProgramFiles\Keil_v5\ARM\ARMCC\Bin\..\lib\armlib\c_w.l(fflush_locked.o)(.text) for fflush
    .\objects\mbed_retarget.o(i.exit) refers to .\objects\mbed_board.o(i.mbed_die) for mbed_die
    .\objects\mbed_retarget.o(i.exit) refers to D:\ProgramFiles\Keil_v5\ARM\ARMCC\Bin\..\lib\armlib\c_w.l(stdio_streams.o)(.bss) for __stdout
    .\objects\mbed_retarget.o(i.exit) refers to D:\ProgramFiles\Keil_v5\ARM\ARMCC\Bin\..\lib\armlib\c_w.l(stdio_streams.o)(.bss) for __stderr
    .\objects\mbed_retarget.o(i.fcntl) refers to .\objects\mbed_retarget.o(i._Z7get_fhci) for get_fhc(int)
    .\objects\mbed_retarget.o(i.fcntl) refers to D:\ProgramFiles\Keil_v5\ARM\ARMCC\Bin\..\lib\armlib\c_w.l(rt_errno_addr_twolibspace.o)(.text) for __aeabi_errno_addr
    .\objects\mbed_retarget.o(i.fdopen) refers to D:\ProgramFiles\Keil_v5\ARM\ARMCC\Bin\..\lib\armlib\c_w.l(fopen_locked.o)(.text) for fopen
    .\objects\mbed_retarget.o(i.fdopen) refers to .\objects\mbed_retarget.o(i.isatty) for isatty
    .\objects\mbed_retarget.o(i.fdopen) refers to .\objects\mbed_retarget.o(i._ZN4mbed26mbed_set_unbuffered_streamEPSt6__FILE) for mbed::mbed_set_unbuffered_stream(std::__FILE*)
    .\objects\mbed_retarget.o(i.fstat) refers to .\objects\mbed_retarget.o(i._Z7get_fhci) for get_fhc(int)
    .\objects\mbed_retarget.o(i.fstat) refers to D:\ProgramFiles\Keil_v5\ARM\ARMCC\Bin\..\lib\armlib\c_w.l(rt_errno_addr_twolibspace.o)(.text) for __aeabi_errno_addr
    .\objects\mbed_retarget.o(i.fsync) refers to .\objects\mbed_retarget.o(i._Z7get_fhci) for get_fhc(int)
    .\objects\mbed_retarget.o(i.fsync) refers to D:\ProgramFiles\Keil_v5\ARM\ARMCC\Bin\..\lib\armlib\c_w.l(rt_errno_addr_twolibspace.o)(.text) for __aeabi_errno_addr
    .\objects\mbed_retarget.o(i.isatty) refers to .\objects\mbed_retarget.o(i._Z7get_fhci) for get_fhc(int)
    .\objects\mbed_retarget.o(i.isatty) refers to D:\ProgramFiles\Keil_v5\ARM\ARMCC\Bin\..\lib\armlib\c_w.l(rt_errno_addr_twolibspace.o)(.text) for __aeabi_errno_addr
    .\objects\mbed_retarget.o(i.lp_ticker_get_info) refers to .\objects\mbed_retarget.o(.constdata) for info
    .\objects\mbed_retarget.o(i.lseek) refers to .\objects\mbed_retarget.o(i._Z7get_fhci) for get_fhc(int)
    .\objects\mbed_retarget.o(i.lseek) refers to D:\ProgramFiles\Keil_v5\ARM\ARMCC\Bin\..\lib\armlib\c_w.l(rt_errno_addr_twolibspace.o)(.text) for __aeabi_errno_addr
    .\objects\mbed_retarget.o(i.mkdir) refers to .\objects\filepath.o(i._ZN4mbed8FilePathC1EPKc) for mbed::FilePath::FilePath(const char*)
    .\objects\mbed_retarget.o(i.mkdir) refers to .\objects\filepath.o(i._ZN4mbed8FilePath10fileSystemEv) for mbed::FilePath::fileSystem()
    .\objects\mbed_retarget.o(i.mkdir) refers to D:\ProgramFiles\Keil_v5\ARM\ARMCC\Bin\..\lib\armlib\c_w.l(rt_errno_addr_twolibspace.o)(.text) for __aeabi_errno_addr
    .\objects\mbed_retarget.o(i.mkdir) refers to .\objects\filepath.o(i._ZN4mbed8FilePath8fileNameEv) for mbed::FilePath::fileName()
    .\objects\mbed_retarget.o(i.open) refers to .\objects\mbed_retarget.o(i._Z18reserve_filehandlev) for reserve_filehandle()
    .\objects\mbed_retarget.o(i.open) refers to .\objects\filepath.o(i._ZN4mbed8FilePathC1EPKc) for mbed::FilePath::FilePath(const char*)
    .\objects\mbed_retarget.o(i.open) refers to .\objects\filepath.o(i._ZN4mbed8FilePath6existsEv) for mbed::FilePath::exists()
    .\objects\mbed_retarget.o(i.open) refers to .\objects\mbed_retarget.o(i._Z18handle_open_errorsij) for handle_open_errors(int, unsigned)
    .\objects\mbed_retarget.o(i.open) refers to .\objects\filepath.o(i._ZN4mbed8FilePath6isFileEv) for mbed::FilePath::isFile()
    .\objects\mbed_retarget.o(i.open) refers to .\objects\filepath.o(i._ZN4mbed8FilePath4fileEv) for mbed::FilePath::file()
    .\objects\mbed_retarget.o(i.open) refers to .\objects\filepath.o(i._ZN4mbed8FilePath10fileSystemEv) for mbed::FilePath::fileSystem()
    .\objects\mbed_retarget.o(i.open) refers to .\objects\filepath.o(i._ZN4mbed8FilePath8fileNameEv) for mbed::FilePath::fileName()
    .\objects\mbed_retarget.o(i.open) refers to .\objects\mbed_retarget.o(.data) for filehandles
    .\objects\mbed_retarget.o(i.open) refers to .\objects\mbed_retarget.o(.bss) for stdio_in_prev
    .\objects\mbed_retarget.o(i.opendir) refers to .\objects\filepath.o(i._ZN4mbed8FilePathC1EPKc) for mbed::FilePath::FilePath(const char*)
    .\objects\mbed_retarget.o(i.opendir) refers to .\objects\filepath.o(i._ZN4mbed8FilePath10fileSystemEv) for mbed::FilePath::fileSystem()
    .\objects\mbed_retarget.o(i.opendir) refers to D:\ProgramFiles\Keil_v5\ARM\ARMCC\Bin\..\lib\armlib\c_w.l(rt_errno_addr_twolibspace.o)(.text) for __aeabi_errno_addr
    .\objects\mbed_retarget.o(i.opendir) refers to .\objects\filepath.o(i._ZN4mbed8FilePath8fileNameEv) for mbed::FilePath::fileName()
    .\objects\mbed_retarget.o(i.poll) refers to D:\ProgramFiles\Keil_v5\ARM\ARMCC\Bin\..\lib\armlib\c_w.l(rt_errno_addr_twolibspace.o)(.text) for __aeabi_errno_addr
    .\objects\mbed_retarget.o(i.poll) refers to .\objects\mbed_retarget.o(i._Z7get_fhci) for get_fhc(int)
    .\objects\mbed_retarget.o(i.poll) refers to .\objects\mbed_poll.o(i._ZN4mbed4pollEPNS_6pollfhEji) for mbed::poll(mbed::pollfh*, unsigned, int)
    .\objects\mbed_retarget.o(i.read) refers to .\objects\mbed_retarget.o(i._Z7get_fhci) for get_fhc(int)
    .\objects\mbed_retarget.o(i.read) refers to D:\ProgramFiles\Keil_v5\ARM\ARMCC\Bin\..\lib\armlib\c_w.l(rt_errno_addr_twolibspace.o)(.text) for __aeabi_errno_addr
    .\objects\mbed_retarget.o(i.readdir) refers to D:\ProgramFiles\Keil_v5\ARM\ARMCC\Bin\..\lib\armlib\c_w.l(rt_errno_addr_twolibspace.o)(.text) for __aeabi_errno_addr
    .\objects\mbed_retarget.o(i.readdir) refers to .\objects\mbed_retarget.o(.bss) for ent
    .\objects\mbed_retarget.o(i.remove) refers to .\objects\filepath.o(i._ZN4mbed8FilePathC1EPKc) for mbed::FilePath::FilePath(const char*)
    .\objects\mbed_retarget.o(i.remove) refers to .\objects\filepath.o(i._ZN4mbed8FilePath10fileSystemEv) for mbed::FilePath::fileSystem()
    .\objects\mbed_retarget.o(i.remove) refers to D:\ProgramFiles\Keil_v5\ARM\ARMCC\Bin\..\lib\armlib\c_w.l(rt_errno_addr_twolibspace.o)(.text) for __aeabi_errno_addr
    .\objects\mbed_retarget.o(i.remove) refers to .\objects\filepath.o(i._ZN4mbed8FilePath8fileNameEv) for mbed::FilePath::fileName()
    .\objects\mbed_retarget.o(i.rename) refers to .\objects\filepath.o(i._ZN4mbed8FilePathC1EPKc) for mbed::FilePath::FilePath(const char*)
    .\objects\mbed_retarget.o(i.rename) refers to .\objects\filepath.o(i._ZN4mbed8FilePath10fileSystemEv) for mbed::FilePath::fileSystem()
    .\objects\mbed_retarget.o(i.rename) refers to D:\ProgramFiles\Keil_v5\ARM\ARMCC\Bin\..\lib\armlib\c_w.l(rt_errno_addr_twolibspace.o)(.text) for __aeabi_errno_addr
    .\objects\mbed_retarget.o(i.rename) refers to .\objects\filepath.o(i._ZN4mbed8FilePath8fileNameEv) for mbed::FilePath::fileName()
    .\objects\mbed_retarget.o(i.stat) refers to .\objects\filepath.o(i._ZN4mbed8FilePathC1EPKc) for mbed::FilePath::FilePath(const char*)
    .\objects\mbed_retarget.o(i.stat) refers to .\objects\filepath.o(i._ZN4mbed8FilePath10fileSystemEv) for mbed::FilePath::fileSystem()
    .\objects\mbed_retarget.o(i.stat) refers to D:\ProgramFiles\Keil_v5\ARM\ARMCC\Bin\..\lib\armlib\c_w.l(rt_errno_addr_twolibspace.o)(.text) for __aeabi_errno_addr
    .\objects\mbed_retarget.o(i.stat) refers to .\objects\filepath.o(i._ZN4mbed8FilePath8fileNameEv) for mbed::FilePath::fileName()
    .\objects\mbed_retarget.o(i.statvfs) refers to .\objects\filepath.o(i._ZN4mbed8FilePathC1EPKc) for mbed::FilePath::FilePath(const char*)
    .\objects\mbed_retarget.o(i.statvfs) refers to .\objects\filepath.o(i._ZN4mbed8FilePath10fileSystemEv) for mbed::FilePath::fileSystem()
    .\objects\mbed_retarget.o(i.statvfs) refers to D:\ProgramFiles\Keil_v5\ARM\ARMCC\Bin\..\lib\armlib\c_w.l(rt_errno_addr_twolibspace.o)(.text) for __aeabi_errno_addr
    .\objects\mbed_retarget.o(i.statvfs) refers to .\objects\filepath.o(i._ZN4mbed8FilePath8fileNameEv) for mbed::FilePath::fileName()
    .\objects\mbed_retarget.o(i.tmpfile) refers to D:\ProgramFiles\Keil_v5\ARM\ARMCC\Bin\..\lib\armlib\c_w.l(rt_errno_addr_twolibspace.o)(.text) for __aeabi_errno_addr
    .\objects\mbed_retarget.o(i.tmpnam) refers to D:\ProgramFiles\Keil_v5\ARM\ARMCC\Bin\..\lib\armlib\c_w.l(rt_errno_addr_twolibspace.o)(.text) for __aeabi_errno_addr
    .\objects\mbed_retarget.o(i.us_ticker_get_info) refers to .\objects\mbed_retarget.o(.constdata) for info
    .\objects\mbed_retarget.o(i.write) refers to .\objects\mbed_retarget.o(i._Z7get_fhci) for get_fhc(int)
    .\objects\mbed_retarget.o(i.write) refers to D:\ProgramFiles\Keil_v5\ARM\ARMCC\Bin\..\lib\armlib\c_w.l(rt_errno_addr_twolibspace.o)(.text) for __aeabi_errno_addr
    .\objects\mbed_retarget.o(.ARM.exidx) refers to .\objects\mbed_retarget.o(i._ZN12DirectSerialC1E7PinNameS0_i) for i._ZN12DirectSerialC1E7PinNameS0_i
    .\objects\mbed_retarget.o(.ARM.exidx) refers to .\objects\mbed_retarget.o(i._Z15default_consolev) for i._Z15default_consolev
    .\objects\mbed_retarget.o(.ARM.exidx) refers to .\objects\mbed_retarget.o(i._ZN4mbed28mbed_target_override_consoleEi) for i._ZN4mbed28mbed_target_override_consoleEi
    .\objects\mbed_retarget.o(.ARM.exidx) refers to .\objects\mbed_retarget.o(i._ZN4mbed21mbed_override_consoleEi) for i._ZN4mbed21mbed_override_consoleEi
    .\objects\mbed_retarget.o(.ARM.exidx) refers to .\objects\mbed_retarget.o(i._Z11get_consolei) for i._Z11get_consolei
    .\objects\mbed_retarget.o(.ARM.exidx) refers to .\objects\mbed_retarget.o(i._Z7get_fhci) for i._Z7get_fhci
    .\objects\mbed_retarget.o(.ARM.exidx) refers to .\objects\mbed_retarget.o(i._Z18handle_open_errorsij) for i._Z18handle_open_errorsij
    .\objects\mbed_retarget.o(.ARM.exidx) refers to .\objects\mbed_retarget.o(i._Z18reserve_filehandlev) for i._Z18reserve_filehandlev
    .\objects\mbed_retarget.o(.ARM.exidx) refers to .\objects\mbed_retarget.o(i._Z14unbind_from_fdiPN4mbed10FileHandleE) for i._Z14unbind_from_fdiPN4mbed10FileHandleE
    .\objects\mbed_retarget.o(.ARM.exidx) refers to .\objects\mbed_retarget.o(i._ZN4mbed26mbed_set_unbuffered_streamEPSt6__FILE) for i._ZN4mbed26mbed_set_unbuffered_streamEPSt6__FILE
    .\objects\mbed_retarget.o(.ARM.exidx) refers to .\objects\mbed_retarget.o(i.isatty) for i.isatty
    .\objects\mbed_retarget.o(.ARM.exidx) refers to .\objects\mbed_retarget.o(i.fdopen) for i.fdopen
    .\objects\mbed_retarget.o(.ARM.exidx) refers to .\objects\mbed_retarget.o(i.open) for i.open
    .\objects\mbed_retarget.o(.ARM.exidx) refers to .\objects\mbed_retarget.o(i._sys_open) for i._sys_open
    .\objects\mbed_retarget.o(.ARM.exidx) refers to .\objects\mbed_retarget.o(i.close) for i.close
    .\objects\mbed_retarget.o(.ARM.exidx) refers to .\objects\mbed_retarget.o(i._sys_close) for i._sys_close
    .\objects\mbed_retarget.o(.ARM.exidx) refers to .\objects\mbed_retarget.o(i._Z12convert_crlfi) for i._Z12convert_crlfi
    .\objects\mbed_retarget.o(.ARM.exidx) refers to .\objects\mbed_retarget.o(i.write) for i.write
    .\objects\mbed_retarget.o(.ARM.exidx) refers to .\objects\mbed_retarget.o(i._sys_write) for i._sys_write
    .\objects\mbed_retarget.o(.ARM.exidx) refers to .\objects\mbed_retarget.o(i.read) for i.read
    .\objects\mbed_retarget.o(.ARM.exidx) refers to .\objects\mbed_retarget.o(i._sys_read) for i._sys_read
    .\objects\mbed_retarget.o(.ARM.exidx) refers to .\objects\mbed_retarget.o(i._sys_istty) for i._sys_istty
    .\objects\mbed_retarget.o(.ARM.exidx) refers to .\objects\mbed_retarget.o(i.lseek) for i.lseek
    .\objects\mbed_retarget.o(.ARM.exidx) refers to .\objects\mbed_retarget.o(i._sys_seek) for i._sys_seek
    .\objects\mbed_retarget.o(.ARM.exidx) refers to .\objects\mbed_retarget.o(i.fsync) for i.fsync
    .\objects\mbed_retarget.o(.ARM.exidx) refers to .\objects\mbed_retarget.o(i._sys_ensure) for i._sys_ensure
    .\objects\mbed_retarget.o(.ARM.exidx) refers to .\objects\mbed_retarget.o(i._sys_flen) for i._sys_flen
    .\objects\mbed_retarget.o(.ARM.exidx) refers to .\objects\mbed_retarget.o(i._mbed_user_setup_stackheap) for i._mbed_user_setup_stackheap
    .\objects\mbed_retarget.o(.ARM.exidx) refers to .\objects\mbed_retarget.o(i.__user_setup_stackheap) for i.__user_setup_stackheap
    .\objects\mbed_retarget.o(.ARM.exidx) refers to .\objects\mbed_retarget.o(i.fstat) for i.fstat
    .\objects\mbed_retarget.o(.ARM.exidx) refers to .\objects\mbed_retarget.o(i.fcntl) for i.fcntl
    .\objects\mbed_retarget.o(.ARM.exidx) refers to .\objects\mbed_retarget.o(i.poll) for i.poll
    .\objects\mbed_retarget.o(.ARM.exidx) refers to .\objects\mbed_retarget.o(i.remove) for i.remove
    .\objects\mbed_retarget.o(.ARM.exidx) refers to .\objects\mbed_retarget.o(i.rename) for i.rename
    .\objects\mbed_retarget.o(.ARM.exidx) refers to .\objects\mbed_retarget.o(i.tmpnam) for i.tmpnam
    .\objects\mbed_retarget.o(.ARM.exidx) refers to .\objects\mbed_retarget.o(i.tmpfile) for i.tmpfile
    .\objects\mbed_retarget.o(.ARM.exidx) refers to .\objects\mbed_retarget.o(i._sys_command_string) for i._sys_command_string
    .\objects\mbed_retarget.o(.ARM.exidx) refers to .\objects\mbed_retarget.o(i.opendir) for i.opendir
    .\objects\mbed_retarget.o(.ARM.exidx) refers to .\objects\mbed_retarget.o(i.readdir) for i.readdir
    .\objects\mbed_retarget.o(.ARM.exidx) refers to .\objects\mbed_retarget.o(i.closedir) for i.closedir
    .\objects\mbed_retarget.o(.ARM.exidx) refers to .\objects\mbed_retarget.o(i.rewinddir) for i.rewinddir
    .\objects\mbed_retarget.o(.ARM.exidx) refers to .\objects\mbed_retarget.o(i.telldir) for i.telldir
    .\objects\mbed_retarget.o(.ARM.exidx) refers to .\objects\mbed_retarget.o(i.seekdir) for i.seekdir
    .\objects\mbed_retarget.o(.ARM.exidx) refers to .\objects\mbed_retarget.o(i.mkdir) for i.mkdir
    .\objects\mbed_retarget.o(.ARM.exidx) refers to .\objects\mbed_retarget.o(i.stat) for i.stat
    .\objects\mbed_retarget.o(.ARM.exidx) refers to .\objects\mbed_retarget.o(i.statvfs) for i.statvfs
    .\objects\mbed_retarget.o(.ARM.exidx) refers to .\objects\mbed_retarget.o(i.exit) for i.exit
    .\objects\mbed_retarget.o(.ARM.exidx) refers to .\objects\mbed_retarget.o(i.__aeabi_atexit) for i.__aeabi_atexit
    .\objects\mbed_retarget.o(.ARM.exidx) refers to .\objects\mbed_retarget.o(i.__cxa_atexit) for i.__cxa_atexit
    .\objects\mbed_retarget.o(.ARM.exidx) refers to .\objects\mbed_retarget.o(i.__cxa_finalize) for i.__cxa_finalize
    .\objects\mbed_retarget.o(.ARM.exidx) refers to .\objects\mbed_retarget.o(i.__cxa_guard_acquire) for i.__cxa_guard_acquire
    .\objects\mbed_retarget.o(.ARM.exidx) refers to .\objects\mbed_retarget.o(i.__cxa_guard_release) for i.__cxa_guard_release
    .\objects\mbed_retarget.o(.ARM.exidx) refers to .\objects\mbed_retarget.o(i.__cxa_guard_abort) for i.__cxa_guard_abort
    .\objects\mbed_retarget.o(.ARM.exidx) refers to .\objects\mbed_retarget.o(i._Znwj) for i._Znwj
    .\objects\mbed_retarget.o(.ARM.exidx) refers to .\objects\mbed_retarget.o(i._Znaj) for i._Znaj
    .\objects\mbed_retarget.o(.ARM.exidx) refers to .\objects\mbed_retarget.o(i._ZnwjRKSt9nothrow_t) for i._ZnwjRKSt9nothrow_t
    .\objects\mbed_retarget.o(.ARM.exidx) refers to .\objects\mbed_retarget.o(i._ZnajRKSt9nothrow_t) for i._ZnajRKSt9nothrow_t
    .\objects\mbed_retarget.o(.ARM.exidx) refers to .\objects\mbed_retarget.o(i._ZdlPv) for i._ZdlPv
    .\objects\mbed_retarget.o(.ARM.exidx) refers to .\objects\mbed_retarget.o(i._ZdaPv) for i._ZdaPv
    .\objects\mbed_retarget.o(.ARM.exidx) refers to .\objects\mbed_retarget.o(i.clock) for i.clock
    .\objects\mbed_retarget.o(.ARM.exidx) refers to .\objects\mbed_retarget.o(i.us_ticker_get_info) for i.us_ticker_get_info
    .\objects\mbed_retarget.o(.ARM.exidx) refers to .\objects\mbed_retarget.o(i.lp_ticker_get_info) for i.lp_ticker_get_info
    .\objects\mbed_retarget.o(.ARM.exidx) refers to .\objects\mbed_retarget.o(i._ZN12DirectSerial5writeEPKvj) for i._ZN12DirectSerial5writeEPKvj
    .\objects\mbed_retarget.o(.ARM.exidx) refers to .\objects\mbed_retarget.o(i._ZN12DirectSerial4readEPvj) for i._ZN12DirectSerial4readEPvj
    .\objects\mbed_retarget.o(.ARM.exidx) refers to .\objects\mbed_retarget.o(i._ZNK12DirectSerial4pollEs) for i._ZNK12DirectSerial4pollEs
    .\objects\mbed_retarget.o(.ARM.exidx) refers to .\objects\mbed_retarget.o(i._ZN4Sink5writeEPKvj) for i._ZN4Sink5writeEPKvj
    .\objects\mbed_retarget.o(.ARM.exidx) refers to .\objects\mbed_retarget.o(i._ZN4Sink4readEPvj) for i._ZN4Sink4readEPvj
    .\objects\mbed_retarget.o(.ARM.exidx) refers to .\objects\mbed_retarget.o(i._ZN4mbed17remove_filehandleEPNS_10FileHandleE) for i._ZN4mbed17remove_filehandleEPNS_10FileHandleE
    .\objects\mbed_retarget.o(.ARM.exidx) refers to .\objects\mbed_retarget.o(i._ZN4mbed10bind_to_fdEPNS_10FileHandleE) for i._ZN4mbed10bind_to_fdEPNS_10FileHandleE
    .\objects\mbed_retarget.o(.ARM.exidx) refers to .\objects\mbed_retarget.o(i._ZN4mbed6fdopenEPNS_10FileHandleEPKc) for i._ZN4mbed6fdopenEPNS_10FileHandleEPKc
    .\objects\mbed_retarget.o(.ARM.exidx) refers to .\objects\mbed_retarget.o(i._ZN4mbed9mbed_getcEPSt6__FILE) for i._ZN4mbed9mbed_getcEPSt6__FILE
    .\objects\mbed_retarget.o(.ARM.exidx) refers to .\objects\mbed_retarget.o(i._ZN4mbed9mbed_getsEPciPSt6__FILE) for i._ZN4mbed9mbed_getsEPciPSt6__FILE
    .\objects\mbed_retarget.o(.ARM.exidx) refers to .\objects\mbed_retarget.o(i._Z14singleton_lockv) for i._Z14singleton_lockv
    .\objects\mbed_retarget.o(.ARM.exidx) refers to .\objects\mbed_retarget.o(i._Z16singleton_unlockv) for i._Z16singleton_unlockv
    .\objects\mbed_rtc_time.o(i.attach_rtc) refers to .\objects\flashiap.o(t._ZN12SingletonPtrIN4rtos5MutexEEptEv) for SingletonPtr<rtos::Mutex>::operator ->()
    .\objects\mbed_rtc_time.o(i.attach_rtc) refers to .\objects\mutex.o(i._ZN4rtos5Mutex4lockEv) for rtos::Mutex::lock()
    .\objects\mbed_rtc_time.o(i.attach_rtc) refers to .\objects\mutex.o(i._ZN4rtos5Mutex6unlockEv) for rtos::Mutex::unlock()
    .\objects\mbed_rtc_time.o(i.attach_rtc) refers to .\objects\mbed_rtc_time.o(.bss) for _mutex
    .\objects\mbed_rtc_time.o(i.attach_rtc) refers to .\objects\mbed_rtc_time.o(.data) for _rtc_read
    .\objects\mbed_rtc_time.o(i.set_time) refers to .\objects\flashiap.o(t._ZN12SingletonPtrIN4rtos5MutexEEptEv) for SingletonPtr<rtos::Mutex>::operator ->()
    .\objects\mbed_rtc_time.o(i.set_time) refers to .\objects\mutex.o(i._ZN4rtos5Mutex4lockEv) for rtos::Mutex::lock()
    .\objects\mbed_rtc_time.o(i.set_time) refers to .\objects\mutex.o(i._ZN4rtos5Mutex6unlockEv) for rtos::Mutex::unlock()
    .\objects\mbed_rtc_time.o(i.set_time) refers to .\objects\mbed_rtc_time.o(.bss) for _mutex
    .\objects\mbed_rtc_time.o(i.set_time) refers to .\objects\mbed_rtc_time.o(.data) for _rtc_init
    .\objects\mbed_rtc_time.o(i.time) refers to .\objects\flashiap.o(t._ZN12SingletonPtrIN4rtos5MutexEEptEv) for SingletonPtr<rtos::Mutex>::operator ->()
    .\objects\mbed_rtc_time.o(i.time) refers to .\objects\mutex.o(i._ZN4rtos5Mutex4lockEv) for rtos::Mutex::lock()
    .\objects\mbed_rtc_time.o(i.time) refers to .\objects\mbed_rtc_time.o(i.set_time) for set_time
    .\objects\mbed_rtc_time.o(i.time) refers to .\objects\mutex.o(i._ZN4rtos5Mutex6unlockEv) for rtos::Mutex::unlock()
    .\objects\mbed_rtc_time.o(i.time) refers to .\objects\mbed_rtc_time.o(.bss) for _mutex
    .\objects\mbed_rtc_time.o(i.time) refers to .\objects\mbed_rtc_time.o(.data) for _rtc_isenabled
    .\objects\mbed_rtc_time.o(.ARM.exidx) refers to .\objects\mbed_rtc_time.o(i.set_time) for i.set_time
    .\objects\mbed_rtc_time.o(.ARM.exidx) refers to .\objects\mbed_rtc_time.o(i.time) for i.time
    .\objects\mbed_rtc_time.o(.ARM.exidx) refers to .\objects\mbed_rtc_time.o(i.attach_rtc) for i.attach_rtc
    .\objects\mbed_rtc_time.o(.data) refers to .\objects\rtc_api.o(i.rtc_init) for rtc_init
    .\objects\mbed_rtc_time.o(.data) refers to .\objects\rtc_api.o(i.rtc_isenabled) for rtc_isenabled
    .\objects\mbed_rtc_time.o(.data) refers to .\objects\rtc_api.o(i.rtc_read) for rtc_read
    .\objects\mbed_rtc_time.o(.data) refers to .\objects\rtc_api.o(i.rtc_write) for rtc_write
    .\objects\mbed_wait_api_rtos.o(i.wait) refers to .\objects\mbed_wait_api_rtos.o(i.wait_us) for wait_us
    .\objects\mbed_wait_api_rtos.o(i.wait_ms) refers to .\objects\mbed_wait_api_rtos.o(i.wait_us) for wait_us
    .\objects\mbed_wait_api_rtos.o(i.wait_us) refers to .\objects\mbed_us_ticker_api.o(i.get_us_ticker_data) for get_us_ticker_data
    .\objects\mbed_wait_api_rtos.o(i.wait_us) refers to .\objects\mbed_ticker_api.o(i.ticker_read) for ticker_read
    .\objects\mbed_wait_api_rtos.o(i.wait_us) refers to .\objects\mbed_critical.o(i.core_util_are_interrupts_enabled) for core_util_are_interrupts_enabled
    .\objects\mbed_wait_api_rtos.o(i.wait_us) refers to .\objects\mbed_sleep_manager.o(i.sleep_manager_lock_deep_sleep_internal) for sleep_manager_lock_deep_sleep_internal
    .\objects\mbed_wait_api_rtos.o(i.wait_us) refers to .\objects\thisthread.o(i._ZN4rtos10ThisThread9sleep_forEj) for rtos::ThisThread::sleep_for(unsigned)
    .\objects\mbed_wait_api_rtos.o(i.wait_us) refers to .\objects\mbed_sleep_manager.o(i.sleep_manager_unlock_deep_sleep_internal) for sleep_manager_unlock_deep_sleep_internal
    .\objects\mbed_wait_api_rtos.o(.ARM.exidx) refers to .\objects\mbed_wait_api_rtos.o(i.wait_us) for i.wait_us
    .\objects\mbed_wait_api_rtos.o(.ARM.exidx) refers to .\objects\mbed_wait_api_rtos.o(i.wait) for i.wait
    .\objects\mbed_wait_api_rtos.o(.ARM.exidx) refers to .\objects\mbed_wait_api_rtos.o(i.wait_ms) for i.wait_ms
    .\objects\stream.o(i._ZN4mbed6Stream4getcEv) refers to D:\ProgramFiles\Keil_v5\ARM\ARMCC\Bin\..\lib\armlib\c_w.l(fflush_locked.o)(.text) for fflush
    .\objects\stream.o(i._ZN4mbed6Stream4getcEv) refers to .\objects\mbed_retarget.o(i._ZN4mbed9mbed_getcEPSt6__FILE) for mbed::mbed_getc(std::__FILE*)
    .\objects\stream.o(i._ZN4mbed6Stream4getsEPci) refers to D:\ProgramFiles\Keil_v5\ARM\ARMCC\Bin\..\lib\armlib\c_w.l(fflush_locked.o)(.text) for fflush
    .\objects\stream.o(i._ZN4mbed6Stream4getsEPci) refers to .\objects\mbed_retarget.o(i._ZN4mbed9mbed_getsEPciPSt6__FILE) for mbed::mbed_gets(char*, int, std::__FILE*)
    .\objects\stream.o(i._ZN4mbed6Stream4putcEi) refers to D:\ProgramFiles\Keil_v5\ARM\ARMCC\Bin\..\lib\armlib\c_w.l(fflush_locked.o)(.text) for fflush
    .\objects\stream.o(i._ZN4mbed6Stream4putcEi) refers to D:\ProgramFiles\Keil_v5\ARM\ARMCC\Bin\..\lib\armlib\c_w.l(fputc_locked.o)(.text) for fputc
    .\objects\stream.o(i._ZN4mbed6Stream4putsEPKc) refers to D:\ProgramFiles\Keil_v5\ARM\ARMCC\Bin\..\lib\armlib\c_w.l(fflush_locked.o)(.text) for fflush
    .\objects\stream.o(i._ZN4mbed6Stream4putsEPKc) refers to D:\ProgramFiles\Keil_v5\ARM\ARMCC\Bin\..\lib\armlib\c_w.l(fputs_locked.o)(.text) for fputs
    .\objects\stream.o(i._ZN4mbed6Stream5scanfEPKcz) refers to D:\ProgramFiles\Keil_v5\ARM\ARMCC\Bin\..\lib\armlib\c_w.l(fflush_locked.o)(.text) for fflush
    .\objects\stream.o(i._ZN4mbed6Stream5scanfEPKcz) refers to D:\ProgramFiles\Keil_v5\ARM\ARMCC\Bin\..\lib\armlib\c_w.l(vfscanf.o)(.text) for vfscanf
    .\objects\stream.o(i._ZN4mbed6Stream6printfEPKcz) refers to D:\ProgramFiles\Keil_v5\ARM\ARMCC\Bin\..\lib\armlib\c_w.l(fflush_locked.o)(.text) for fflush
    .\objects\stream.o(i._ZN4mbed6Stream6printfEPKcz) refers to D:\ProgramFiles\Keil_v5\ARM\ARMCC\Bin\..\lib\armlib\c_w.l(c89vfprintf.o)(.text) for __c89vfprintf
    .\objects\stream.o(i._ZN4mbed6Stream6vscanfEPKcSt9__va_list) refers to D:\ProgramFiles\Keil_v5\ARM\ARMCC\Bin\..\lib\armlib\c_w.l(fflush_locked.o)(.text) for fflush
    .\objects\stream.o(i._ZN4mbed6Stream6vscanfEPKcSt9__va_list) refers to D:\ProgramFiles\Keil_v5\ARM\ARMCC\Bin\..\lib\armlib\c_w.l(vfscanf.o)(.text) for vfscanf
    .\objects\stream.o(i._ZN4mbed6Stream7vprintfEPKcSt9__va_list) refers to D:\ProgramFiles\Keil_v5\ARM\ARMCC\Bin\..\lib\armlib\c_w.l(fflush_locked.o)(.text) for fflush
    .\objects\stream.o(i._ZN4mbed6Stream7vprintfEPKcSt9__va_list) refers to D:\ProgramFiles\Keil_v5\ARM\ARMCC\Bin\..\lib\armlib\c_w.l(c89vfprintf.o)(.text) for __c89vfprintf
    .\objects\stream.o(i._ZN4mbed6StreamC2EPKc) refers to .\objects\filebase.o(i._ZN4mbed8FileBaseC1EPKcNS_8PathTypeE) for mbed::FileBase::FileBase(const char*, mbed::PathType)
    .\objects\stream.o(i._ZN4mbed6StreamC2EPKc) refers to .\objects\mbed_retarget.o(i._ZN4mbed6fdopenEPNS_10FileHandleEPKc) for mbed::fdopen(mbed::FileHandle*, const char*)
    .\objects\stream.o(i._ZN4mbed6StreamC2EPKc) refers to .\objects\mbed_retarget.o(i._ZN4mbed26mbed_set_unbuffered_streamEPSt6__FILE) for mbed::mbed_set_unbuffered_stream(std::__FILE*)
    .\objects\stream.o(i._ZN4mbed6StreamC2EPKc) refers to .\objects\mbed_error.o(i.mbed_error) for mbed_error
    .\objects\stream.o(i._ZN4mbed6StreamC2EPKc) refers to .\objects\filehandle.o(.constdata__ZTVN4mbed10FileHandleE) for vtable for mbed::FileHandle
    .\objects\stream.o(i._ZN4mbed6StreamC2EPKc) refers to .\objects\stream.o(.constdata__ZTVN4mbed8FileLikeE) for vtable for mbed::FileLike
    .\objects\stream.o(i._ZN4mbed6StreamC2EPKc) refers to .\objects\stream.o(.constdata__ZTVN4mbed6StreamE) for vtable for mbed::Stream
    .\objects\stream.o(i._ZN4mbed6StreamD0Ev) refers to .\objects\stream.o(i._ZN4mbed6StreamD2Ev) for mbed::Stream::~Stream__sub_object()
    .\objects\stream.o(i._ZN4mbed6StreamD0Ev) refers to .\objects\mbed_retarget.o(i._ZdlPv) for operator delete (void*)
    .\objects\stream.o(i._ZN4mbed6StreamD2Ev) refers to D:\ProgramFiles\Keil_v5\ARM\ARMCC\Bin\..\lib\armlib\c_w.l(fclose_locked.o)(.text) for fclose
    .\objects\stream.o(i._ZN4mbed6StreamD2Ev) refers to .\objects\stream.o(i._ZN4mbed8FileLikeD2Ev) for mbed::FileLike::~FileLike__sub_object()
    .\objects\stream.o(i._ZN4mbed6StreamD2Ev) refers to .\objects\stream.o(.constdata__ZTVN4mbed6StreamE) for vtable for mbed::Stream
    .\objects\stream.o(i._ZThn4_N4mbed6StreamD0Ev) refers to .\objects\stream.o(i._ZN4mbed6StreamD0Ev) for mbed::Stream::~Stream__deallocating()
    .\objects\stream.o(i._ZThn4_N4mbed6StreamD1Ev) refers to .\objects\stream.o(i._ZN4mbed6StreamD2Ev) for mbed::Stream::~Stream__sub_object()
    .\objects\stream.o(.ARM.exidx) refers to .\objects\stream.o(i._ZN4mbed6StreamC2EPKc) for i._ZN4mbed6StreamC2EPKc
    .\objects\stream.o(.ARM.exidx) refers to .\objects\stream.o(i._ZN4mbed6StreamD2Ev) for i._ZN4mbed6StreamD2Ev
    .\objects\stream.o(.ARM.exidx) refers to .\objects\stream.o(i._ZN4mbed6StreamD0Ev) for i._ZN4mbed6StreamD0Ev
    .\objects\stream.o(.ARM.exidx) refers to .\objects\stream.o(i._ZThn4_N4mbed6StreamD0Ev) for i._ZThn4_N4mbed6StreamD0Ev
    .\objects\stream.o(.ARM.exidx) refers to .\objects\stream.o(i._ZThn4_N4mbed6StreamD1Ev) for i._ZThn4_N4mbed6StreamD1Ev
    .\objects\stream.o(.ARM.exidx) refers to .\objects\stream.o(i._ZN4mbed6Stream4putcEi) for i._ZN4mbed6Stream4putcEi
    .\objects\stream.o(.ARM.exidx) refers to .\objects\stream.o(i._ZN4mbed6Stream4putsEPKc) for i._ZN4mbed6Stream4putsEPKc
    .\objects\stream.o(.ARM.exidx) refers to .\objects\stream.o(i._ZN4mbed6Stream4getcEv) for i._ZN4mbed6Stream4getcEv
    .\objects\stream.o(.ARM.exidx) refers to .\objects\stream.o(i._ZN4mbed6Stream4getsEPci) for i._ZN4mbed6Stream4getsEPci
    .\objects\stream.o(.ARM.exidx) refers to .\objects\stream.o(i._ZN4mbed6Stream6printfEPKcz) for i._ZN4mbed6Stream6printfEPKcz
    .\objects\stream.o(.ARM.exidx) refers to .\objects\stream.o(i._ZN4mbed6Stream5scanfEPKcz) for i._ZN4mbed6Stream5scanfEPKcz
    .\objects\stream.o(.ARM.exidx) refers to .\objects\stream.o(i._ZN4mbed6Stream7vprintfEPKcSt9__va_list) for i._ZN4mbed6Stream7vprintfEPKcSt9__va_list
    .\objects\stream.o(.ARM.exidx) refers to .\objects\stream.o(i._ZN4mbed6Stream6vscanfEPKcSt9__va_list) for i._ZN4mbed6Stream6vscanfEPKcSt9__va_list
    .\objects\stream.o(.ARM.exidx) refers to .\objects\stream.o(i._ZN4mbed6Stream5closeEv) for i._ZN4mbed6Stream5closeEv
    .\objects\stream.o(.ARM.exidx) refers to .\objects\stream.o(i._ZN4mbed6Stream5writeEPKvj) for i._ZN4mbed6Stream5writeEPKvj
    .\objects\stream.o(.ARM.exidx) refers to .\objects\stream.o(i._ZN4mbed6Stream4readEPvj) for i._ZN4mbed6Stream4readEPvj
    .\objects\stream.o(.ARM.exidx) refers to .\objects\stream.o(i._ZN4mbed6Stream4seekEli) for i._ZN4mbed6Stream4seekEli
    .\objects\stream.o(.ARM.exidx) refers to .\objects\stream.o(i._ZN4mbed6Stream4tellEv) for i._ZN4mbed6Stream4tellEv
    .\objects\stream.o(.ARM.exidx) refers to .\objects\stream.o(i._ZN4mbed6Stream6rewindEv) for i._ZN4mbed6Stream6rewindEv
    .\objects\stream.o(.ARM.exidx) refers to .\objects\stream.o(i._ZN4mbed6Stream6isattyEv) for i._ZN4mbed6Stream6isattyEv
    .\objects\stream.o(.ARM.exidx) refers to .\objects\stream.o(i._ZN4mbed6Stream4syncEv) for i._ZN4mbed6Stream4syncEv
    .\objects\stream.o(.ARM.exidx) refers to .\objects\stream.o(i._ZN4mbed6Stream4sizeEv) for i._ZN4mbed6Stream4sizeEv
    .\objects\mbed_boot.o(i.mbed_init) refers to .\objects\mbed_boot.o(i.mbed_cpy_nvic) for mbed_cpy_nvic
    .\objects\mbed_boot.o(i.mbed_init) refers to .\objects\mbed_overrides.o(i.mbed_sdk_init) for mbed_sdk_init
    .\objects\mbed_boot.o(i.mbed_init) refers to .\objects\mbed_rtos_rtx.o(i.mbed_rtos_init) for mbed_rtos_init
    .\objects\mbed_boot.o(i.mbed_start) refers to .\objects\mbed_boot_arm_std.o(i.mbed_toolchain_init) for mbed_toolchain_init
    .\objects\mbed_boot.o(i.mbed_start) refers to .\objects\mbed_boot.o(i.mbed_main) for mbed_main
    .\objects\mbed_boot.o(i.mbed_start) refers to .\objects\main.o(i.main) for main
    .\objects\mbed_rtos_rtx.o(i.mbed_rtos_init) refers to .\objects\rtx_kernel.o(i.osKernelInitialize) for osKernelInitialize
    .\objects\mbed_rtos_rtx.o(i.mbed_rtos_start) refers to .\objects\rtx_mutex.o(i.osMutexNew) for osMutexNew
    .\objects\mbed_rtos_rtx.o(i.mbed_rtos_start) refers to .\objects\rtx_thread.o(i.osThreadNew) for osThreadNew
    .\objects\mbed_rtos_rtx.o(i.mbed_rtos_start) refers to .\objects\mbed_error.o(i.mbed_error) for mbed_error
    .\objects\mbed_rtos_rtx.o(i.mbed_rtos_start) refers to .\objects\rtx_kernel.o(i.osKernelStart) for osKernelStart
    .\objects\mbed_rtos_rtx.o(i.mbed_rtos_start) refers to .\objects\mbed_rtos_rtx.o(.bss) for singleton_mutex_attr
    .\objects\mbed_rtos_rtx.o(i.mbed_rtos_start) refers to .\objects\mbed_rtos_rtx.o(.data) for singleton_mutex_id
    .\objects\mbed_rtos_rtx.o(i.mbed_rtos_start) refers to .\objects\mbed_boot.o(i.mbed_start) for mbed_start
    .\objects\mbed_rtx_handlers.o(i.EvrRtxThreadExit) refers to .\objects\rtx_thread.o(i.osThreadGetId) for osThreadGetId
    .\objects\mbed_rtx_handlers.o(i.EvrRtxThreadExit) refers to .\objects\mbed_rtx_handlers.o(i.thread_terminate_hook) for thread_terminate_hook
    .\objects\mbed_rtx_handlers.o(i.EvrRtxThreadTerminate) refers to .\objects\mbed_rtx_handlers.o(i.thread_terminate_hook) for thread_terminate_hook
    .\objects\mbed_rtx_handlers.o(i.osRtxErrorNotify) refers to .\objects\rtx_thread.o(i.osThreadGetId) for osThreadGetId
    .\objects\mbed_rtx_handlers.o(i.osRtxErrorNotify) refers to .\objects\mbed_error.o(i.mbed_error) for mbed_error
    .\objects\mbed_rtx_handlers.o(i.osRtxIdleThread) refers to .\objects\mbed_rtx_idle.o(i.rtos_idle_loop) for rtos_idle_loop
    .\objects\mbed_rtx_handlers.o(i.rtos_attach_thread_terminate_hook) refers to .\objects\mbed_rtx_handlers.o(.data) for terminate_hook
    .\objects\mbed_rtx_handlers.o(i.thread_terminate_hook) refers to .\objects\mbed_rtx_handlers.o(.data) for terminate_hook
    .\objects\mbed_rtx_idle.o(i._Z17default_idle_hookv) refers to .\objects\mbed_critical.o(i.core_util_critical_section_enter) for core_util_critical_section_enter
    .\objects\mbed_rtx_idle.o(i._Z17default_idle_hookv) refers to .\objects\mbed_sleep_manager.o(i.sleep_manager_lock_deep_sleep_internal) for sleep_manager_lock_deep_sleep_internal
    .\objects\mbed_rtx_idle.o(i._Z17default_idle_hookv) refers to .\objects\mbed_sleep_manager.o(i.sleep_manager_sleep_auto) for sleep_manager_sleep_auto
    .\objects\mbed_rtx_idle.o(i._Z17default_idle_hookv) refers to .\objects\mbed_sleep_manager.o(i.sleep_manager_unlock_deep_sleep_internal) for sleep_manager_unlock_deep_sleep_internal
    .\objects\mbed_rtx_idle.o(i._Z17default_idle_hookv) refers to .\objects\mbed_critical.o(i.core_util_critical_section_exit) for core_util_critical_section_exit
    .\objects\mbed_rtx_idle.o(i.rtos_attach_idle_hook) refers to .\objects\mbed_rtx_idle.o(.data) for idle_hook_fptr
    .\objects\mbed_rtx_idle.o(i.rtos_attach_idle_hook) refers to .\objects\mbed_rtx_idle.o(i._Z17default_idle_hookv) for default_idle_hook()
    .\objects\mbed_rtx_idle.o(i.rtos_idle_loop) refers to .\objects\mbed_rtx_idle.o(.data) for idle_hook_fptr
    .\objects\mbed_rtx_idle.o(.ARM.exidx) refers to .\objects\mbed_rtx_idle.o(i._Z17default_idle_hookv) for i._Z17default_idle_hookv
    .\objects\mbed_rtx_idle.o(.ARM.exidx) refers to .\objects\mbed_rtx_idle.o(i.rtos_attach_idle_hook) for i.rtos_attach_idle_hook
    .\objects\mbed_rtx_idle.o(.ARM.exidx) refers to .\objects\mbed_rtx_idle.o(i.rtos_idle_loop) for i.rtos_idle_loop
    .\objects\mbed_rtx_idle.o(.data) refers to .\objects\mbed_rtx_idle.o(i._Z17default_idle_hookv) for default_idle_hook()
    .\objects\systimer.o(i._ZN4rtos8internal8SysTimer11cancel_tickEv) refers to .\objects\mbed_critical.o(i.core_util_critical_section_enter) for core_util_critical_section_enter
    .\objects\systimer.o(i._ZN4rtos8internal8SysTimer11cancel_tickEv) refers to .\objects\timerevent.o(i._ZN4mbed10TimerEvent6removeEv) for mbed::TimerEvent::remove()
    .\objects\systimer.o(i._ZN4rtos8internal8SysTimer11cancel_tickEv) refers to .\objects\mbed_critical.o(i.core_util_critical_section_exit) for core_util_critical_section_exit
    .\objects\systimer.o(i._ZN4rtos8internal8SysTimer13schedule_tickEj) refers to .\objects\mbed_critical.o(i.core_util_critical_section_enter) for core_util_critical_section_enter
    .\objects\systimer.o(i._ZN4rtos8internal8SysTimer13schedule_tickEj) refers to D:\ProgramFiles\Keil_v5\ARM\ARMCC\Bin\..\lib\armlib\c_w.l(lludivv7m.o)(.text) for __aeabi_uldivmod
    .\objects\systimer.o(i._ZN4rtos8internal8SysTimer13schedule_tickEj) refers to .\objects\timerevent.o(i._ZN4mbed10TimerEvent15insert_absoluteEy) for mbed::TimerEvent::insert_absolute(unsigned long long)
    .\objects\systimer.o(i._ZN4rtos8internal8SysTimer13schedule_tickEj) refers to .\objects\mbed_critical.o(i.core_util_critical_section_exit) for core_util_critical_section_exit
    .\objects\systimer.o(i._ZN4rtos8internal8SysTimer6resumeEv) refers to .\objects\mbed_critical.o(i.core_util_critical_section_enter) for core_util_critical_section_enter
    .\objects\systimer.o(i._ZN4rtos8internal8SysTimer6resumeEv) refers to .\objects\timerevent.o(i._ZN4mbed10TimerEvent6removeEv) for mbed::TimerEvent::remove()
    .\objects\systimer.o(i._ZN4rtos8internal8SysTimer6resumeEv) refers to .\objects\mbed_ticker_api.o(i.ticker_read_us) for ticker_read_us
    .\objects\systimer.o(i._ZN4rtos8internal8SysTimer6resumeEv) refers to D:\ProgramFiles\Keil_v5\ARM\ARMCC\Bin\..\lib\armlib\c_w.l(lludivv7m.o)(.text) for __aeabi_uldivmod
    .\objects\systimer.o(i._ZN4rtos8internal8SysTimer6resumeEv) refers to .\objects\mbed_critical.o(i.core_util_critical_section_exit) for core_util_critical_section_exit
    .\objects\systimer.o(i._ZN4rtos8internal8SysTimer7handlerEv) refers to .\objects\mbed_critical.o(i.core_util_critical_section_enter) for core_util_critical_section_enter
    .\objects\systimer.o(i._ZN4rtos8internal8SysTimer7handlerEv) refers to .\objects\systimer.o(i._ZN4rtos8internal8SysTimer16_set_irq_pendingEv) for rtos::internal::SysTimer::_set_irq_pending()
    .\objects\systimer.o(i._ZN4rtos8internal8SysTimer7handlerEv) refers to .\objects\systimer.o(i._ZN4rtos8internal8SysTimer15_increment_tickEv) for rtos::internal::SysTimer::_increment_tick()
    .\objects\systimer.o(i._ZN4rtos8internal8SysTimer7handlerEv) refers to .\objects\systimer.o(i._ZN4rtos8internal8SysTimer13schedule_tickEj) for rtos::internal::SysTimer::schedule_tick(unsigned)
    .\objects\systimer.o(i._ZN4rtos8internal8SysTimer7handlerEv) refers to .\objects\mbed_critical.o(i.core_util_critical_section_exit) for core_util_critical_section_exit
    .\objects\systimer.o(i._ZN4rtos8internal8SysTimer7suspendEj) refers to .\objects\mbed_critical.o(i.core_util_critical_section_enter) for core_util_critical_section_enter
    .\objects\systimer.o(i._ZN4rtos8internal8SysTimer7suspendEj) refers to .\objects\timerevent.o(i._ZN4mbed10TimerEvent6removeEv) for mbed::TimerEvent::remove()
    .\objects\systimer.o(i._ZN4rtos8internal8SysTimer7suspendEj) refers to .\objects\systimer.o(i._ZN4rtos8internal8SysTimer13schedule_tickEj) for rtos::internal::SysTimer::schedule_tick(unsigned)
    .\objects\systimer.o(i._ZN4rtos8internal8SysTimer7suspendEj) refers to .\objects\mbed_critical.o(i.core_util_critical_section_exit) for core_util_critical_section_exit
    .\objects\systimer.o(i._ZN4rtos8internal8SysTimer8get_timeEv) refers to .\objects\mbed_ticker_api.o(i.ticker_read_us) for ticker_read_us
    .\objects\systimer.o(i._ZN4rtos8internal8SysTimer9setup_irqEv) refers to .\objects\os_systick.o(i.OS_Tick_Setup) for OS_Tick_Setup
    .\objects\systimer.o(i._ZN4rtos8internal8SysTimer9setup_irqEv) refers to .\objects\rtx_lib.o(.rodata) for osRtxConfig
    .\objects\systimer.o(i._ZN4rtos8internal8SysTimer9setup_irqEv) refers to .\objects\irq_cm4f.o(.text) for SysTick_Handler
    .\objects\systimer.o(i._ZN4rtos8internal8SysTimerC1EPK13ticker_data_t) refers to .\objects\timerevent.o(i._ZN4mbed10TimerEventC2EPK13ticker_data_t) for mbed::TimerEvent::TimerEvent__sub_object(const ticker_data_t*)
    .\objects\systimer.o(i._ZN4rtos8internal8SysTimerC1EPK13ticker_data_t) refers to .\objects\mbed_ticker_api.o(i.ticker_read_us) for ticker_read_us
    .\objects\systimer.o(i._ZN4rtos8internal8SysTimerC1EPK13ticker_data_t) refers to .\objects\systimer.o(.constdata__ZTVN4rtos8internal8SysTimerE) for vtable for rtos::internal::SysTimer
    .\objects\systimer.o(i._ZN4rtos8internal8SysTimerC1Ev) refers to .\objects\mbed_lp_ticker_api.o(i.get_lp_ticker_data) for get_lp_ticker_data
    .\objects\systimer.o(i._ZN4rtos8internal8SysTimerC1Ev) refers to .\objects\timerevent.o(i._ZN4mbed10TimerEventC2EPK13ticker_data_t) for mbed::TimerEvent::TimerEvent__sub_object(const ticker_data_t*)
    .\objects\systimer.o(i._ZN4rtos8internal8SysTimerC1Ev) refers to .\objects\mbed_ticker_api.o(i.ticker_read_us) for ticker_read_us
    .\objects\systimer.o(i._ZN4rtos8internal8SysTimerC1Ev) refers to .\objects\systimer.o(.constdata__ZTVN4rtos8internal8SysTimerE) for vtable for rtos::internal::SysTimer
    .\objects\systimer.o(i._ZN4rtos8internal8SysTimerD0Ev) refers to .\objects\systimer.o(i._ZN4rtos8internal8SysTimerD1Ev) for rtos::internal::SysTimer::~SysTimer()
    .\objects\systimer.o(i._ZN4rtos8internal8SysTimerD0Ev) refers to .\objects\mbed_retarget.o(i._ZdlPv) for operator delete (void*)
    .\objects\systimer.o(i._ZN4rtos8internal8SysTimerD1Ev) refers to .\objects\timerevent.o(i._ZN4mbed10TimerEventD2Ev) for mbed::TimerEvent::~TimerEvent__sub_object()
    .\objects\systimer.o(.ARM.exidx) refers to .\objects\systimer.o(i._ZN4rtos8internal8SysTimerC1Ev) for i._ZN4rtos8internal8SysTimerC1Ev
    .\objects\systimer.o(.ARM.exidx) refers to .\objects\systimer.o(i._ZN4rtos8internal8SysTimerC1EPK13ticker_data_t) for i._ZN4rtos8internal8SysTimerC1EPK13ticker_data_t
    .\objects\systimer.o(.ARM.exidx) refers to .\objects\systimer.o(i._ZN4rtos8internal8SysTimerD1Ev) for i._ZN4rtos8internal8SysTimerD1Ev
    .\objects\systimer.o(.ARM.exidx) refers to .\objects\systimer.o(i._ZN4rtos8internal8SysTimerD0Ev) for i._ZN4rtos8internal8SysTimerD0Ev
    .\objects\systimer.o(.ARM.exidx) refers to .\objects\systimer.o(i._ZN4rtos8internal8SysTimer9setup_irqEv) for i._ZN4rtos8internal8SysTimer9setup_irqEv
    .\objects\systimer.o(.ARM.exidx) refers to .\objects\systimer.o(i._ZN4rtos8internal8SysTimer13schedule_tickEj) for i._ZN4rtos8internal8SysTimer13schedule_tickEj
    .\objects\systimer.o(.ARM.exidx) refers to .\objects\systimer.o(i._ZN4rtos8internal8SysTimer7suspendEj) for i._ZN4rtos8internal8SysTimer7suspendEj
    .\objects\systimer.o(.ARM.exidx) refers to .\objects\systimer.o(i._ZN4rtos8internal8SysTimer19suspend_time_passedEv) for i._ZN4rtos8internal8SysTimer19suspend_time_passedEv
    .\objects\systimer.o(.ARM.exidx) refers to .\objects\systimer.o(i._ZN4rtos8internal8SysTimer6resumeEv) for i._ZN4rtos8internal8SysTimer6resumeEv
    .\objects\systimer.o(.ARM.exidx) refers to .\objects\systimer.o(i._ZN4rtos8internal8SysTimer11cancel_tickEv) for i._ZN4rtos8internal8SysTimer11cancel_tickEv
    .\objects\systimer.o(.ARM.exidx) refers to .\objects\systimer.o(i._ZN4rtos8internal8SysTimer8get_tickEv) for i._ZN4rtos8internal8SysTimer8get_tickEv
    .\objects\systimer.o(.ARM.exidx) refers to .\objects\systimer.o(i._ZN4rtos8internal8SysTimer8get_timeEv) for i._ZN4rtos8internal8SysTimer8get_timeEv
    .\objects\systimer.o(.ARM.exidx) refers to .\objects\systimer.o(i._ZN4rtos8internal8SysTimer15_increment_tickEv) for i._ZN4rtos8internal8SysTimer15_increment_tickEv
    .\objects\systimer.o(.ARM.exidx) refers to .\objects\systimer.o(i._ZN4rtos8internal8SysTimer16_set_irq_pendingEv) for i._ZN4rtos8internal8SysTimer16_set_irq_pendingEv
    .\objects\systimer.o(.ARM.exidx) refers to .\objects\systimer.o(i._ZN4rtos8internal8SysTimer7handlerEv) for i._ZN4rtos8internal8SysTimer7handlerEv
    .\objects\cmsis_os1.o(i.osMailAlloc) refers to .\objects\rtx_mempool.o(i.osMemoryPoolAlloc) for osMemoryPoolAlloc
    .\objects\cmsis_os1.o(i.osMailCAlloc) refers to .\objects\rtx_mempool.o(i.osMemoryPoolGetBlockSize) for osMemoryPoolGetBlockSize
    .\objects\cmsis_os1.o(i.osMailCAlloc) refers to .\objects\rtx_mempool.o(i.osMemoryPoolAlloc) for osMemoryPoolAlloc
    .\objects\cmsis_os1.o(i.osMailCAlloc) refers to D:\ProgramFiles\Keil_v5\ARM\ARMCC\Bin\..\lib\armlib\c_w.l(rt_memclr.o)(.text) for __aeabi_memclr
    .\objects\cmsis_os1.o(i.osMailCreate) refers to .\objects\rtx_mempool.o(i.osMemoryPoolNew) for osMemoryPoolNew
    .\objects\cmsis_os1.o(i.osMailCreate) refers to .\objects\rtx_msgqueue.o(i.osMessageQueueNew) for osMessageQueueNew
    .\objects\cmsis_os1.o(i.osMailCreate) refers to .\objects\rtx_mempool.o(i.osMemoryPoolDelete) for osMemoryPoolDelete
    .\objects\cmsis_os1.o(i.osMailCreate) refers to .\objects\rtx_msgqueue.o(i.osMessageQueueDelete) for osMessageQueueDelete
    .\objects\cmsis_os1.o(i.osMailFree) refers to .\objects\rtx_mempool.o(i.osMemoryPoolFree) for osMemoryPoolFree
    .\objects\cmsis_os1.o(i.osMailGet) refers to .\objects\rtx_msgqueue.o(i.osMessageQueueGet) for osMessageQueueGet
    .\objects\cmsis_os1.o(i.osMailPut) refers to .\objects\rtx_msgqueue.o(i.osMessageQueuePut) for osMessageQueuePut
    .\objects\cmsis_os1.o(i.osMessageCreate) refers to .\objects\rtx_msgqueue.o(i.osMessageQueueNew) for osMessageQueueNew
    .\objects\cmsis_os1.o(i.osMessageGet) refers to .\objects\rtx_msgqueue.o(i.osMessageQueueGet) for osMessageQueueGet
    .\objects\cmsis_os1.o(i.osMessagePut) refers to .\objects\rtx_msgqueue.o(i.osMessageQueuePut) for osMessageQueuePut
    .\objects\cmsis_os1.o(i.osMutexCreate) refers to .\objects\rtx_mutex.o(i.osMutexNew) for osMutexNew
    .\objects\cmsis_os1.o(i.osPoolAlloc) refers to .\objects\rtx_mempool.o(i.osMemoryPoolAlloc) for osMemoryPoolAlloc
    .\objects\cmsis_os1.o(i.osPoolCAlloc) refers to .\objects\rtx_mempool.o(i.osMemoryPoolGetBlockSize) for osMemoryPoolGetBlockSize
    .\objects\cmsis_os1.o(i.osPoolCAlloc) refers to .\objects\rtx_mempool.o(i.osMemoryPoolAlloc) for osMemoryPoolAlloc
    .\objects\cmsis_os1.o(i.osPoolCAlloc) refers to D:\ProgramFiles\Keil_v5\ARM\ARMCC\Bin\..\lib\armlib\c_w.l(rt_memclr.o)(.text) for __aeabi_memclr
    .\objects\cmsis_os1.o(i.osPoolCreate) refers to .\objects\rtx_mempool.o(i.osMemoryPoolNew) for osMemoryPoolNew
    .\objects\cmsis_os1.o(i.osPoolFree) refers to .\objects\rtx_mempool.o(i.osMemoryPoolFree) for osMemoryPoolFree
    .\objects\cmsis_os1.o(i.osSemaphoreCreate) refers to .\objects\rtx_semaphore.o(i.osSemaphoreNew) for osSemaphoreNew
    .\objects\cmsis_os1.o(i.osSemaphoreWait) refers to .\objects\rtx_semaphore.o(i.osSemaphoreAcquire) for osSemaphoreAcquire
    .\objects\cmsis_os1.o(i.osSemaphoreWait) refers to .\objects\rtx_semaphore.o(i.osSemaphoreGetCount) for osSemaphoreGetCount
    .\objects\cmsis_os1.o(i.osSignalClear) refers to .\objects\rtx_thread.o(i.osThreadGetId) for osThreadGetId
    .\objects\cmsis_os1.o(i.osSignalClear) refers to .\objects\rtx_thread.o(i.osThreadFlagsClear) for osThreadFlagsClear
    .\objects\cmsis_os1.o(i.osSignalSet) refers to .\objects\rtx_thread.o(i.osThreadFlagsSet) for osThreadFlagsSet
    .\objects\cmsis_os1.o(i.osSignalWait) refers to .\objects\rtx_thread.o(i.osThreadFlagsWait) for osThreadFlagsWait
    .\objects\cmsis_os1.o(i.osThreadCreate) refers to .\objects\rtx_thread.o(i.osThreadNew) for osThreadNew
    .\objects\cmsis_os1.o(i.osTimerCreate) refers to .\objects\rtx_timer.o(i.osTimerNew) for osTimerNew
    .\objects\os_systick.o(i.OS_Tick_Disable) refers to .\objects\os_systick.o(.data) for PendST
    .\objects\os_systick.o(i.OS_Tick_Enable) refers to .\objects\os_systick.o(.data) for PendST
    .\objects\os_systick.o(i.OS_Tick_GetClock) refers to .\objects\system_stm32f4xx.o(.data) for SystemCoreClock
    .\objects\os_systick.o(i.OS_Tick_Setup) refers to .\objects\system_stm32f4xx.o(.data) for SystemCoreClock
    .\objects\os_systick.o(i.OS_Tick_Setup) refers to .\objects\os_systick.o(.data) for PendST
    .\objects\rtx_delay.o(i.osDelay) refers to .\objects\rtx_delay.o(i.IsIrqMode) for IsIrqMode
    .\objects\rtx_delay.o(i.osDelay) refers to .\objects\rtx_delay.o(i.IsIrqMasked) for IsIrqMasked
    .\objects\rtx_delay.o(i.osDelay) refers to .\objects\rtx_evr.o(i.EvrRtxThreadError) for EvrRtxThreadError
    .\objects\rtx_delay.o(i.osDelay) refers to .\objects\rtx_delay.o(i.svcRtxDelay) for svcRtxDelay
    .\objects\rtx_delay.o(i.osDelayUntil) refers to .\objects\rtx_delay.o(i.IsIrqMode) for IsIrqMode
    .\objects\rtx_delay.o(i.osDelayUntil) refers to .\objects\rtx_delay.o(i.IsIrqMasked) for IsIrqMasked
    .\objects\rtx_delay.o(i.osDelayUntil) refers to .\objects\rtx_evr.o(i.EvrRtxThreadError) for EvrRtxThreadError
    .\objects\rtx_delay.o(i.osDelayUntil) refers to .\objects\rtx_delay.o(i.svcRtxDelayUntil) for svcRtxDelayUntil
    .\objects\rtx_delay.o(i.svcRtxDelay) refers to .\objects\rtx_thread.o(i.osRtxThreadWaitEnter) for osRtxThreadWaitEnter
    .\objects\rtx_delay.o(i.svcRtxDelayUntil) refers to .\objects\rtx_evr.o(i.EvrRtxThreadError) for EvrRtxThreadError
    .\objects\rtx_delay.o(i.svcRtxDelayUntil) refers to .\objects\rtx_thread.o(i.osRtxThreadWaitEnter) for osRtxThreadWaitEnter
    .\objects\rtx_delay.o(i.svcRtxDelayUntil) refers to .\objects\rtx_kernel.o(.data.os) for osRtxInfo
    .\objects\rtx_evflags.o(i.EventFlagsCheck) refers to .\objects\rtx_evflags.o(.emb_text) for __asm___13_rtx_evflags_c_e167c757__atomic_chk32_all
    .\objects\rtx_evflags.o(i.EventFlagsClear) refers to .\objects\rtx_evflags.o(.emb_text) for __asm___13_rtx_evflags_c_e167c757__atomic_clr32
    .\objects\rtx_evflags.o(i.EventFlagsSet) refers to .\objects\rtx_evflags.o(.emb_text) for __asm___13_rtx_evflags_c_e167c757__atomic_set32
    .\objects\rtx_evflags.o(i.osEventFlagsClear) refers to .\objects\rtx_evflags.o(i.IsIrqMode) for IsIrqMode
    .\objects\rtx_evflags.o(i.osEventFlagsClear) refers to .\objects\rtx_evflags.o(i.IsIrqMasked) for IsIrqMasked
    .\objects\rtx_evflags.o(i.osEventFlagsClear) refers to .\objects\rtx_evflags.o(i.svcRtxEventFlagsClear) for svcRtxEventFlagsClear
    .\objects\rtx_evflags.o(i.osEventFlagsDelete) refers to .\objects\rtx_evflags.o(i.IsIrqMode) for IsIrqMode
    .\objects\rtx_evflags.o(i.osEventFlagsDelete) refers to .\objects\rtx_evflags.o(i.IsIrqMasked) for IsIrqMasked
    .\objects\rtx_evflags.o(i.osEventFlagsDelete) refers to .\objects\rtx_evr.o(i.EvrRtxEventFlagsError) for EvrRtxEventFlagsError
    .\objects\rtx_evflags.o(i.osEventFlagsDelete) refers to .\objects\rtx_evflags.o(i.svcRtxEventFlagsDelete) for svcRtxEventFlagsDelete
    .\objects\rtx_evflags.o(i.osEventFlagsGet) refers to .\objects\rtx_evflags.o(i.IsIrqMode) for IsIrqMode
    .\objects\rtx_evflags.o(i.osEventFlagsGet) refers to .\objects\rtx_evflags.o(i.IsIrqMasked) for IsIrqMasked
    .\objects\rtx_evflags.o(i.osEventFlagsGet) refers to .\objects\rtx_evflags.o(i.svcRtxEventFlagsGet) for svcRtxEventFlagsGet
    .\objects\rtx_evflags.o(i.osEventFlagsGetName) refers to .\objects\rtx_evflags.o(i.IsIrqMode) for IsIrqMode
    .\objects\rtx_evflags.o(i.osEventFlagsGetName) refers to .\objects\rtx_evflags.o(i.IsIrqMasked) for IsIrqMasked
    .\objects\rtx_evflags.o(i.osEventFlagsGetName) refers to .\objects\rtx_evflags.o(i.svcRtxEventFlagsGetName) for svcRtxEventFlagsGetName
    .\objects\rtx_evflags.o(i.osEventFlagsNew) refers to .\objects\rtx_evflags.o(i.IsIrqMode) for IsIrqMode
    .\objects\rtx_evflags.o(i.osEventFlagsNew) refers to .\objects\rtx_evflags.o(i.IsIrqMasked) for IsIrqMasked
    .\objects\rtx_evflags.o(i.osEventFlagsNew) refers to .\objects\rtx_evr.o(i.EvrRtxEventFlagsError) for EvrRtxEventFlagsError
    .\objects\rtx_evflags.o(i.osEventFlagsNew) refers to .\objects\rtx_evflags.o(i.svcRtxEventFlagsNew) for svcRtxEventFlagsNew
    .\objects\rtx_evflags.o(i.osEventFlagsSet) refers to .\objects\rtx_evflags.o(i.IsIrqMode) for IsIrqMode
    .\objects\rtx_evflags.o(i.osEventFlagsSet) refers to .\objects\rtx_evflags.o(i.IsIrqMasked) for IsIrqMasked
    .\objects\rtx_evflags.o(i.osEventFlagsSet) refers to .\objects\rtx_evr.o(i.EvrRtxEventFlagsError) for EvrRtxEventFlagsError
    .\objects\rtx_evflags.o(i.osEventFlagsSet) refers to .\objects\rtx_evflags.o(i.EventFlagsSet) for EventFlagsSet
    .\objects\rtx_evflags.o(i.osEventFlagsSet) refers to .\objects\rtx_system.o(i.osRtxPostProcess) for osRtxPostProcess
    .\objects\rtx_evflags.o(i.osEventFlagsSet) refers to .\objects\rtx_evflags.o(i.svcRtxEventFlagsSet) for svcRtxEventFlagsSet
    .\objects\rtx_evflags.o(i.osEventFlagsWait) refers to .\objects\rtx_evflags.o(i.IsIrqMode) for IsIrqMode
    .\objects\rtx_evflags.o(i.osEventFlagsWait) refers to .\objects\rtx_evflags.o(i.IsIrqMasked) for IsIrqMasked
    .\objects\rtx_evflags.o(i.osEventFlagsWait) refers to .\objects\rtx_evr.o(i.EvrRtxEventFlagsError) for EvrRtxEventFlagsError
    .\objects\rtx_evflags.o(i.osEventFlagsWait) refers to .\objects\rtx_evflags.o(i.EventFlagsCheck) for EventFlagsCheck
    .\objects\rtx_evflags.o(i.osEventFlagsWait) refers to .\objects\rtx_evflags.o(i.svcRtxEventFlagsWait) for svcRtxEventFlagsWait
    .\objects\rtx_evflags.o(i.osRtxEventFlagsPostProcess) refers to .\objects\rtx_evflags.o(i.EventFlagsCheck) for EventFlagsCheck
    .\objects\rtx_evflags.o(i.osRtxEventFlagsPostProcess) refers to .\objects\rtx_thread.o(i.osRtxThreadListRemove) for osRtxThreadListRemove
    .\objects\rtx_evflags.o(i.osRtxEventFlagsPostProcess) refers to .\objects\rtx_thread.o(i.osRtxThreadWaitExit) for osRtxThreadWaitExit
    .\objects\rtx_evflags.o(i.svcRtxEventFlagsClear) refers to .\objects\rtx_evr.o(i.EvrRtxEventFlagsError) for EvrRtxEventFlagsError
    .\objects\rtx_evflags.o(i.svcRtxEventFlagsClear) refers to .\objects\rtx_evflags.o(i.EventFlagsClear) for EventFlagsClear
    .\objects\rtx_evflags.o(i.svcRtxEventFlagsDelete) refers to .\objects\rtx_evr.o(i.EvrRtxEventFlagsError) for EvrRtxEventFlagsError
    .\objects\rtx_evflags.o(i.svcRtxEventFlagsDelete) refers to .\objects\rtx_thread.o(i.osRtxThreadListGet) for osRtxThreadListGet
    .\objects\rtx_evflags.o(i.svcRtxEventFlagsDelete) refers to .\objects\rtx_thread.o(i.osRtxThreadWaitExit) for osRtxThreadWaitExit
    .\objects\rtx_evflags.o(i.svcRtxEventFlagsDelete) refers to .\objects\rtx_thread.o(i.osRtxThreadDispatch) for osRtxThreadDispatch
    .\objects\rtx_evflags.o(i.svcRtxEventFlagsDelete) refers to .\objects\rtx_mempool.o(i.osRtxMemoryPoolFree) for osRtxMemoryPoolFree
    .\objects\rtx_evflags.o(i.svcRtxEventFlagsDelete) refers to .\objects\rtx_memory.o(i.osRtxMemoryFree) for osRtxMemoryFree
    .\objects\rtx_evflags.o(i.svcRtxEventFlagsDelete) refers to .\objects\rtx_kernel.o(.data.os) for osRtxInfo
    .\objects\rtx_evflags.o(i.svcRtxEventFlagsNew) refers to .\objects\rtx_evr.o(i.EvrRtxEventFlagsError) for EvrRtxEventFlagsError
    .\objects\rtx_evflags.o(i.svcRtxEventFlagsNew) refers to .\objects\rtx_mempool.o(i.osRtxMemoryPoolAlloc) for osRtxMemoryPoolAlloc
    .\objects\rtx_evflags.o(i.svcRtxEventFlagsNew) refers to .\objects\rtx_memory.o(i.osRtxMemoryAlloc) for osRtxMemoryAlloc
    .\objects\rtx_evflags.o(i.svcRtxEventFlagsNew) refers to .\objects\rtx_kernel.o(.data.os) for osRtxInfo
    .\objects\rtx_evflags.o(i.svcRtxEventFlagsNew) refers to .\objects\rtx_evflags.o(i.osRtxEventFlagsPostProcess) for osRtxEventFlagsPostProcess
    .\objects\rtx_evflags.o(i.svcRtxEventFlagsSet) refers to .\objects\rtx_evr.o(i.EvrRtxEventFlagsError) for EvrRtxEventFlagsError
    .\objects\rtx_evflags.o(i.svcRtxEventFlagsSet) refers to .\objects\rtx_evflags.o(i.EventFlagsSet) for EventFlagsSet
    .\objects\rtx_evflags.o(i.svcRtxEventFlagsSet) refers to .\objects\rtx_evflags.o(i.EventFlagsCheck) for EventFlagsCheck
    .\objects\rtx_evflags.o(i.svcRtxEventFlagsSet) refers to .\objects\rtx_thread.o(i.osRtxThreadListRemove) for osRtxThreadListRemove
    .\objects\rtx_evflags.o(i.svcRtxEventFlagsSet) refers to .\objects\rtx_thread.o(i.osRtxThreadWaitExit) for osRtxThreadWaitExit
    .\objects\rtx_evflags.o(i.svcRtxEventFlagsSet) refers to .\objects\rtx_thread.o(i.osRtxThreadDispatch) for osRtxThreadDispatch
    .\objects\rtx_evflags.o(i.svcRtxEventFlagsWait) refers to .\objects\rtx_evr.o(i.EvrRtxEventFlagsError) for EvrRtxEventFlagsError
    .\objects\rtx_evflags.o(i.svcRtxEventFlagsWait) refers to .\objects\rtx_evflags.o(i.EventFlagsCheck) for EventFlagsCheck
    .\objects\rtx_evflags.o(i.svcRtxEventFlagsWait) refers to .\objects\rtx_thread.o(i.osRtxThreadWaitEnter) for osRtxThreadWaitEnter
    .\objects\rtx_evflags.o(i.svcRtxEventFlagsWait) refers to .\objects\rtx_thread.o(i.osRtxThreadListPut) for osRtxThreadListPut
    .\objects\rtx_evflags.o(i.svcRtxEventFlagsWait) refers to .\objects\rtx_kernel.o(.data.os) for osRtxInfo
    .\objects\rtx_kernel.o(i.KernelBlock) refers to .\objects\os_systick.o(i.OS_Tick_Disable) for OS_Tick_Disable
    .\objects\rtx_kernel.o(i.KernelBlock) refers to .\objects\rtx_kernel.o(.data.os) for osRtxInfo
    .\objects\rtx_kernel.o(i.KernelUnblock) refers to .\objects\os_systick.o(i.OS_Tick_Enable) for OS_Tick_Enable
    .\objects\rtx_kernel.o(i.KernelUnblock) refers to .\objects\rtx_kernel.o(.data.os) for osRtxInfo
    .\objects\rtx_kernel.o(i.osKernelGetInfo) refers to .\objects\rtx_kernel.o(i.IsIrqMode) for IsIrqMode
    .\objects\rtx_kernel.o(i.osKernelGetInfo) refers to .\objects\rtx_kernel.o(i.IsIrqMasked) for IsIrqMasked
    .\objects\rtx_kernel.o(i.osKernelGetInfo) refers to .\objects\rtx_kernel.o(i.IsPrivileged) for IsPrivileged
    .\objects\rtx_kernel.o(i.osKernelGetInfo) refers to .\objects\rtx_kernel.o(i.svcRtxKernelGetInfo) for svcRtxKernelGetInfo
    .\objects\rtx_kernel.o(i.osKernelGetState) refers to .\objects\rtx_kernel.o(i.IsIrqMode) for IsIrqMode
    .\objects\rtx_kernel.o(i.osKernelGetState) refers to .\objects\rtx_kernel.o(i.IsIrqMasked) for IsIrqMasked
    .\objects\rtx_kernel.o(i.osKernelGetState) refers to .\objects\rtx_kernel.o(i.IsPrivileged) for IsPrivileged
    .\objects\rtx_kernel.o(i.osKernelGetState) refers to .\objects\rtx_kernel.o(i.svcRtxKernelGetState) for svcRtxKernelGetState
    .\objects\rtx_kernel.o(i.osKernelGetSysTimerCount) refers to .\objects\rtx_kernel.o(i.IsIrqMode) for IsIrqMode
    .\objects\rtx_kernel.o(i.osKernelGetSysTimerCount) refers to .\objects\rtx_kernel.o(i.IsIrqMasked) for IsIrqMasked
    .\objects\rtx_kernel.o(i.osKernelGetSysTimerCount) refers to .\objects\rtx_kernel.o(i.svcRtxKernelGetSysTimerCount) for svcRtxKernelGetSysTimerCount
    .\objects\rtx_kernel.o(i.osKernelGetSysTimerFreq) refers to .\objects\rtx_kernel.o(i.IsIrqMode) for IsIrqMode
    .\objects\rtx_kernel.o(i.osKernelGetSysTimerFreq) refers to .\objects\rtx_kernel.o(i.IsIrqMasked) for IsIrqMasked
    .\objects\rtx_kernel.o(i.osKernelGetSysTimerFreq) refers to .\objects\rtx_kernel.o(i.svcRtxKernelGetSysTimerFreq) for svcRtxKernelGetSysTimerFreq
    .\objects\rtx_kernel.o(i.osKernelGetTickCount) refers to .\objects\rtx_kernel.o(i.IsIrqMode) for IsIrqMode
    .\objects\rtx_kernel.o(i.osKernelGetTickCount) refers to .\objects\rtx_kernel.o(i.IsIrqMasked) for IsIrqMasked
    .\objects\rtx_kernel.o(i.osKernelGetTickCount) refers to .\objects\rtx_kernel.o(i.svcRtxKernelGetTickCount) for svcRtxKernelGetTickCount
    .\objects\rtx_kernel.o(i.osKernelGetTickFreq) refers to .\objects\rtx_kernel.o(i.IsIrqMode) for IsIrqMode
    .\objects\rtx_kernel.o(i.osKernelGetTickFreq) refers to .\objects\rtx_kernel.o(i.IsIrqMasked) for IsIrqMasked
    .\objects\rtx_kernel.o(i.osKernelGetTickFreq) refers to .\objects\rtx_kernel.o(i.svcRtxKernelGetTickFreq) for svcRtxKernelGetTickFreq
    .\objects\rtx_kernel.o(i.osKernelInitialize) refers to .\objects\rtx_lib.o(i.osRtxKernelPreInit) for osRtxKernelPreInit
    .\objects\rtx_kernel.o(i.osKernelInitialize) refers to .\objects\rtx_kernel.o(i.IsIrqMode) for IsIrqMode
    .\objects\rtx_kernel.o(i.osKernelInitialize) refers to .\objects\rtx_kernel.o(i.IsIrqMasked) for IsIrqMasked
    .\objects\rtx_kernel.o(i.osKernelInitialize) refers to .\objects\rtx_evr.o(i.EvrRtxKernelError) for EvrRtxKernelError
    .\objects\rtx_kernel.o(i.osKernelInitialize) refers to .\objects\rtx_kernel.o(i.svcRtxKernelInitialize) for svcRtxKernelInitialize
    .\objects\rtx_kernel.o(i.osKernelLock) refers to .\objects\rtx_kernel.o(i.IsIrqMode) for IsIrqMode
    .\objects\rtx_kernel.o(i.osKernelLock) refers to .\objects\rtx_kernel.o(i.IsIrqMasked) for IsIrqMasked
    .\objects\rtx_kernel.o(i.osKernelLock) refers to .\objects\rtx_evr.o(i.EvrRtxKernelError) for EvrRtxKernelError
    .\objects\rtx_kernel.o(i.osKernelLock) refers to .\objects\rtx_kernel.o(i.svcRtxKernelLock) for svcRtxKernelLock
    .\objects\rtx_kernel.o(i.osKernelRestoreLock) refers to .\objects\rtx_kernel.o(i.IsIrqMode) for IsIrqMode
    .\objects\rtx_kernel.o(i.osKernelRestoreLock) refers to .\objects\rtx_kernel.o(i.IsIrqMasked) for IsIrqMasked
    .\objects\rtx_kernel.o(i.osKernelRestoreLock) refers to .\objects\rtx_evr.o(i.EvrRtxKernelError) for EvrRtxKernelError
    .\objects\rtx_kernel.o(i.osKernelRestoreLock) refers to .\objects\rtx_kernel.o(i.svcRtxKernelRestoreLock) for svcRtxKernelRestoreLock
    .\objects\rtx_kernel.o(i.osKernelResume) refers to .\objects\rtx_kernel.o(i.IsIrqMode) for IsIrqMode
    .\objects\rtx_kernel.o(i.osKernelResume) refers to .\objects\rtx_kernel.o(i.IsIrqMasked) for IsIrqMasked
    .\objects\rtx_kernel.o(i.osKernelResume) refers to .\objects\rtx_evr.o(i.EvrRtxKernelError) for EvrRtxKernelError
    .\objects\rtx_kernel.o(i.osKernelResume) refers to .\objects\rtx_kernel.o(i.svcRtxKernelResume) for svcRtxKernelResume
    .\objects\rtx_kernel.o(i.osKernelStart) refers to .\objects\rtx_kernel.o(i.IsIrqMode) for IsIrqMode
    .\objects\rtx_kernel.o(i.osKernelStart) refers to .\objects\rtx_kernel.o(i.IsIrqMasked) for IsIrqMasked
    .\objects\rtx_kernel.o(i.osKernelStart) refers to .\objects\rtx_evr.o(i.EvrRtxKernelError) for EvrRtxKernelError
    .\objects\rtx_kernel.o(i.osKernelStart) refers to .\objects\rtx_kernel.o(i.svcRtxKernelStart) for svcRtxKernelStart
    .\objects\rtx_kernel.o(i.osKernelSuspend) refers to .\objects\rtx_kernel.o(i.IsIrqMode) for IsIrqMode
    .\objects\rtx_kernel.o(i.osKernelSuspend) refers to .\objects\rtx_kernel.o(i.IsIrqMasked) for IsIrqMasked
    .\objects\rtx_kernel.o(i.osKernelSuspend) refers to .\objects\rtx_evr.o(i.EvrRtxKernelError) for EvrRtxKernelError
    .\objects\rtx_kernel.o(i.osKernelSuspend) refers to .\objects\rtx_kernel.o(i.svcRtxKernelSuspend) for svcRtxKernelSuspend
    .\objects\rtx_kernel.o(i.osKernelUnlock) refers to .\objects\rtx_kernel.o(i.IsIrqMode) for IsIrqMode
    .\objects\rtx_kernel.o(i.osKernelUnlock) refers to .\objects\rtx_kernel.o(i.IsIrqMasked) for IsIrqMasked
    .\objects\rtx_kernel.o(i.osKernelUnlock) refers to .\objects\rtx_evr.o(i.EvrRtxKernelError) for EvrRtxKernelError
    .\objects\rtx_kernel.o(i.osKernelUnlock) refers to .\objects\rtx_kernel.o(i.svcRtxKernelUnlock) for svcRtxKernelUnlock
    .\objects\rtx_kernel.o(i.svcRtxKernelGetInfo) refers to D:\ProgramFiles\Keil_v5\ARM\ARMCC\Bin\..\lib\armlib\c_w.l(rt_memcpy_v6.o)(.text) for __aeabi_memcpy
    .\objects\rtx_kernel.o(i.svcRtxKernelGetState) refers to .\objects\rtx_kernel.o(.data.os) for osRtxInfo
    .\objects\rtx_kernel.o(i.svcRtxKernelGetSysTimerCount) refers to .\objects\os_systick.o(i.OS_Tick_GetCount) for OS_Tick_GetCount
    .\objects\rtx_kernel.o(i.svcRtxKernelGetSysTimerCount) refers to .\objects\os_systick.o(i.OS_Tick_GetOverflow) for OS_Tick_GetOverflow
    .\objects\rtx_kernel.o(i.svcRtxKernelGetSysTimerCount) refers to .\objects\os_systick.o(i.OS_Tick_GetInterval) for OS_Tick_GetInterval
    .\objects\rtx_kernel.o(i.svcRtxKernelGetSysTimerCount) refers to .\objects\rtx_kernel.o(.data.os) for osRtxInfo
    .\objects\rtx_kernel.o(i.svcRtxKernelGetSysTimerFreq) refers to .\objects\os_systick.o(i.OS_Tick_GetClock) for OS_Tick_GetClock
    .\objects\rtx_kernel.o(i.svcRtxKernelGetTickCount) refers to .\objects\rtx_kernel.o(.data.os) for osRtxInfo
    .\objects\rtx_kernel.o(i.svcRtxKernelGetTickFreq) refers to .\objects\rtx_lib.o(.rodata) for osRtxConfig
    .\objects\rtx_kernel.o(i.svcRtxKernelInitialize) refers to .\objects\rtx_evr.o(i.EvrRtxKernelError) for EvrRtxKernelError
    .\objects\rtx_kernel.o(i.svcRtxKernelInitialize) refers to D:\ProgramFiles\Keil_v5\ARM\ARMCC\Bin\..\lib\armlib\c_w.l(rt_memclr_w.o)(.text) for __aeabi_memclr4
    .\objects\rtx_kernel.o(i.svcRtxKernelInitialize) refers to .\objects\rtx_memory.o(i.osRtxMemoryInit) for osRtxMemoryInit
    .\objects\rtx_kernel.o(i.svcRtxKernelInitialize) refers to .\objects\rtx_mempool.o(i.osRtxMemoryPoolInit) for osRtxMemoryPoolInit
    .\objects\rtx_kernel.o(i.svcRtxKernelInitialize) refers to .\objects\rtx_kernel.o(.data.os) for osRtxInfo
    .\objects\rtx_kernel.o(i.svcRtxKernelInitialize) refers to .\objects\rtx_lib.o(.rodata) for osRtxConfig
    .\objects\rtx_kernel.o(i.svcRtxKernelLock) refers to .\objects\rtx_evr.o(i.EvrRtxKernelError) for EvrRtxKernelError
    .\objects\rtx_kernel.o(i.svcRtxKernelLock) refers to .\objects\rtx_kernel.o(.data.os) for osRtxInfo
    .\objects\rtx_kernel.o(i.svcRtxKernelRestoreLock) refers to .\objects\rtx_evr.o(i.EvrRtxKernelError) for EvrRtxKernelError
    .\objects\rtx_kernel.o(i.svcRtxKernelRestoreLock) refers to .\objects\rtx_kernel.o(.data.os) for osRtxInfo
    .\objects\rtx_kernel.o(i.svcRtxKernelResume) refers to .\objects\rtx_thread.o(i.osRtxThreadDelayTick) for osRtxThreadDelayTick
    .\objects\rtx_kernel.o(i.svcRtxKernelResume) refers to .\objects\rtx_thread.o(i.osRtxThreadDispatch) for osRtxThreadDispatch
    .\objects\rtx_kernel.o(i.svcRtxKernelResume) refers to .\objects\rtx_kernel.o(i.KernelUnblock) for KernelUnblock
    .\objects\rtx_kernel.o(i.svcRtxKernelResume) refers to .\objects\rtx_kernel.o(.data.os) for osRtxInfo
    .\objects\rtx_kernel.o(i.svcRtxKernelStart) refers to .\objects\rtx_evr.o(i.EvrRtxKernelError) for EvrRtxKernelError
    .\objects\rtx_kernel.o(i.svcRtxKernelStart) refers to .\objects\rtx_thread.o(i.osRtxThreadStartup) for osRtxThreadStartup
    .\objects\rtx_kernel.o(i.svcRtxKernelStart) refers to .\objects\os_systick.o(i.OS_Tick_Setup) for OS_Tick_Setup
    .\objects\rtx_kernel.o(i.svcRtxKernelStart) refers to .\objects\os_systick.o(i.OS_Tick_GetIRQn) for OS_Tick_GetIRQn
    .\objects\rtx_kernel.o(i.svcRtxKernelStart) refers to .\objects\os_systick.o(i.OS_Tick_Enable) for OS_Tick_Enable
    .\objects\rtx_kernel.o(i.svcRtxKernelStart) refers to .\objects\rtx_thread.o(i.osRtxThreadListGet) for osRtxThreadListGet
    .\objects\rtx_kernel.o(i.svcRtxKernelStart) refers to .\objects\rtx_thread.o(i.osRtxThreadSwitch) for osRtxThreadSwitch
    .\objects\rtx_kernel.o(i.svcRtxKernelStart) refers to .\objects\rtx_kernel.o(.data.os) for osRtxInfo
    .\objects\rtx_kernel.o(i.svcRtxKernelStart) refers to .\objects\rtx_lib.o(.rodata) for osRtxConfig
    .\objects\rtx_kernel.o(i.svcRtxKernelStart) refers to .\objects\irq_cm4f.o(.text) for SysTick_Handler
    .\objects\rtx_kernel.o(i.svcRtxKernelSuspend) refers to .\objects\rtx_evr.o(i.EvrRtxKernelError) for EvrRtxKernelError
    .\objects\rtx_kernel.o(i.svcRtxKernelSuspend) refers to .\objects\rtx_kernel.o(i.KernelBlock) for KernelBlock
    .\objects\rtx_kernel.o(i.svcRtxKernelSuspend) refers to .\objects\rtx_kernel.o(.data.os) for osRtxInfo
    .\objects\rtx_kernel.o(i.svcRtxKernelUnlock) refers to .\objects\rtx_evr.o(i.EvrRtxKernelError) for EvrRtxKernelError
    .\objects\rtx_kernel.o(i.svcRtxKernelUnlock) refers to .\objects\rtx_kernel.o(.data.os) for osRtxInfo
    .\objects\rtx_kernel.o(.data.os) refers to .\objects\rtx_kernel.o(.conststrlit) for .conststrlit
    .\objects\rtx_lib.o(i._platform_post_stackheap_init) refers to .\objects\rtx_kernel.o(i.osKernelInitialize) for osKernelInitialize
    .\objects\rtx_lib.o(.constdata) refers to .\objects\rtx_lib.o(.conststring) for .conststring
    .\objects\rtx_lib.o(.constdata) refers to .\objects\rtx_lib.o(.bss.os.thread.cb) for os_idle_thread_cb
    .\objects\rtx_lib.o(.constdata) refers to .\objects\rtx_lib.o(.bss.os.thread.stack) for os_idle_thread_stack
    .\objects\rtx_lib.o(.constdata) refers to .\objects\rtx_lib.o(.bss.os.msgqueue.cb) for os_timer_mq_cb
    .\objects\rtx_lib.o(.constdata) refers to .\objects\rtx_lib.o(.bss.os.msgqueue.mem) for os_timer_mq_data
    .\objects\rtx_lib.o(.data) refers to .\objects\irq_cm4f.o(.constdata) for irqRtxLib
    .\objects\rtx_lib.o(.rodata) refers to .\objects\rtx_lib.o(.bss.os) for os_isr_queue
    .\objects\rtx_lib.o(.rodata) refers to .\objects\rtx_lib.o(.constdata) for os_idle_thread_attr
    .\objects\rtx_memory.o(i.osRtxMemoryAlloc) refers to .\objects\rtx_memory.o(i.MemBlockPtr) for MemBlockPtr
    .\objects\rtx_memory.o(i.osRtxMemoryFree) refers to .\objects\rtx_memory.o(i.MemBlockPtr) for MemBlockPtr
    .\objects\rtx_memory.o(i.osRtxMemoryInit) refers to .\objects\rtx_memory.o(i.MemBlockPtr) for MemBlockPtr
    .\objects\rtx_mempool.o(i.osMemoryPoolAlloc) refers to .\objects\rtx_mempool.o(i.IsIrqMode) for IsIrqMode
    .\objects\rtx_mempool.o(i.osMemoryPoolAlloc) refers to .\objects\rtx_mempool.o(i.IsIrqMasked) for IsIrqMasked
    .\objects\rtx_mempool.o(i.osMemoryPoolAlloc) refers to .\objects\rtx_evr.o(i.EvrRtxMemoryPoolError) for EvrRtxMemoryPoolError
    .\objects\rtx_mempool.o(i.osMemoryPoolAlloc) refers to .\objects\rtx_mempool.o(i.osRtxMemoryPoolAlloc) for osRtxMemoryPoolAlloc
    .\objects\rtx_mempool.o(i.osMemoryPoolAlloc) refers to .\objects\rtx_mempool.o(i.svcRtxMemoryPoolAlloc) for svcRtxMemoryPoolAlloc
    .\objects\rtx_mempool.o(i.osMemoryPoolDelete) refers to .\objects\rtx_mempool.o(i.IsIrqMode) for IsIrqMode
    .\objects\rtx_mempool.o(i.osMemoryPoolDelete) refers to .\objects\rtx_mempool.o(i.IsIrqMasked) for IsIrqMasked
    .\objects\rtx_mempool.o(i.osMemoryPoolDelete) refers to .\objects\rtx_evr.o(i.EvrRtxMemoryPoolError) for EvrRtxMemoryPoolError
    .\objects\rtx_mempool.o(i.osMemoryPoolDelete) refers to .\objects\rtx_mempool.o(i.svcRtxMemoryPoolDelete) for svcRtxMemoryPoolDelete
    .\objects\rtx_mempool.o(i.osMemoryPoolFree) refers to .\objects\rtx_mempool.o(i.IsIrqMode) for IsIrqMode
    .\objects\rtx_mempool.o(i.osMemoryPoolFree) refers to .\objects\rtx_mempool.o(i.IsIrqMasked) for IsIrqMasked
    .\objects\rtx_mempool.o(i.osMemoryPoolFree) refers to .\objects\rtx_evr.o(i.EvrRtxMemoryPoolError) for EvrRtxMemoryPoolError
    .\objects\rtx_mempool.o(i.osMemoryPoolFree) refers to .\objects\rtx_mempool.o(i.osRtxMemoryPoolFree) for osRtxMemoryPoolFree
    .\objects\rtx_mempool.o(i.osMemoryPoolFree) refers to .\objects\rtx_system.o(i.osRtxPostProcess) for osRtxPostProcess
    .\objects\rtx_mempool.o(i.osMemoryPoolFree) refers to .\objects\rtx_mempool.o(i.svcRtxMemoryPoolFree) for svcRtxMemoryPoolFree
    .\objects\rtx_mempool.o(i.osMemoryPoolGetBlockSize) refers to .\objects\rtx_mempool.o(i.IsIrqMode) for IsIrqMode
    .\objects\rtx_mempool.o(i.osMemoryPoolGetBlockSize) refers to .\objects\rtx_mempool.o(i.IsIrqMasked) for IsIrqMasked
    .\objects\rtx_mempool.o(i.osMemoryPoolGetBlockSize) refers to .\objects\rtx_mempool.o(i.svcRtxMemoryPoolGetBlockSize) for svcRtxMemoryPoolGetBlockSize
    .\objects\rtx_mempool.o(i.osMemoryPoolGetCapacity) refers to .\objects\rtx_mempool.o(i.IsIrqMode) for IsIrqMode
    .\objects\rtx_mempool.o(i.osMemoryPoolGetCapacity) refers to .\objects\rtx_mempool.o(i.IsIrqMasked) for IsIrqMasked
    .\objects\rtx_mempool.o(i.osMemoryPoolGetCapacity) refers to .\objects\rtx_mempool.o(i.svcRtxMemoryPoolGetCapacity) for svcRtxMemoryPoolGetCapacity
    .\objects\rtx_mempool.o(i.osMemoryPoolGetCount) refers to .\objects\rtx_mempool.o(i.IsIrqMode) for IsIrqMode
    .\objects\rtx_mempool.o(i.osMemoryPoolGetCount) refers to .\objects\rtx_mempool.o(i.IsIrqMasked) for IsIrqMasked
    .\objects\rtx_mempool.o(i.osMemoryPoolGetCount) refers to .\objects\rtx_mempool.o(i.svcRtxMemoryPoolGetCount) for svcRtxMemoryPoolGetCount
    .\objects\rtx_mempool.o(i.osMemoryPoolGetName) refers to .\objects\rtx_mempool.o(i.IsIrqMode) for IsIrqMode
    .\objects\rtx_mempool.o(i.osMemoryPoolGetName) refers to .\objects\rtx_mempool.o(i.IsIrqMasked) for IsIrqMasked
    .\objects\rtx_mempool.o(i.osMemoryPoolGetName) refers to .\objects\rtx_mempool.o(i.svcRtxMemoryPoolGetName) for svcRtxMemoryPoolGetName
    .\objects\rtx_mempool.o(i.osMemoryPoolGetSpace) refers to .\objects\rtx_mempool.o(i.IsIrqMode) for IsIrqMode
    .\objects\rtx_mempool.o(i.osMemoryPoolGetSpace) refers to .\objects\rtx_mempool.o(i.IsIrqMasked) for IsIrqMasked
    .\objects\rtx_mempool.o(i.osMemoryPoolGetSpace) refers to .\objects\rtx_mempool.o(i.svcRtxMemoryPoolGetSpace) for svcRtxMemoryPoolGetSpace
    .\objects\rtx_mempool.o(i.osMemoryPoolNew) refers to .\objects\rtx_mempool.o(i.IsIrqMode) for IsIrqMode
    .\objects\rtx_mempool.o(i.osMemoryPoolNew) refers to .\objects\rtx_mempool.o(i.IsIrqMasked) for IsIrqMasked
    .\objects\rtx_mempool.o(i.osMemoryPoolNew) refers to .\objects\rtx_evr.o(i.EvrRtxMemoryPoolError) for EvrRtxMemoryPoolError
    .\objects\rtx_mempool.o(i.osMemoryPoolNew) refers to .\objects\rtx_mempool.o(i.svcRtxMemoryPoolNew) for svcRtxMemoryPoolNew
    .\objects\rtx_mempool.o(i.osRtxMemoryPoolAlloc) refers to .\objects\rtx_mempool.o(.emb_text) for __asm___13_rtx_mempool_c_7914b4c7__atomic_link_get
    .\objects\rtx_mempool.o(i.osRtxMemoryPoolFree) refers to .\objects\rtx_mempool.o(.emb_text) for __asm___13_rtx_mempool_c_7914b4c7__atomic_link_put
    .\objects\rtx_mempool.o(i.osRtxMemoryPoolPostProcess) refers to .\objects\rtx_mempool.o(i.osRtxMemoryPoolAlloc) for osRtxMemoryPoolAlloc
    .\objects\rtx_mempool.o(i.osRtxMemoryPoolPostProcess) refers to .\objects\rtx_thread.o(i.osRtxThreadListGet) for osRtxThreadListGet
    .\objects\rtx_mempool.o(i.osRtxMemoryPoolPostProcess) refers to .\objects\rtx_thread.o(i.osRtxThreadWaitExit) for osRtxThreadWaitExit
    .\objects\rtx_mempool.o(i.svcRtxMemoryPoolAlloc) refers to .\objects\rtx_evr.o(i.EvrRtxMemoryPoolError) for EvrRtxMemoryPoolError
    .\objects\rtx_mempool.o(i.svcRtxMemoryPoolAlloc) refers to .\objects\rtx_mempool.o(i.osRtxMemoryPoolAlloc) for osRtxMemoryPoolAlloc
    .\objects\rtx_mempool.o(i.svcRtxMemoryPoolAlloc) refers to .\objects\rtx_thread.o(i.osRtxThreadWaitEnter) for osRtxThreadWaitEnter
    .\objects\rtx_mempool.o(i.svcRtxMemoryPoolAlloc) refers to .\objects\rtx_thread.o(i.osRtxThreadListPut) for osRtxThreadListPut
    .\objects\rtx_mempool.o(i.svcRtxMemoryPoolAlloc) refers to .\objects\rtx_kernel.o(.data.os) for osRtxInfo
    .\objects\rtx_mempool.o(i.svcRtxMemoryPoolDelete) refers to .\objects\rtx_evr.o(i.EvrRtxMemoryPoolError) for EvrRtxMemoryPoolError
    .\objects\rtx_mempool.o(i.svcRtxMemoryPoolDelete) refers to .\objects\rtx_thread.o(i.osRtxThreadListGet) for osRtxThreadListGet
    .\objects\rtx_mempool.o(i.svcRtxMemoryPoolDelete) refers to .\objects\rtx_thread.o(i.osRtxThreadWaitExit) for osRtxThreadWaitExit
    .\objects\rtx_mempool.o(i.svcRtxMemoryPoolDelete) refers to .\objects\rtx_thread.o(i.osRtxThreadDispatch) for osRtxThreadDispatch
    .\objects\rtx_mempool.o(i.svcRtxMemoryPoolDelete) refers to .\objects\rtx_memory.o(i.osRtxMemoryFree) for osRtxMemoryFree
    .\objects\rtx_mempool.o(i.svcRtxMemoryPoolDelete) refers to .\objects\rtx_mempool.o(i.osRtxMemoryPoolFree) for osRtxMemoryPoolFree
    .\objects\rtx_mempool.o(i.svcRtxMemoryPoolDelete) refers to .\objects\rtx_kernel.o(.data.os) for osRtxInfo
    .\objects\rtx_mempool.o(i.svcRtxMemoryPoolFree) refers to .\objects\rtx_evr.o(i.EvrRtxMemoryPoolError) for EvrRtxMemoryPoolError
    .\objects\rtx_mempool.o(i.svcRtxMemoryPoolFree) refers to .\objects\rtx_mempool.o(i.osRtxMemoryPoolFree) for osRtxMemoryPoolFree
    .\objects\rtx_mempool.o(i.svcRtxMemoryPoolFree) refers to .\objects\rtx_mempool.o(i.osRtxMemoryPoolAlloc) for osRtxMemoryPoolAlloc
    .\objects\rtx_mempool.o(i.svcRtxMemoryPoolFree) refers to .\objects\rtx_thread.o(i.osRtxThreadListGet) for osRtxThreadListGet
    .\objects\rtx_mempool.o(i.svcRtxMemoryPoolFree) refers to .\objects\rtx_thread.o(i.osRtxThreadWaitExit) for osRtxThreadWaitExit
    .\objects\rtx_mempool.o(i.svcRtxMemoryPoolNew) refers to .\objects\rtx_evr.o(i.EvrRtxMemoryPoolError) for EvrRtxMemoryPoolError
    .\objects\rtx_mempool.o(i.svcRtxMemoryPoolNew) refers to .\objects\rtx_mempool.o(i.osRtxMemoryPoolAlloc) for osRtxMemoryPoolAlloc
    .\objects\rtx_mempool.o(i.svcRtxMemoryPoolNew) refers to .\objects\rtx_memory.o(i.osRtxMemoryAlloc) for osRtxMemoryAlloc
    .\objects\rtx_mempool.o(i.svcRtxMemoryPoolNew) refers to .\objects\rtx_mempool.o(i.osRtxMemoryPoolFree) for osRtxMemoryPoolFree
    .\objects\rtx_mempool.o(i.svcRtxMemoryPoolNew) refers to .\objects\rtx_memory.o(i.osRtxMemoryFree) for osRtxMemoryFree
    .\objects\rtx_mempool.o(i.svcRtxMemoryPoolNew) refers to D:\ProgramFiles\Keil_v5\ARM\ARMCC\Bin\..\lib\armlib\c_w.l(rt_memclr.o)(.text) for __aeabi_memclr
    .\objects\rtx_mempool.o(i.svcRtxMemoryPoolNew) refers to .\objects\rtx_mempool.o(i.osRtxMemoryPoolInit) for osRtxMemoryPoolInit
    .\objects\rtx_mempool.o(i.svcRtxMemoryPoolNew) refers to .\objects\rtx_kernel.o(.data.os) for osRtxInfo
    .\objects\rtx_mempool.o(i.svcRtxMemoryPoolNew) refers to .\objects\rtx_mempool.o(i.osRtxMemoryPoolPostProcess) for osRtxMemoryPoolPostProcess
    .\objects\rtx_msgqueue.o(i.MessageQueueGet) refers to .\objects\rtx_msgqueue.o(.emb_text) for __asm___14_rtx_msgqueue_c_ba128ae8__atomic_dec32_nz
    .\objects\rtx_msgqueue.o(i.MessageQueuePut) refers to .\objects\rtx_msgqueue.o(.emb_text) for __asm___14_rtx_msgqueue_c_ba128ae8__atomic_inc32
    .\objects\rtx_msgqueue.o(i.isrRtxMessageQueueGet) refers to .\objects\rtx_evr.o(i.EvrRtxMessageQueueError) for EvrRtxMessageQueueError
    .\objects\rtx_msgqueue.o(i.isrRtxMessageQueueGet) refers to .\objects\rtx_msgqueue.o(i.MessageQueueGet) for MessageQueueGet
    .\objects\rtx_msgqueue.o(i.isrRtxMessageQueueGet) refers to D:\ProgramFiles\Keil_v5\ARM\ARMCC\Bin\..\lib\armlib\c_w.l(rt_memcpy_v6.o)(.text) for __aeabi_memcpy
    .\objects\rtx_msgqueue.o(i.isrRtxMessageQueueGet) refers to .\objects\rtx_system.o(i.osRtxPostProcess) for osRtxPostProcess
    .\objects\rtx_msgqueue.o(i.isrRtxMessageQueuePut) refers to .\objects\rtx_evr.o(i.EvrRtxMessageQueueError) for EvrRtxMessageQueueError
    .\objects\rtx_msgqueue.o(i.isrRtxMessageQueuePut) refers to .\objects\rtx_mempool.o(i.osRtxMemoryPoolAlloc) for osRtxMemoryPoolAlloc
    .\objects\rtx_msgqueue.o(i.isrRtxMessageQueuePut) refers to D:\ProgramFiles\Keil_v5\ARM\ARMCC\Bin\..\lib\armlib\c_w.l(rt_memcpy_v6.o)(.text) for __aeabi_memcpy
    .\objects\rtx_msgqueue.o(i.isrRtxMessageQueuePut) refers to .\objects\rtx_system.o(i.osRtxPostProcess) for osRtxPostProcess
    .\objects\rtx_msgqueue.o(i.osMessageQueueDelete) refers to .\objects\rtx_msgqueue.o(i.IsIrqMode) for IsIrqMode
    .\objects\rtx_msgqueue.o(i.osMessageQueueDelete) refers to .\objects\rtx_msgqueue.o(i.IsIrqMasked) for IsIrqMasked
    .\objects\rtx_msgqueue.o(i.osMessageQueueDelete) refers to .\objects\rtx_evr.o(i.EvrRtxMessageQueueError) for EvrRtxMessageQueueError
    .\objects\rtx_msgqueue.o(i.osMessageQueueDelete) refers to .\objects\rtx_msgqueue.o(i.svcRtxMessageQueueDelete) for svcRtxMessageQueueDelete
    .\objects\rtx_msgqueue.o(i.osMessageQueueGet) refers to .\objects\rtx_msgqueue.o(i.IsIrqMode) for IsIrqMode
    .\objects\rtx_msgqueue.o(i.osMessageQueueGet) refers to .\objects\rtx_msgqueue.o(i.IsIrqMasked) for IsIrqMasked
    .\objects\rtx_msgqueue.o(i.osMessageQueueGet) refers to .\objects\rtx_msgqueue.o(i.isrRtxMessageQueueGet) for isrRtxMessageQueueGet
    .\objects\rtx_msgqueue.o(i.osMessageQueueGet) refers to .\objects\rtx_msgqueue.o(i.svcRtxMessageQueueGet) for svcRtxMessageQueueGet
    .\objects\rtx_msgqueue.o(i.osMessageQueueGetCapacity) refers to .\objects\rtx_msgqueue.o(i.IsIrqMode) for IsIrqMode
    .\objects\rtx_msgqueue.o(i.osMessageQueueGetCapacity) refers to .\objects\rtx_msgqueue.o(i.IsIrqMasked) for IsIrqMasked
    .\objects\rtx_msgqueue.o(i.osMessageQueueGetCapacity) refers to .\objects\rtx_msgqueue.o(i.svcRtxMessageQueueGetCapacity) for svcRtxMessageQueueGetCapacity
    .\objects\rtx_msgqueue.o(i.osMessageQueueGetCount) refers to .\objects\rtx_msgqueue.o(i.IsIrqMode) for IsIrqMode
    .\objects\rtx_msgqueue.o(i.osMessageQueueGetCount) refers to .\objects\rtx_msgqueue.o(i.IsIrqMasked) for IsIrqMasked
    .\objects\rtx_msgqueue.o(i.osMessageQueueGetCount) refers to .\objects\rtx_msgqueue.o(i.svcRtxMessageQueueGetCount) for svcRtxMessageQueueGetCount
    .\objects\rtx_msgqueue.o(i.osMessageQueueGetMsgSize) refers to .\objects\rtx_msgqueue.o(i.IsIrqMode) for IsIrqMode
    .\objects\rtx_msgqueue.o(i.osMessageQueueGetMsgSize) refers to .\objects\rtx_msgqueue.o(i.IsIrqMasked) for IsIrqMasked
    .\objects\rtx_msgqueue.o(i.osMessageQueueGetMsgSize) refers to .\objects\rtx_msgqueue.o(i.svcRtxMessageQueueGetMsgSize) for svcRtxMessageQueueGetMsgSize
    .\objects\rtx_msgqueue.o(i.osMessageQueueGetName) refers to .\objects\rtx_msgqueue.o(i.IsIrqMode) for IsIrqMode
    .\objects\rtx_msgqueue.o(i.osMessageQueueGetName) refers to .\objects\rtx_msgqueue.o(i.IsIrqMasked) for IsIrqMasked
    .\objects\rtx_msgqueue.o(i.osMessageQueueGetName) refers to .\objects\rtx_msgqueue.o(i.svcRtxMessageQueueGetName) for svcRtxMessageQueueGetName
    .\objects\rtx_msgqueue.o(i.osMessageQueueGetSpace) refers to .\objects\rtx_msgqueue.o(i.IsIrqMode) for IsIrqMode
    .\objects\rtx_msgqueue.o(i.osMessageQueueGetSpace) refers to .\objects\rtx_msgqueue.o(i.IsIrqMasked) for IsIrqMasked
    .\objects\rtx_msgqueue.o(i.osMessageQueueGetSpace) refers to .\objects\rtx_msgqueue.o(i.svcRtxMessageQueueGetSpace) for svcRtxMessageQueueGetSpace
    .\objects\rtx_msgqueue.o(i.osMessageQueueNew) refers to .\objects\rtx_msgqueue.o(i.IsIrqMode) for IsIrqMode
    .\objects\rtx_msgqueue.o(i.osMessageQueueNew) refers to .\objects\rtx_msgqueue.o(i.IsIrqMasked) for IsIrqMasked
    .\objects\rtx_msgqueue.o(i.osMessageQueueNew) refers to .\objects\rtx_evr.o(i.EvrRtxMessageQueueError) for EvrRtxMessageQueueError
    .\objects\rtx_msgqueue.o(i.osMessageQueueNew) refers to .\objects\rtx_msgqueue.o(i.svcRtxMessageQueueNew) for svcRtxMessageQueueNew
    .\objects\rtx_msgqueue.o(i.osMessageQueuePut) refers to .\objects\rtx_msgqueue.o(i.IsIrqMode) for IsIrqMode
    .\objects\rtx_msgqueue.o(i.osMessageQueuePut) refers to .\objects\rtx_msgqueue.o(i.IsIrqMasked) for IsIrqMasked
    .\objects\rtx_msgqueue.o(i.osMessageQueuePut) refers to .\objects\rtx_msgqueue.o(i.isrRtxMessageQueuePut) for isrRtxMessageQueuePut
    .\objects\rtx_msgqueue.o(i.osMessageQueuePut) refers to .\objects\rtx_msgqueue.o(i.svcRtxMessageQueuePut) for svcRtxMessageQueuePut
    .\objects\rtx_msgqueue.o(i.osMessageQueueReset) refers to .\objects\rtx_msgqueue.o(i.IsIrqMode) for IsIrqMode
    .\objects\rtx_msgqueue.o(i.osMessageQueueReset) refers to .\objects\rtx_msgqueue.o(i.IsIrqMasked) for IsIrqMasked
    .\objects\rtx_msgqueue.o(i.osMessageQueueReset) refers to .\objects\rtx_evr.o(i.EvrRtxMessageQueueError) for EvrRtxMessageQueueError
    .\objects\rtx_msgqueue.o(i.osMessageQueueReset) refers to .\objects\rtx_msgqueue.o(i.svcRtxMessageQueueReset) for svcRtxMessageQueueReset
    .\objects\rtx_msgqueue.o(i.osRtxMessageQueuePostProcess) refers to .\objects\rtx_msgqueue.o(i.MessageQueueRemove) for MessageQueueRemove
    .\objects\rtx_msgqueue.o(i.osRtxMessageQueuePostProcess) refers to .\objects\rtx_mempool.o(i.osRtxMemoryPoolFree) for osRtxMemoryPoolFree
    .\objects\rtx_msgqueue.o(i.osRtxMessageQueuePostProcess) refers to .\objects\rtx_mempool.o(i.osRtxMemoryPoolAlloc) for osRtxMemoryPoolAlloc
    .\objects\rtx_msgqueue.o(i.osRtxMessageQueuePostProcess) refers to .\objects\rtx_thread.o(i.osRtxThreadListGet) for osRtxThreadListGet
    .\objects\rtx_msgqueue.o(i.osRtxMessageQueuePostProcess) refers to .\objects\rtx_thread.o(i.osRtxThreadWaitExit) for osRtxThreadWaitExit
    .\objects\rtx_msgqueue.o(i.osRtxMessageQueuePostProcess) refers to .\objects\rtx_thread.o(i.osRtxThreadRegPtr) for osRtxThreadRegPtr
    .\objects\rtx_msgqueue.o(i.osRtxMessageQueuePostProcess) refers to D:\ProgramFiles\Keil_v5\ARM\ARMCC\Bin\..\lib\armlib\c_w.l(rt_memcpy_v6.o)(.text) for __aeabi_memcpy
    .\objects\rtx_msgqueue.o(i.osRtxMessageQueuePostProcess) refers to .\objects\rtx_msgqueue.o(i.MessageQueuePut) for MessageQueuePut
    .\objects\rtx_msgqueue.o(i.svcRtxMessageQueueDelete) refers to .\objects\rtx_evr.o(i.EvrRtxMessageQueueError) for EvrRtxMessageQueueError
    .\objects\rtx_msgqueue.o(i.svcRtxMessageQueueDelete) refers to .\objects\rtx_thread.o(i.osRtxThreadListGet) for osRtxThreadListGet
    .\objects\rtx_msgqueue.o(i.svcRtxMessageQueueDelete) refers to .\objects\rtx_thread.o(i.osRtxThreadWaitExit) for osRtxThreadWaitExit
    .\objects\rtx_msgqueue.o(i.svcRtxMessageQueueDelete) refers to .\objects\rtx_thread.o(i.osRtxThreadDispatch) for osRtxThreadDispatch
    .\objects\rtx_msgqueue.o(i.svcRtxMessageQueueDelete) refers to .\objects\rtx_memory.o(i.osRtxMemoryFree) for osRtxMemoryFree
    .\objects\rtx_msgqueue.o(i.svcRtxMessageQueueDelete) refers to .\objects\rtx_mempool.o(i.osRtxMemoryPoolFree) for osRtxMemoryPoolFree
    .\objects\rtx_msgqueue.o(i.svcRtxMessageQueueDelete) refers to .\objects\rtx_kernel.o(.data.os) for osRtxInfo
    .\objects\rtx_msgqueue.o(i.svcRtxMessageQueueGet) refers to .\objects\rtx_evr.o(i.EvrRtxMessageQueueError) for EvrRtxMessageQueueError
    .\objects\rtx_msgqueue.o(i.svcRtxMessageQueueGet) refers to .\objects\rtx_msgqueue.o(i.MessageQueueGet) for MessageQueueGet
    .\objects\rtx_msgqueue.o(i.svcRtxMessageQueueGet) refers to .\objects\rtx_msgqueue.o(i.MessageQueueRemove) for MessageQueueRemove
    .\objects\rtx_msgqueue.o(i.svcRtxMessageQueueGet) refers to D:\ProgramFiles\Keil_v5\ARM\ARMCC\Bin\..\lib\armlib\c_w.l(rt_memcpy_v6.o)(.text) for __aeabi_memcpy
    .\objects\rtx_msgqueue.o(i.svcRtxMessageQueueGet) refers to .\objects\rtx_mempool.o(i.osRtxMemoryPoolFree) for osRtxMemoryPoolFree
    .\objects\rtx_msgqueue.o(i.svcRtxMessageQueueGet) refers to .\objects\rtx_mempool.o(i.osRtxMemoryPoolAlloc) for osRtxMemoryPoolAlloc
    .\objects\rtx_msgqueue.o(i.svcRtxMessageQueueGet) refers to .\objects\rtx_thread.o(i.osRtxThreadListGet) for osRtxThreadListGet
    .\objects\rtx_msgqueue.o(i.svcRtxMessageQueueGet) refers to .\objects\rtx_thread.o(i.osRtxThreadWaitExit) for osRtxThreadWaitExit
    .\objects\rtx_msgqueue.o(i.svcRtxMessageQueueGet) refers to .\objects\rtx_thread.o(i.osRtxThreadRegPtr) for osRtxThreadRegPtr
    .\objects\rtx_msgqueue.o(i.svcRtxMessageQueueGet) refers to .\objects\rtx_msgqueue.o(i.MessageQueuePut) for MessageQueuePut
    .\objects\rtx_msgqueue.o(i.svcRtxMessageQueueGet) refers to .\objects\rtx_thread.o(i.osRtxThreadWaitEnter) for osRtxThreadWaitEnter
    .\objects\rtx_msgqueue.o(i.svcRtxMessageQueueGet) refers to .\objects\rtx_thread.o(i.osRtxThreadListPut) for osRtxThreadListPut
    .\objects\rtx_msgqueue.o(i.svcRtxMessageQueueGet) refers to .\objects\rtx_kernel.o(.data.os) for osRtxInfo
    .\objects\rtx_msgqueue.o(i.svcRtxMessageQueueNew) refers to .\objects\rtx_evr.o(i.EvrRtxMessageQueueError) for EvrRtxMessageQueueError
    .\objects\rtx_msgqueue.o(i.svcRtxMessageQueueNew) refers to .\objects\rtx_mempool.o(i.osRtxMemoryPoolAlloc) for osRtxMemoryPoolAlloc
    .\objects\rtx_msgqueue.o(i.svcRtxMessageQueueNew) refers to .\objects\rtx_memory.o(i.osRtxMemoryAlloc) for osRtxMemoryAlloc
    .\objects\rtx_msgqueue.o(i.svcRtxMessageQueueNew) refers to .\objects\rtx_mempool.o(i.osRtxMemoryPoolFree) for osRtxMemoryPoolFree
    .\objects\rtx_msgqueue.o(i.svcRtxMessageQueueNew) refers to .\objects\rtx_memory.o(i.osRtxMemoryFree) for osRtxMemoryFree
    .\objects\rtx_msgqueue.o(i.svcRtxMessageQueueNew) refers to D:\ProgramFiles\Keil_v5\ARM\ARMCC\Bin\..\lib\armlib\c_w.l(rt_memclr.o)(.text) for __aeabi_memclr
    .\objects\rtx_msgqueue.o(i.svcRtxMessageQueueNew) refers to .\objects\rtx_mempool.o(i.osRtxMemoryPoolInit) for osRtxMemoryPoolInit
    .\objects\rtx_msgqueue.o(i.svcRtxMessageQueueNew) refers to .\objects\rtx_kernel.o(.data.os) for osRtxInfo
    .\objects\rtx_msgqueue.o(i.svcRtxMessageQueueNew) refers to .\objects\rtx_msgqueue.o(i.osRtxMessageQueuePostProcess) for osRtxMessageQueuePostProcess
    .\objects\rtx_msgqueue.o(i.svcRtxMessageQueuePut) refers to .\objects\rtx_evr.o(i.EvrRtxMessageQueueError) for EvrRtxMessageQueueError
    .\objects\rtx_msgqueue.o(i.svcRtxMessageQueuePut) refers to .\objects\rtx_thread.o(i.osRtxThreadListGet) for osRtxThreadListGet
    .\objects\rtx_msgqueue.o(i.svcRtxMessageQueuePut) refers to .\objects\rtx_thread.o(i.osRtxThreadWaitExit) for osRtxThreadWaitExit
    .\objects\rtx_msgqueue.o(i.svcRtxMessageQueuePut) refers to .\objects\rtx_thread.o(i.osRtxThreadRegPtr) for osRtxThreadRegPtr
    .\objects\rtx_msgqueue.o(i.svcRtxMessageQueuePut) refers to D:\ProgramFiles\Keil_v5\ARM\ARMCC\Bin\..\lib\armlib\c_w.l(rt_memcpy_v6.o)(.text) for __aeabi_memcpy
    .\objects\rtx_msgqueue.o(i.svcRtxMessageQueuePut) refers to .\objects\rtx_mempool.o(i.osRtxMemoryPoolAlloc) for osRtxMemoryPoolAlloc
    .\objects\rtx_msgqueue.o(i.svcRtxMessageQueuePut) refers to .\objects\rtx_msgqueue.o(i.MessageQueuePut) for MessageQueuePut
    .\objects\rtx_msgqueue.o(i.svcRtxMessageQueuePut) refers to .\objects\rtx_thread.o(i.osRtxThreadWaitEnter) for osRtxThreadWaitEnter
    .\objects\rtx_msgqueue.o(i.svcRtxMessageQueuePut) refers to .\objects\rtx_thread.o(i.osRtxThreadListPut) for osRtxThreadListPut
    .\objects\rtx_msgqueue.o(i.svcRtxMessageQueuePut) refers to .\objects\rtx_kernel.o(.data.os) for osRtxInfo
    .\objects\rtx_msgqueue.o(i.svcRtxMessageQueueReset) refers to .\objects\rtx_evr.o(i.EvrRtxMessageQueueError) for EvrRtxMessageQueueError
    .\objects\rtx_msgqueue.o(i.svcRtxMessageQueueReset) refers to .\objects\rtx_msgqueue.o(i.MessageQueueGet) for MessageQueueGet
    .\objects\rtx_msgqueue.o(i.svcRtxMessageQueueReset) refers to .\objects\rtx_msgqueue.o(i.MessageQueueRemove) for MessageQueueRemove
    .\objects\rtx_msgqueue.o(i.svcRtxMessageQueueReset) refers to .\objects\rtx_mempool.o(i.osRtxMemoryPoolFree) for osRtxMemoryPoolFree
    .\objects\rtx_msgqueue.o(i.svcRtxMessageQueueReset) refers to .\objects\rtx_mempool.o(i.osRtxMemoryPoolAlloc) for osRtxMemoryPoolAlloc
    .\objects\rtx_msgqueue.o(i.svcRtxMessageQueueReset) refers to .\objects\rtx_thread.o(i.osRtxThreadListGet) for osRtxThreadListGet
    .\objects\rtx_msgqueue.o(i.svcRtxMessageQueueReset) refers to .\objects\rtx_thread.o(i.osRtxThreadWaitExit) for osRtxThreadWaitExit
    .\objects\rtx_msgqueue.o(i.svcRtxMessageQueueReset) refers to .\objects\rtx_thread.o(i.osRtxThreadRegPtr) for osRtxThreadRegPtr
    .\objects\rtx_msgqueue.o(i.svcRtxMessageQueueReset) refers to D:\ProgramFiles\Keil_v5\ARM\ARMCC\Bin\..\lib\armlib\c_w.l(rt_memcpy_v6.o)(.text) for __aeabi_memcpy
    .\objects\rtx_msgqueue.o(i.svcRtxMessageQueueReset) refers to .\objects\rtx_msgqueue.o(i.MessageQueuePut) for MessageQueuePut
    .\objects\rtx_msgqueue.o(i.svcRtxMessageQueueReset) refers to .\objects\rtx_thread.o(i.osRtxThreadDispatch) for osRtxThreadDispatch
    .\objects\rtx_mutex.o(i.osMutexAcquire) refers to .\objects\rtx_mutex.o(i.IsIrqMode) for IsIrqMode
    .\objects\rtx_mutex.o(i.osMutexAcquire) refers to .\objects\rtx_mutex.o(i.IsIrqMasked) for IsIrqMasked
    .\objects\rtx_mutex.o(i.osMutexAcquire) refers to .\objects\rtx_evr.o(i.EvrRtxMutexError) for EvrRtxMutexError
    .\objects\rtx_mutex.o(i.osMutexAcquire) refers to .\objects\rtx_mutex.o(i.svcRtxMutexAcquire) for svcRtxMutexAcquire
    .\objects\rtx_mutex.o(i.osMutexDelete) refers to .\objects\rtx_mutex.o(i.IsIrqMode) for IsIrqMode
    .\objects\rtx_mutex.o(i.osMutexDelete) refers to .\objects\rtx_mutex.o(i.IsIrqMasked) for IsIrqMasked
    .\objects\rtx_mutex.o(i.osMutexDelete) refers to .\objects\rtx_evr.o(i.EvrRtxMutexError) for EvrRtxMutexError
    .\objects\rtx_mutex.o(i.osMutexDelete) refers to .\objects\rtx_mutex.o(i.svcRtxMutexDelete) for svcRtxMutexDelete
    .\objects\rtx_mutex.o(i.osMutexGetName) refers to .\objects\rtx_mutex.o(i.IsIrqMode) for IsIrqMode
    .\objects\rtx_mutex.o(i.osMutexGetName) refers to .\objects\rtx_mutex.o(i.IsIrqMasked) for IsIrqMasked
    .\objects\rtx_mutex.o(i.osMutexGetName) refers to .\objects\rtx_mutex.o(i.svcRtxMutexGetName) for svcRtxMutexGetName
    .\objects\rtx_mutex.o(i.osMutexGetOwner) refers to .\objects\rtx_mutex.o(i.IsIrqMode) for IsIrqMode
    .\objects\rtx_mutex.o(i.osMutexGetOwner) refers to .\objects\rtx_mutex.o(i.IsIrqMasked) for IsIrqMasked
    .\objects\rtx_mutex.o(i.osMutexGetOwner) refers to .\objects\rtx_mutex.o(i.svcRtxMutexGetOwner) for svcRtxMutexGetOwner
    .\objects\rtx_mutex.o(i.osMutexNew) refers to .\objects\rtx_mutex.o(i.IsIrqMode) for IsIrqMode
    .\objects\rtx_mutex.o(i.osMutexNew) refers to .\objects\rtx_mutex.o(i.IsIrqMasked) for IsIrqMasked
    .\objects\rtx_mutex.o(i.osMutexNew) refers to .\objects\rtx_evr.o(i.EvrRtxMutexError) for EvrRtxMutexError
    .\objects\rtx_mutex.o(i.osMutexNew) refers to .\objects\rtx_mutex.o(i.svcRtxMutexNew) for svcRtxMutexNew
    .\objects\rtx_mutex.o(i.osMutexRelease) refers to .\objects\rtx_mutex.o(i.IsIrqMode) for IsIrqMode
    .\objects\rtx_mutex.o(i.osMutexRelease) refers to .\objects\rtx_mutex.o(i.IsIrqMasked) for IsIrqMasked
    .\objects\rtx_mutex.o(i.osMutexRelease) refers to .\objects\rtx_evr.o(i.EvrRtxMutexError) for EvrRtxMutexError
    .\objects\rtx_mutex.o(i.osMutexRelease) refers to .\objects\rtx_mutex.o(i.svcRtxMutexRelease) for svcRtxMutexRelease
    .\objects\rtx_mutex.o(i.osRtxMutexOwnerRelease) refers to .\objects\rtx_thread.o(i.osRtxThreadListGet) for osRtxThreadListGet
    .\objects\rtx_mutex.o(i.osRtxMutexOwnerRelease) refers to .\objects\rtx_thread.o(i.osRtxThreadWaitExit) for osRtxThreadWaitExit
    .\objects\rtx_mutex.o(i.svcRtxMutexAcquire) refers to .\objects\rtx_evr.o(i.EvrRtxMutexError) for EvrRtxMutexError
    .\objects\rtx_mutex.o(i.svcRtxMutexAcquire) refers to .\objects\rtx_thread.o(i.osRtxThreadListSort) for osRtxThreadListSort
    .\objects\rtx_mutex.o(i.svcRtxMutexAcquire) refers to .\objects\rtx_thread.o(i.osRtxThreadWaitEnter) for osRtxThreadWaitEnter
    .\objects\rtx_mutex.o(i.svcRtxMutexAcquire) refers to .\objects\rtx_thread.o(i.osRtxThreadListPut) for osRtxThreadListPut
    .\objects\rtx_mutex.o(i.svcRtxMutexAcquire) refers to .\objects\rtx_kernel.o(.data.os) for osRtxInfo
    .\objects\rtx_mutex.o(i.svcRtxMutexDelete) refers to .\objects\rtx_evr.o(i.EvrRtxMutexError) for EvrRtxMutexError
    .\objects\rtx_mutex.o(i.svcRtxMutexDelete) refers to .\objects\rtx_thread.o(i.osRtxThreadListSort) for osRtxThreadListSort
    .\objects\rtx_mutex.o(i.svcRtxMutexDelete) refers to .\objects\rtx_thread.o(i.osRtxThreadListGet) for osRtxThreadListGet
    .\objects\rtx_mutex.o(i.svcRtxMutexDelete) refers to .\objects\rtx_thread.o(i.osRtxThreadWaitExit) for osRtxThreadWaitExit
    .\objects\rtx_mutex.o(i.svcRtxMutexDelete) refers to .\objects\rtx_thread.o(i.osRtxThreadDispatch) for osRtxThreadDispatch
    .\objects\rtx_mutex.o(i.svcRtxMutexDelete) refers to .\objects\rtx_mempool.o(i.osRtxMemoryPoolFree) for osRtxMemoryPoolFree
    .\objects\rtx_mutex.o(i.svcRtxMutexDelete) refers to .\objects\rtx_memory.o(i.osRtxMemoryFree) for osRtxMemoryFree
    .\objects\rtx_mutex.o(i.svcRtxMutexDelete) refers to .\objects\rtx_kernel.o(.data.os) for osRtxInfo
    .\objects\rtx_mutex.o(i.svcRtxMutexNew) refers to .\objects\rtx_evr.o(i.EvrRtxMutexError) for EvrRtxMutexError
    .\objects\rtx_mutex.o(i.svcRtxMutexNew) refers to .\objects\rtx_mempool.o(i.osRtxMemoryPoolAlloc) for osRtxMemoryPoolAlloc
    .\objects\rtx_mutex.o(i.svcRtxMutexNew) refers to .\objects\rtx_memory.o(i.osRtxMemoryAlloc) for osRtxMemoryAlloc
    .\objects\rtx_mutex.o(i.svcRtxMutexNew) refers to .\objects\rtx_kernel.o(.data.os) for osRtxInfo
    .\objects\rtx_mutex.o(i.svcRtxMutexRelease) refers to .\objects\rtx_evr.o(i.EvrRtxMutexError) for EvrRtxMutexError
    .\objects\rtx_mutex.o(i.svcRtxMutexRelease) refers to .\objects\rtx_thread.o(i.osRtxThreadListGet) for osRtxThreadListGet
    .\objects\rtx_mutex.o(i.svcRtxMutexRelease) refers to .\objects\rtx_thread.o(i.osRtxThreadWaitExit) for osRtxThreadWaitExit
    .\objects\rtx_mutex.o(i.svcRtxMutexRelease) refers to .\objects\rtx_thread.o(i.osRtxThreadDispatch) for osRtxThreadDispatch
    .\objects\rtx_mutex.o(i.svcRtxMutexRelease) refers to .\objects\rtx_kernel.o(.data.os) for osRtxInfo
    .\objects\rtx_semaphore.o(i.SemaphoreTokenDecrement) refers to .\objects\rtx_semaphore.o(.emb_text) for __asm___15_rtx_semaphore_c_c705bb47__atomic_dec16_nz
    .\objects\rtx_semaphore.o(i.SemaphoreTokenIncrement) refers to .\objects\rtx_semaphore.o(.emb_text) for __asm___15_rtx_semaphore_c_c705bb47__atomic_inc16_lt
    .\objects\rtx_semaphore.o(i.osRtxSemaphorePostProcess) refers to .\objects\rtx_semaphore.o(i.SemaphoreTokenDecrement) for SemaphoreTokenDecrement
    .\objects\rtx_semaphore.o(i.osRtxSemaphorePostProcess) refers to .\objects\rtx_thread.o(i.osRtxThreadListGet) for osRtxThreadListGet
    .\objects\rtx_semaphore.o(i.osRtxSemaphorePostProcess) refers to .\objects\rtx_thread.o(i.osRtxThreadWaitExit) for osRtxThreadWaitExit
    .\objects\rtx_semaphore.o(i.osSemaphoreAcquire) refers to .\objects\rtx_semaphore.o(i.IsIrqMode) for IsIrqMode
    .\objects\rtx_semaphore.o(i.osSemaphoreAcquire) refers to .\objects\rtx_semaphore.o(i.IsIrqMasked) for IsIrqMasked
    .\objects\rtx_semaphore.o(i.osSemaphoreAcquire) refers to .\objects\rtx_evr.o(i.EvrRtxSemaphoreError) for EvrRtxSemaphoreError
    .\objects\rtx_semaphore.o(i.osSemaphoreAcquire) refers to .\objects\rtx_semaphore.o(i.SemaphoreTokenDecrement) for SemaphoreTokenDecrement
    .\objects\rtx_semaphore.o(i.osSemaphoreAcquire) refers to .\objects\rtx_semaphore.o(i.svcRtxSemaphoreAcquire) for svcRtxSemaphoreAcquire
    .\objects\rtx_semaphore.o(i.osSemaphoreDelete) refers to .\objects\rtx_semaphore.o(i.IsIrqMode) for IsIrqMode
    .\objects\rtx_semaphore.o(i.osSemaphoreDelete) refers to .\objects\rtx_semaphore.o(i.IsIrqMasked) for IsIrqMasked
    .\objects\rtx_semaphore.o(i.osSemaphoreDelete) refers to .\objects\rtx_evr.o(i.EvrRtxSemaphoreError) for EvrRtxSemaphoreError
    .\objects\rtx_semaphore.o(i.osSemaphoreDelete) refers to .\objects\rtx_semaphore.o(i.svcRtxSemaphoreDelete) for svcRtxSemaphoreDelete
    .\objects\rtx_semaphore.o(i.osSemaphoreGetCount) refers to .\objects\rtx_semaphore.o(i.IsIrqMode) for IsIrqMode
    .\objects\rtx_semaphore.o(i.osSemaphoreGetCount) refers to .\objects\rtx_semaphore.o(i.IsIrqMasked) for IsIrqMasked
    .\objects\rtx_semaphore.o(i.osSemaphoreGetCount) refers to .\objects\rtx_semaphore.o(i.svcRtxSemaphoreGetCount) for svcRtxSemaphoreGetCount
    .\objects\rtx_semaphore.o(i.osSemaphoreGetName) refers to .\objects\rtx_semaphore.o(i.IsIrqMode) for IsIrqMode
    .\objects\rtx_semaphore.o(i.osSemaphoreGetName) refers to .\objects\rtx_semaphore.o(i.IsIrqMasked) for IsIrqMasked
    .\objects\rtx_semaphore.o(i.osSemaphoreGetName) refers to .\objects\rtx_semaphore.o(i.svcRtxSemaphoreGetName) for svcRtxSemaphoreGetName
    .\objects\rtx_semaphore.o(i.osSemaphoreNew) refers to .\objects\rtx_semaphore.o(i.IsIrqMode) for IsIrqMode
    .\objects\rtx_semaphore.o(i.osSemaphoreNew) refers to .\objects\rtx_semaphore.o(i.IsIrqMasked) for IsIrqMasked
    .\objects\rtx_semaphore.o(i.osSemaphoreNew) refers to .\objects\rtx_evr.o(i.EvrRtxSemaphoreError) for EvrRtxSemaphoreError
    .\objects\rtx_semaphore.o(i.osSemaphoreNew) refers to .\objects\rtx_semaphore.o(i.svcRtxSemaphoreNew) for svcRtxSemaphoreNew
    .\objects\rtx_semaphore.o(i.osSemaphoreRelease) refers to .\objects\rtx_semaphore.o(i.IsIrqMode) for IsIrqMode
    .\objects\rtx_semaphore.o(i.osSemaphoreRelease) refers to .\objects\rtx_semaphore.o(i.IsIrqMasked) for IsIrqMasked
    .\objects\rtx_semaphore.o(i.osSemaphoreRelease) refers to .\objects\rtx_evr.o(i.EvrRtxSemaphoreError) for EvrRtxSemaphoreError
    .\objects\rtx_semaphore.o(i.osSemaphoreRelease) refers to .\objects\rtx_semaphore.o(i.SemaphoreTokenIncrement) for SemaphoreTokenIncrement
    .\objects\rtx_semaphore.o(i.osSemaphoreRelease) refers to .\objects\rtx_system.o(i.osRtxPostProcess) for osRtxPostProcess
    .\objects\rtx_semaphore.o(i.osSemaphoreRelease) refers to .\objects\rtx_semaphore.o(i.svcRtxSemaphoreRelease) for svcRtxSemaphoreRelease
    .\objects\rtx_semaphore.o(i.svcRtxSemaphoreAcquire) refers to .\objects\rtx_evr.o(i.EvrRtxSemaphoreError) for EvrRtxSemaphoreError
    .\objects\rtx_semaphore.o(i.svcRtxSemaphoreAcquire) refers to .\objects\rtx_semaphore.o(i.SemaphoreTokenDecrement) for SemaphoreTokenDecrement
    .\objects\rtx_semaphore.o(i.svcRtxSemaphoreAcquire) refers to .\objects\rtx_thread.o(i.osRtxThreadWaitEnter) for osRtxThreadWaitEnter
    .\objects\rtx_semaphore.o(i.svcRtxSemaphoreAcquire) refers to .\objects\rtx_thread.o(i.osRtxThreadListPut) for osRtxThreadListPut
    .\objects\rtx_semaphore.o(i.svcRtxSemaphoreAcquire) refers to .\objects\rtx_kernel.o(.data.os) for osRtxInfo
    .\objects\rtx_semaphore.o(i.svcRtxSemaphoreDelete) refers to .\objects\rtx_evr.o(i.EvrRtxSemaphoreError) for EvrRtxSemaphoreError
    .\objects\rtx_semaphore.o(i.svcRtxSemaphoreDelete) refers to .\objects\rtx_thread.o(i.osRtxThreadListGet) for osRtxThreadListGet
    .\objects\rtx_semaphore.o(i.svcRtxSemaphoreDelete) refers to .\objects\rtx_thread.o(i.osRtxThreadWaitExit) for osRtxThreadWaitExit
    .\objects\rtx_semaphore.o(i.svcRtxSemaphoreDelete) refers to .\objects\rtx_thread.o(i.osRtxThreadDispatch) for osRtxThreadDispatch
    .\objects\rtx_semaphore.o(i.svcRtxSemaphoreDelete) refers to .\objects\rtx_mempool.o(i.osRtxMemoryPoolFree) for osRtxMemoryPoolFree
    .\objects\rtx_semaphore.o(i.svcRtxSemaphoreDelete) refers to .\objects\rtx_memory.o(i.osRtxMemoryFree) for osRtxMemoryFree
    .\objects\rtx_semaphore.o(i.svcRtxSemaphoreDelete) refers to .\objects\rtx_kernel.o(.data.os) for osRtxInfo
    .\objects\rtx_semaphore.o(i.svcRtxSemaphoreNew) refers to .\objects\rtx_evr.o(i.EvrRtxSemaphoreError) for EvrRtxSemaphoreError
    .\objects\rtx_semaphore.o(i.svcRtxSemaphoreNew) refers to .\objects\rtx_mempool.o(i.osRtxMemoryPoolAlloc) for osRtxMemoryPoolAlloc
    .\objects\rtx_semaphore.o(i.svcRtxSemaphoreNew) refers to .\objects\rtx_memory.o(i.osRtxMemoryAlloc) for osRtxMemoryAlloc
    .\objects\rtx_semaphore.o(i.svcRtxSemaphoreNew) refers to .\objects\rtx_kernel.o(.data.os) for osRtxInfo
    .\objects\rtx_semaphore.o(i.svcRtxSemaphoreNew) refers to .\objects\rtx_semaphore.o(i.osRtxSemaphorePostProcess) for osRtxSemaphorePostProcess
    .\objects\rtx_semaphore.o(i.svcRtxSemaphoreRelease) refers to .\objects\rtx_evr.o(i.EvrRtxSemaphoreError) for EvrRtxSemaphoreError
    .\objects\rtx_semaphore.o(i.svcRtxSemaphoreRelease) refers to .\objects\rtx_thread.o(i.osRtxThreadListGet) for osRtxThreadListGet
    .\objects\rtx_semaphore.o(i.svcRtxSemaphoreRelease) refers to .\objects\rtx_thread.o(i.osRtxThreadWaitExit) for osRtxThreadWaitExit
    .\objects\rtx_semaphore.o(i.svcRtxSemaphoreRelease) refers to .\objects\rtx_semaphore.o(i.SemaphoreTokenIncrement) for SemaphoreTokenIncrement
    .\objects\rtx_system.o(i.isr_queue_get) refers to .\objects\rtx_system.o(.emb_text) for __asm___12_rtx_system_c_024f2f18__atomic_dec16_nz
    .\objects\rtx_system.o(i.isr_queue_get) refers to .\objects\rtx_kernel.o(.data.os) for osRtxInfo
    .\objects\rtx_system.o(i.isr_queue_put) refers to .\objects\rtx_system.o(.emb_text) for __asm___12_rtx_system_c_024f2f18__atomic_inc16_lt
    .\objects\rtx_system.o(i.isr_queue_put) refers to .\objects\rtx_kernel.o(.data.os) for osRtxInfo
    .\objects\rtx_system.o(i.osRtxPendSV_Handler) refers to .\objects\rtx_system.o(i.isr_queue_get) for isr_queue_get
    .\objects\rtx_system.o(i.osRtxPendSV_Handler) refers to .\objects\rtx_thread.o(i.osRtxThreadDispatch) for osRtxThreadDispatch
    .\objects\rtx_system.o(i.osRtxPendSV_Handler) refers to .\objects\rtx_kernel.o(.data.os) for osRtxInfo
    .\objects\rtx_system.o(i.osRtxPostProcess) refers to .\objects\rtx_system.o(i.isr_queue_put) for isr_queue_put
    .\objects\rtx_system.o(i.osRtxPostProcess) refers to .\objects\mbed_rtx_handlers.o(i.osRtxErrorNotify) for osRtxErrorNotify
    .\objects\rtx_system.o(i.osRtxPostProcess) refers to .\objects\rtx_kernel.o(.data.os) for osRtxInfo
    .\objects\rtx_system.o(i.osRtxTick_Handler) refers to .\objects\os_systick.o(i.OS_Tick_AcknowledgeIRQ) for OS_Tick_AcknowledgeIRQ
    .\objects\rtx_system.o(i.osRtxTick_Handler) refers to .\objects\rtx_thread.o(i.osRtxThreadDelayTick) for osRtxThreadDelayTick
    .\objects\rtx_system.o(i.osRtxTick_Handler) refers to .\objects\rtx_thread.o(i.osRtxThreadDispatch) for osRtxThreadDispatch
    .\objects\rtx_system.o(i.osRtxTick_Handler) refers to .\objects\rtx_thread.o(i.osRtxThreadListRemove) for osRtxThreadListRemove
    .\objects\rtx_system.o(i.osRtxTick_Handler) refers to .\objects\rtx_thread.o(i.osRtxThreadReadyPut) for osRtxThreadReadyPut
    .\objects\rtx_system.o(i.osRtxTick_Handler) refers to .\objects\rtx_thread.o(i.osRtxThreadSwitch) for osRtxThreadSwitch
    .\objects\rtx_system.o(i.osRtxTick_Handler) refers to .\objects\rtx_kernel.o(.data.os) for osRtxInfo
    .\objects\rtx_thread.o(i.ThreadFlagsCheck) refers to .\objects\rtx_thread.o(.emb_text) for __asm___12_rtx_thread_c_add96be5__atomic_chk32_all
    .\objects\rtx_thread.o(i.ThreadFlagsClear) refers to .\objects\rtx_thread.o(.emb_text) for __asm___12_rtx_thread_c_add96be5__atomic_clr32
    .\objects\rtx_thread.o(i.ThreadFlagsSet) refers to .\objects\rtx_thread.o(.emb_text) for __asm___12_rtx_thread_c_add96be5__atomic_set32
    .\objects\rtx_thread.o(i.isrRtxThreadFlagsSet) refers to .\objects\rtx_evr.o(i.EvrRtxThreadError) for EvrRtxThreadError
    .\objects\rtx_thread.o(i.isrRtxThreadFlagsSet) refers to .\objects\rtx_thread.o(i.ThreadFlagsSet) for ThreadFlagsSet
    .\objects\rtx_thread.o(i.isrRtxThreadFlagsSet) refers to .\objects\rtx_system.o(i.osRtxPostProcess) for osRtxPostProcess
    .\objects\rtx_thread.o(i.osRtxKernelGetState) refers to .\objects\rtx_kernel.o(.data.os) for osRtxInfo
    .\objects\rtx_thread.o(i.osRtxThreadBlock) refers to .\objects\rtx_kernel.o(.data.os) for osRtxInfo
    .\objects\rtx_thread.o(i.osRtxThreadDelayInsert) refers to .\objects\rtx_kernel.o(.data.os) for osRtxInfo
    .\objects\rtx_thread.o(i.osRtxThreadDelayRemove) refers to .\objects\rtx_kernel.o(.data.os) for osRtxInfo
    .\objects\rtx_thread.o(i.osRtxThreadDelayTick) refers to .\objects\rtx_thread.o(i.osRtxThreadListRemove) for osRtxThreadListRemove
    .\objects\rtx_thread.o(i.osRtxThreadDelayTick) refers to .\objects\rtx_thread.o(i.osRtxThreadReadyPut) for osRtxThreadReadyPut
    .\objects\rtx_thread.o(i.osRtxThreadDelayTick) refers to .\objects\rtx_kernel.o(.data.os) for osRtxInfo
    .\objects\rtx_thread.o(i.osRtxThreadDispatch) refers to .\objects\rtx_thread.o(i.osRtxKernelGetState) for osRtxKernelGetState
    .\objects\rtx_thread.o(i.osRtxThreadDispatch) refers to .\objects\rtx_thread.o(i.osRtxThreadGetRunning) for osRtxThreadGetRunning
    .\objects\rtx_thread.o(i.osRtxThreadDispatch) refers to .\objects\rtx_thread.o(i.osRtxThreadListRemove) for osRtxThreadListRemove
    .\objects\rtx_thread.o(i.osRtxThreadDispatch) refers to .\objects\rtx_thread.o(i.osRtxThreadBlock) for osRtxThreadBlock
    .\objects\rtx_thread.o(i.osRtxThreadDispatch) refers to .\objects\rtx_thread.o(i.osRtxThreadSwitch) for osRtxThreadSwitch
    .\objects\rtx_thread.o(i.osRtxThreadDispatch) refers to .\objects\rtx_thread.o(i.osRtxThreadReadyPut) for osRtxThreadReadyPut
    .\objects\rtx_thread.o(i.osRtxThreadDispatch) refers to .\objects\rtx_kernel.o(.data.os) for osRtxInfo
    .\objects\rtx_thread.o(i.osRtxThreadFree) refers to .\objects\rtx_mempool.o(i.osRtxMemoryPoolFree) for osRtxMemoryPoolFree
    .\objects\rtx_thread.o(i.osRtxThreadFree) refers to .\objects\rtx_memory.o(i.osRtxMemoryFree) for osRtxMemoryFree
    .\objects\rtx_thread.o(i.osRtxThreadFree) refers to .\objects\rtx_kernel.o(.data.os) for osRtxInfo
    .\objects\rtx_thread.o(i.osRtxThreadGetRunning) refers to .\objects\rtx_kernel.o(.data.os) for osRtxInfo
    .\objects\rtx_thread.o(i.osRtxThreadListSort) refers to .\objects\rtx_thread.o(i.osRtxThreadListRemove) for osRtxThreadListRemove
    .\objects\rtx_thread.o(i.osRtxThreadListSort) refers to .\objects\rtx_thread.o(i.osRtxThreadListPut) for osRtxThreadListPut
    .\objects\rtx_thread.o(i.osRtxThreadPostProcess) refers to .\objects\rtx_thread.o(i.ThreadFlagsCheck) for ThreadFlagsCheck
    .\objects\rtx_thread.o(i.osRtxThreadPostProcess) refers to .\objects\rtx_thread.o(i.osRtxThreadWaitExit) for osRtxThreadWaitExit
    .\objects\rtx_thread.o(i.osRtxThreadReadyPut) refers to .\objects\rtx_thread.o(i.osRtxThreadListPut) for osRtxThreadListPut
    .\objects\rtx_thread.o(i.osRtxThreadReadyPut) refers to .\objects\rtx_kernel.o(.data.os) for osRtxInfo
    .\objects\rtx_thread.o(i.osRtxThreadSetRunning) refers to .\objects\rtx_kernel.o(.data.os) for osRtxInfo
    .\objects\rtx_thread.o(i.osRtxThreadStackCheck) refers to .\objects\rtx_thread.o(i.osRtxThreadGetRunning) for osRtxThreadGetRunning
    .\objects\rtx_thread.o(i.osRtxThreadStackCheck) refers to .\objects\mbed_rtx_handlers.o(i.osRtxErrorNotify) for osRtxErrorNotify
    .\objects\rtx_thread.o(i.osRtxThreadStartup) refers to .\objects\rtx_thread.o(i.svcRtxThreadNew) for svcRtxThreadNew
    .\objects\rtx_thread.o(i.osRtxThreadStartup) refers to .\objects\rtx_kernel.o(.data.os) for osRtxInfo
    .\objects\rtx_thread.o(i.osRtxThreadStartup) refers to .\objects\rtx_lib.o(.rodata) for osRtxConfig
    .\objects\rtx_thread.o(i.osRtxThreadStartup) refers to .\objects\mbed_rtx_handlers.o(i.osRtxIdleThread) for osRtxIdleThread
    .\objects\rtx_thread.o(i.osRtxThreadStartup) refers to .\objects\rtx_timer.o(i.osRtxTimerThread) for osRtxTimerThread
    .\objects\rtx_thread.o(i.osRtxThreadSwitch) refers to .\objects\rtx_thread.o(i.osRtxThreadStackCheck) for osRtxThreadStackCheck
    .\objects\rtx_thread.o(i.osRtxThreadSwitch) refers to .\objects\rtx_kernel.o(.data.os) for osRtxInfo
    .\objects\rtx_thread.o(i.osRtxThreadWaitEnter) refers to .\objects\rtx_thread.o(i.osRtxKernelGetState) for osRtxKernelGetState
    .\objects\rtx_thread.o(i.osRtxThreadWaitEnter) refers to .\objects\rtx_thread.o(i.osRtxThreadGetRunning) for osRtxThreadGetRunning
    .\objects\rtx_thread.o(i.osRtxThreadWaitEnter) refers to .\objects\rtx_thread.o(i.osRtxThreadDelayInsert) for osRtxThreadDelayInsert
    .\objects\rtx_thread.o(i.osRtxThreadWaitEnter) refers to .\objects\rtx_thread.o(i.osRtxThreadListGet) for osRtxThreadListGet
    .\objects\rtx_thread.o(i.osRtxThreadWaitEnter) refers to .\objects\rtx_thread.o(i.osRtxThreadSwitch) for osRtxThreadSwitch
    .\objects\rtx_thread.o(i.osRtxThreadWaitEnter) refers to .\objects\rtx_kernel.o(.data.os) for osRtxInfo
    .\objects\rtx_thread.o(i.osRtxThreadWaitExit) refers to .\objects\rtx_thread.o(i.osRtxThreadRegPtr) for osRtxThreadRegPtr
    .\objects\rtx_thread.o(i.osRtxThreadWaitExit) refers to .\objects\rtx_thread.o(i.osRtxThreadDelayRemove) for osRtxThreadDelayRemove
    .\objects\rtx_thread.o(i.osRtxThreadWaitExit) refers to .\objects\rtx_thread.o(i.osRtxThreadDispatch) for osRtxThreadDispatch
    .\objects\rtx_thread.o(i.osRtxThreadWaitExit) refers to .\objects\rtx_thread.o(i.osRtxThreadReadyPut) for osRtxThreadReadyPut
    .\objects\rtx_thread.o(i.osThreadDetach) refers to .\objects\rtx_thread.o(i.IsIrqMode) for IsIrqMode
    .\objects\rtx_thread.o(i.osThreadDetach) refers to .\objects\rtx_thread.o(i.IsIrqMasked) for IsIrqMasked
    .\objects\rtx_thread.o(i.osThreadDetach) refers to .\objects\rtx_evr.o(i.EvrRtxThreadError) for EvrRtxThreadError
    .\objects\rtx_thread.o(i.osThreadDetach) refers to .\objects\rtx_thread.o(i.svcRtxThreadDetach) for svcRtxThreadDetach
    .\objects\rtx_thread.o(i.osThreadEnumerate) refers to .\objects\rtx_thread.o(i.IsIrqMode) for IsIrqMode
    .\objects\rtx_thread.o(i.osThreadEnumerate) refers to .\objects\rtx_thread.o(i.IsIrqMasked) for IsIrqMasked
    .\objects\rtx_thread.o(i.osThreadEnumerate) refers to .\objects\rtx_thread.o(i.svcRtxThreadEnumerate) for svcRtxThreadEnumerate
    .\objects\rtx_thread.o(i.osThreadExit) refers to .\objects\mbed_rtx_handlers.o(i.EvrRtxThreadExit) for EvrRtxThreadExit
    .\objects\rtx_thread.o(i.osThreadExit) refers to .\objects\rtx_evr.o(i.EvrRtxThreadError) for EvrRtxThreadError
    .\objects\rtx_thread.o(i.osThreadExit) refers to .\objects\rtx_thread.o(i.svcRtxThreadExit) for svcRtxThreadExit
    .\objects\rtx_thread.o(i.osThreadFlagsClear) refers to .\objects\rtx_thread.o(i.IsIrqMode) for IsIrqMode
    .\objects\rtx_thread.o(i.osThreadFlagsClear) refers to .\objects\rtx_thread.o(i.IsIrqMasked) for IsIrqMasked
    .\objects\rtx_thread.o(i.osThreadFlagsClear) refers to .\objects\rtx_evr.o(i.EvrRtxThreadError) for EvrRtxThreadError
    .\objects\rtx_thread.o(i.osThreadFlagsClear) refers to .\objects\rtx_thread.o(i.svcRtxThreadFlagsClear) for svcRtxThreadFlagsClear
    .\objects\rtx_thread.o(i.osThreadFlagsGet) refers to .\objects\rtx_thread.o(i.IsIrqMode) for IsIrqMode
    .\objects\rtx_thread.o(i.osThreadFlagsGet) refers to .\objects\rtx_thread.o(i.IsIrqMasked) for IsIrqMasked
    .\objects\rtx_thread.o(i.osThreadFlagsGet) refers to .\objects\rtx_thread.o(i.svcRtxThreadFlagsGet) for svcRtxThreadFlagsGet
    .\objects\rtx_thread.o(i.osThreadFlagsSet) refers to .\objects\rtx_thread.o(i.IsIrqMode) for IsIrqMode
    .\objects\rtx_thread.o(i.osThreadFlagsSet) refers to .\objects\rtx_thread.o(i.IsIrqMasked) for IsIrqMasked
    .\objects\rtx_thread.o(i.osThreadFlagsSet) refers to .\objects\rtx_thread.o(i.isrRtxThreadFlagsSet) for isrRtxThreadFlagsSet
    .\objects\rtx_thread.o(i.osThreadFlagsSet) refers to .\objects\rtx_thread.o(i.svcRtxThreadFlagsSet) for svcRtxThreadFlagsSet
    .\objects\rtx_thread.o(i.osThreadFlagsWait) refers to .\objects\rtx_thread.o(i.IsIrqMode) for IsIrqMode
    .\objects\rtx_thread.o(i.osThreadFlagsWait) refers to .\objects\rtx_thread.o(i.IsIrqMasked) for IsIrqMasked
    .\objects\rtx_thread.o(i.osThreadFlagsWait) refers to .\objects\rtx_evr.o(i.EvrRtxThreadError) for EvrRtxThreadError
    .\objects\rtx_thread.o(i.osThreadFlagsWait) refers to .\objects\rtx_thread.o(i.svcRtxThreadFlagsWait) for svcRtxThreadFlagsWait
    .\objects\rtx_thread.o(i.osThreadGetCount) refers to .\objects\rtx_thread.o(i.IsIrqMode) for IsIrqMode
    .\objects\rtx_thread.o(i.osThreadGetCount) refers to .\objects\rtx_thread.o(i.IsIrqMasked) for IsIrqMasked
    .\objects\rtx_thread.o(i.osThreadGetCount) refers to .\objects\rtx_thread.o(i.svcRtxThreadGetCount) for svcRtxThreadGetCount
    .\objects\rtx_thread.o(i.osThreadGetId) refers to .\objects\rtx_thread.o(i.IsIrqMode) for IsIrqMode
    .\objects\rtx_thread.o(i.osThreadGetId) refers to .\objects\rtx_thread.o(i.IsIrqMasked) for IsIrqMasked
    .\objects\rtx_thread.o(i.osThreadGetId) refers to .\objects\rtx_thread.o(i.svcRtxThreadGetId) for svcRtxThreadGetId
    .\objects\rtx_thread.o(i.osThreadGetName) refers to .\objects\rtx_thread.o(i.IsIrqMode) for IsIrqMode
    .\objects\rtx_thread.o(i.osThreadGetName) refers to .\objects\rtx_thread.o(i.IsIrqMasked) for IsIrqMasked
    .\objects\rtx_thread.o(i.osThreadGetName) refers to .\objects\rtx_thread.o(i.svcRtxThreadGetName) for svcRtxThreadGetName
    .\objects\rtx_thread.o(i.osThreadGetPriority) refers to .\objects\rtx_thread.o(i.IsIrqMode) for IsIrqMode
    .\objects\rtx_thread.o(i.osThreadGetPriority) refers to .\objects\rtx_thread.o(i.IsIrqMasked) for IsIrqMasked
    .\objects\rtx_thread.o(i.osThreadGetPriority) refers to .\objects\rtx_thread.o(i.svcRtxThreadGetPriority) for svcRtxThreadGetPriority
    .\objects\rtx_thread.o(i.osThreadGetStackSize) refers to .\objects\rtx_thread.o(i.IsIrqMode) for IsIrqMode
    .\objects\rtx_thread.o(i.osThreadGetStackSize) refers to .\objects\rtx_thread.o(i.IsIrqMasked) for IsIrqMasked
    .\objects\rtx_thread.o(i.osThreadGetStackSize) refers to .\objects\rtx_thread.o(i.svcRtxThreadGetStackSize) for svcRtxThreadGetStackSize
    .\objects\rtx_thread.o(i.osThreadGetStackSpace) refers to .\objects\rtx_thread.o(i.IsIrqMode) for IsIrqMode
    .\objects\rtx_thread.o(i.osThreadGetStackSpace) refers to .\objects\rtx_thread.o(i.IsIrqMasked) for IsIrqMasked
    .\objects\rtx_thread.o(i.osThreadGetStackSpace) refers to .\objects\rtx_thread.o(i.svcRtxThreadGetStackSpace) for svcRtxThreadGetStackSpace
    .\objects\rtx_thread.o(i.osThreadGetState) refers to .\objects\rtx_thread.o(i.IsIrqMode) for IsIrqMode
    .\objects\rtx_thread.o(i.osThreadGetState) refers to .\objects\rtx_thread.o(i.IsIrqMasked) for IsIrqMasked
    .\objects\rtx_thread.o(i.osThreadGetState) refers to .\objects\rtx_thread.o(i.svcRtxThreadGetState) for svcRtxThreadGetState
    .\objects\rtx_thread.o(i.osThreadJoin) refers to .\objects\rtx_thread.o(i.IsIrqMode) for IsIrqMode
    .\objects\rtx_thread.o(i.osThreadJoin) refers to .\objects\rtx_thread.o(i.IsIrqMasked) for IsIrqMasked
    .\objects\rtx_thread.o(i.osThreadJoin) refers to .\objects\rtx_evr.o(i.EvrRtxThreadError) for EvrRtxThreadError
    .\objects\rtx_thread.o(i.osThreadJoin) refers to .\objects\rtx_thread.o(i.svcRtxThreadJoin) for svcRtxThreadJoin
    .\objects\rtx_thread.o(i.osThreadNew) refers to .\objects\rtx_thread.o(i.IsIrqMode) for IsIrqMode
    .\objects\rtx_thread.o(i.osThreadNew) refers to .\objects\rtx_thread.o(i.IsIrqMasked) for IsIrqMasked
    .\objects\rtx_thread.o(i.osThreadNew) refers to .\objects\rtx_evr.o(i.EvrRtxThreadError) for EvrRtxThreadError
    .\objects\rtx_thread.o(i.osThreadNew) refers to .\objects\rtx_thread.o(i.svcRtxThreadNew) for svcRtxThreadNew
    .\objects\rtx_thread.o(i.osThreadResume) refers to .\objects\rtx_thread.o(i.IsIrqMode) for IsIrqMode
    .\objects\rtx_thread.o(i.osThreadResume) refers to .\objects\rtx_thread.o(i.IsIrqMasked) for IsIrqMasked
    .\objects\rtx_thread.o(i.osThreadResume) refers to .\objects\rtx_evr.o(i.EvrRtxThreadError) for EvrRtxThreadError
    .\objects\rtx_thread.o(i.osThreadResume) refers to .\objects\rtx_thread.o(i.svcRtxThreadResume) for svcRtxThreadResume
    .\objects\rtx_thread.o(i.osThreadSetPriority) refers to .\objects\rtx_thread.o(i.IsIrqMode) for IsIrqMode
    .\objects\rtx_thread.o(i.osThreadSetPriority) refers to .\objects\rtx_thread.o(i.IsIrqMasked) for IsIrqMasked
    .\objects\rtx_thread.o(i.osThreadSetPriority) refers to .\objects\rtx_evr.o(i.EvrRtxThreadError) for EvrRtxThreadError
    .\objects\rtx_thread.o(i.osThreadSetPriority) refers to .\objects\rtx_thread.o(i.svcRtxThreadSetPriority) for svcRtxThreadSetPriority
    .\objects\rtx_thread.o(i.osThreadSuspend) refers to .\objects\rtx_thread.o(i.IsIrqMode) for IsIrqMode
    .\objects\rtx_thread.o(i.osThreadSuspend) refers to .\objects\rtx_thread.o(i.IsIrqMasked) for IsIrqMasked
    .\objects\rtx_thread.o(i.osThreadSuspend) refers to .\objects\rtx_evr.o(i.EvrRtxThreadError) for EvrRtxThreadError
    .\objects\rtx_thread.o(i.osThreadSuspend) refers to .\objects\rtx_thread.o(i.svcRtxThreadSuspend) for svcRtxThreadSuspend
    .\objects\rtx_thread.o(i.osThreadTerminate) refers to .\objects\mbed_rtx_handlers.o(i.EvrRtxThreadTerminate) for EvrRtxThreadTerminate
    .\objects\rtx_thread.o(i.osThreadTerminate) refers to .\objects\rtx_thread.o(i.IsIrqMode) for IsIrqMode
    .\objects\rtx_thread.o(i.osThreadTerminate) refers to .\objects\rtx_thread.o(i.IsIrqMasked) for IsIrqMasked
    .\objects\rtx_thread.o(i.osThreadTerminate) refers to .\objects\rtx_evr.o(i.EvrRtxThreadError) for EvrRtxThreadError
    .\objects\rtx_thread.o(i.osThreadTerminate) refers to .\objects\rtx_thread.o(i.svcRtxThreadTerminate) for svcRtxThreadTerminate
    .\objects\rtx_thread.o(i.osThreadYield) refers to .\objects\rtx_thread.o(i.IsIrqMode) for IsIrqMode
    .\objects\rtx_thread.o(i.osThreadYield) refers to .\objects\rtx_thread.o(i.IsIrqMasked) for IsIrqMasked
    .\objects\rtx_thread.o(i.osThreadYield) refers to .\objects\rtx_evr.o(i.EvrRtxThreadError) for EvrRtxThreadError
    .\objects\rtx_thread.o(i.osThreadYield) refers to .\objects\rtx_thread.o(i.svcRtxThreadYield) for svcRtxThreadYield
    .\objects\rtx_thread.o(i.svcRtxThreadDetach) refers to .\objects\rtx_evr.o(i.EvrRtxThreadError) for EvrRtxThreadError
    .\objects\rtx_thread.o(i.svcRtxThreadDetach) refers to .\objects\rtx_thread.o(i.osRtxThreadListUnlink) for osRtxThreadListUnlink
    .\objects\rtx_thread.o(i.svcRtxThreadDetach) refers to .\objects\rtx_thread.o(i.osRtxThreadFree) for osRtxThreadFree
    .\objects\rtx_thread.o(i.svcRtxThreadDetach) refers to .\objects\rtx_kernel.o(.data.os) for osRtxInfo
    .\objects\rtx_thread.o(i.svcRtxThreadEnumerate) refers to .\objects\rtx_thread.o(i.osRtxThreadGetRunning) for osRtxThreadGetRunning
    .\objects\rtx_thread.o(i.svcRtxThreadEnumerate) refers to .\objects\rtx_kernel.o(.data.os) for osRtxInfo
    .\objects\rtx_thread.o(i.svcRtxThreadExit) refers to .\objects\rtx_thread.o(i.osRtxThreadGetRunning) for osRtxThreadGetRunning
    .\objects\rtx_thread.o(i.svcRtxThreadExit) refers to .\objects\rtx_thread.o(i.osRtxKernelGetState) for osRtxKernelGetState
    .\objects\rtx_thread.o(i.svcRtxThreadExit) refers to .\objects\rtx_mutex.o(i.osRtxMutexOwnerRelease) for osRtxMutexOwnerRelease
    .\objects\rtx_thread.o(i.svcRtxThreadExit) refers to .\objects\rtx_thread.o(i.osRtxThreadWaitExit) for osRtxThreadWaitExit
    .\objects\rtx_thread.o(i.svcRtxThreadExit) refers to .\objects\rtx_thread.o(i.osRtxThreadListGet) for osRtxThreadListGet
    .\objects\rtx_thread.o(i.svcRtxThreadExit) refers to .\objects\rtx_thread.o(i.osRtxThreadSwitch) for osRtxThreadSwitch
    .\objects\rtx_thread.o(i.svcRtxThreadExit) refers to .\objects\rtx_thread.o(i.osRtxThreadSetRunning) for osRtxThreadSetRunning
    .\objects\rtx_thread.o(i.svcRtxThreadExit) refers to .\objects\rtx_thread.o(i.osRtxThreadFree) for osRtxThreadFree
    .\objects\rtx_thread.o(i.svcRtxThreadExit) refers to .\objects\rtx_kernel.o(.data.os) for osRtxInfo
    .\objects\rtx_thread.o(i.svcRtxThreadFlagsClear) refers to .\objects\rtx_thread.o(i.osRtxThreadGetRunning) for osRtxThreadGetRunning
    .\objects\rtx_thread.o(i.svcRtxThreadFlagsClear) refers to .\objects\rtx_evr.o(i.EvrRtxThreadError) for EvrRtxThreadError
    .\objects\rtx_thread.o(i.svcRtxThreadFlagsClear) refers to .\objects\rtx_thread.o(i.ThreadFlagsClear) for ThreadFlagsClear
    .\objects\rtx_thread.o(i.svcRtxThreadFlagsGet) refers to .\objects\rtx_thread.o(i.osRtxThreadGetRunning) for osRtxThreadGetRunning
    .\objects\rtx_thread.o(i.svcRtxThreadFlagsSet) refers to .\objects\rtx_evr.o(i.EvrRtxThreadError) for EvrRtxThreadError
    .\objects\rtx_thread.o(i.svcRtxThreadFlagsSet) refers to .\objects\rtx_thread.o(i.ThreadFlagsSet) for ThreadFlagsSet
    .\objects\rtx_thread.o(i.svcRtxThreadFlagsSet) refers to .\objects\rtx_thread.o(i.ThreadFlagsCheck) for ThreadFlagsCheck
    .\objects\rtx_thread.o(i.svcRtxThreadFlagsSet) refers to .\objects\rtx_thread.o(i.osRtxThreadWaitExit) for osRtxThreadWaitExit
    .\objects\rtx_thread.o(i.svcRtxThreadFlagsWait) refers to .\objects\rtx_thread.o(i.osRtxThreadGetRunning) for osRtxThreadGetRunning
    .\objects\rtx_thread.o(i.svcRtxThreadFlagsWait) refers to .\objects\rtx_evr.o(i.EvrRtxThreadError) for EvrRtxThreadError
    .\objects\rtx_thread.o(i.svcRtxThreadFlagsWait) refers to .\objects\rtx_thread.o(i.ThreadFlagsCheck) for ThreadFlagsCheck
    .\objects\rtx_thread.o(i.svcRtxThreadFlagsWait) refers to .\objects\rtx_thread.o(i.osRtxThreadWaitEnter) for osRtxThreadWaitEnter
    .\objects\rtx_thread.o(i.svcRtxThreadGetCount) refers to .\objects\rtx_kernel.o(.data.os) for osRtxInfo
    .\objects\rtx_thread.o(i.svcRtxThreadGetId) refers to .\objects\rtx_thread.o(i.osRtxThreadGetRunning) for osRtxThreadGetRunning
    .\objects\rtx_thread.o(i.svcRtxThreadGetStackSpace) refers to .\objects\rtx_lib.o(.rodata) for osRtxConfig
    .\objects\rtx_thread.o(i.svcRtxThreadJoin) refers to .\objects\rtx_evr.o(i.EvrRtxThreadError) for EvrRtxThreadError
    .\objects\rtx_thread.o(i.svcRtxThreadJoin) refers to .\objects\rtx_thread.o(i.osRtxThreadListUnlink) for osRtxThreadListUnlink
    .\objects\rtx_thread.o(i.svcRtxThreadJoin) refers to .\objects\rtx_thread.o(i.osRtxThreadFree) for osRtxThreadFree
    .\objects\rtx_thread.o(i.svcRtxThreadJoin) refers to .\objects\rtx_thread.o(i.osRtxThreadWaitEnter) for osRtxThreadWaitEnter
    .\objects\rtx_thread.o(i.svcRtxThreadJoin) refers to .\objects\rtx_thread.o(i.osRtxThreadGetRunning) for osRtxThreadGetRunning
    .\objects\rtx_thread.o(i.svcRtxThreadJoin) refers to .\objects\rtx_kernel.o(.data.os) for osRtxInfo
    .\objects\rtx_thread.o(i.svcRtxThreadNew) refers to .\objects\rtx_evr.o(i.EvrRtxThreadError) for EvrRtxThreadError
    .\objects\rtx_thread.o(i.svcRtxThreadNew) refers to .\objects\rtx_mempool.o(i.osRtxMemoryPoolAlloc) for osRtxMemoryPoolAlloc
    .\objects\rtx_thread.o(i.svcRtxThreadNew) refers to .\objects\rtx_memory.o(i.osRtxMemoryAlloc) for osRtxMemoryAlloc
    .\objects\rtx_thread.o(i.svcRtxThreadNew) refers to .\objects\rtx_mempool.o(i.osRtxMemoryPoolFree) for osRtxMemoryPoolFree
    .\objects\rtx_thread.o(i.svcRtxThreadNew) refers to .\objects\rtx_memory.o(i.osRtxMemoryFree) for osRtxMemoryFree
    .\objects\rtx_thread.o(i.svcRtxThreadNew) refers to .\objects\rtx_thread.o(i.osRtxThreadDispatch) for osRtxThreadDispatch
    .\objects\rtx_thread.o(i.svcRtxThreadNew) refers to .\objects\rtx_kernel.o(.data.os) for osRtxInfo
    .\objects\rtx_thread.o(i.svcRtxThreadNew) refers to .\objects\rtx_lib.o(.rodata) for osRtxConfig
    .\objects\rtx_thread.o(i.svcRtxThreadNew) refers to .\objects\rtx_thread.o(i.osThreadExit) for osThreadExit
    .\objects\rtx_thread.o(i.svcRtxThreadNew) refers to .\objects\rtx_thread.o(i.osRtxThreadPostProcess) for osRtxThreadPostProcess
    .\objects\rtx_thread.o(i.svcRtxThreadResume) refers to .\objects\rtx_evr.o(i.EvrRtxThreadError) for EvrRtxThreadError
    .\objects\rtx_thread.o(i.svcRtxThreadResume) refers to .\objects\rtx_thread.o(i.osRtxThreadListRemove) for osRtxThreadListRemove
    .\objects\rtx_thread.o(i.svcRtxThreadResume) refers to .\objects\rtx_thread.o(i.osRtxThreadDelayRemove) for osRtxThreadDelayRemove
    .\objects\rtx_thread.o(i.svcRtxThreadResume) refers to .\objects\rtx_thread.o(i.osRtxThreadDispatch) for osRtxThreadDispatch
    .\objects\rtx_thread.o(i.svcRtxThreadSetPriority) refers to .\objects\rtx_evr.o(i.EvrRtxThreadError) for EvrRtxThreadError
    .\objects\rtx_thread.o(i.svcRtxThreadSetPriority) refers to .\objects\rtx_thread.o(i.osRtxThreadListSort) for osRtxThreadListSort
    .\objects\rtx_thread.o(i.svcRtxThreadSetPriority) refers to .\objects\rtx_thread.o(i.osRtxThreadDispatch) for osRtxThreadDispatch
    .\objects\rtx_thread.o(i.svcRtxThreadSuspend) refers to .\objects\rtx_evr.o(i.EvrRtxThreadError) for EvrRtxThreadError
    .\objects\rtx_thread.o(i.svcRtxThreadSuspend) refers to .\objects\rtx_thread.o(i.osRtxKernelGetState) for osRtxKernelGetState
    .\objects\rtx_thread.o(i.svcRtxThreadSuspend) refers to .\objects\rtx_thread.o(i.osRtxThreadListRemove) for osRtxThreadListRemove
    .\objects\rtx_thread.o(i.svcRtxThreadSuspend) refers to .\objects\rtx_thread.o(i.osRtxThreadDelayRemove) for osRtxThreadDelayRemove
    .\objects\rtx_thread.o(i.svcRtxThreadSuspend) refers to .\objects\rtx_thread.o(i.osRtxThreadListGet) for osRtxThreadListGet
    .\objects\rtx_thread.o(i.svcRtxThreadSuspend) refers to .\objects\rtx_thread.o(i.osRtxThreadSwitch) for osRtxThreadSwitch
    .\objects\rtx_thread.o(i.svcRtxThreadSuspend) refers to .\objects\rtx_thread.o(i.osRtxThreadDelayInsert) for osRtxThreadDelayInsert
    .\objects\rtx_thread.o(i.svcRtxThreadSuspend) refers to .\objects\rtx_kernel.o(.data.os) for osRtxInfo
    .\objects\rtx_thread.o(i.svcRtxThreadTerminate) refers to .\objects\rtx_evr.o(i.EvrRtxThreadError) for EvrRtxThreadError
    .\objects\rtx_thread.o(i.svcRtxThreadTerminate) refers to .\objects\rtx_thread.o(i.osRtxKernelGetState) for osRtxKernelGetState
    .\objects\rtx_thread.o(i.svcRtxThreadTerminate) refers to .\objects\rtx_thread.o(i.osRtxThreadListRemove) for osRtxThreadListRemove
    .\objects\rtx_thread.o(i.svcRtxThreadTerminate) refers to .\objects\rtx_thread.o(i.osRtxThreadDelayRemove) for osRtxThreadDelayRemove
    .\objects\rtx_thread.o(i.svcRtxThreadTerminate) refers to .\objects\rtx_mutex.o(i.osRtxMutexOwnerRelease) for osRtxMutexOwnerRelease
    .\objects\rtx_thread.o(i.svcRtxThreadTerminate) refers to .\objects\rtx_thread.o(i.osRtxThreadWaitExit) for osRtxThreadWaitExit
    .\objects\rtx_thread.o(i.svcRtxThreadTerminate) refers to .\objects\rtx_thread.o(i.osRtxThreadListGet) for osRtxThreadListGet
    .\objects\rtx_thread.o(i.svcRtxThreadTerminate) refers to .\objects\rtx_thread.o(i.osRtxThreadSwitch) for osRtxThreadSwitch
    .\objects\rtx_thread.o(i.svcRtxThreadTerminate) refers to .\objects\rtx_thread.o(i.osRtxThreadSetRunning) for osRtxThreadSetRunning
    .\objects\rtx_thread.o(i.svcRtxThreadTerminate) refers to .\objects\rtx_thread.o(i.osRtxThreadDispatch) for osRtxThreadDispatch
    .\objects\rtx_thread.o(i.svcRtxThreadTerminate) refers to .\objects\rtx_thread.o(i.osRtxThreadFree) for osRtxThreadFree
    .\objects\rtx_thread.o(i.svcRtxThreadTerminate) refers to .\objects\rtx_kernel.o(.data.os) for osRtxInfo
    .\objects\rtx_thread.o(i.svcRtxThreadYield) refers to .\objects\rtx_thread.o(i.osRtxKernelGetState) for osRtxKernelGetState
    .\objects\rtx_thread.o(i.svcRtxThreadYield) refers to .\objects\rtx_thread.o(i.osRtxThreadGetRunning) for osRtxThreadGetRunning
    .\objects\rtx_thread.o(i.svcRtxThreadYield) refers to .\objects\rtx_thread.o(i.osRtxThreadListRemove) for osRtxThreadListRemove
    .\objects\rtx_thread.o(i.svcRtxThreadYield) refers to .\objects\rtx_thread.o(i.osRtxThreadReadyPut) for osRtxThreadReadyPut
    .\objects\rtx_thread.o(i.svcRtxThreadYield) refers to .\objects\rtx_thread.o(i.osRtxThreadSwitch) for osRtxThreadSwitch
    .\objects\rtx_thread.o(i.svcRtxThreadYield) refers to .\objects\rtx_kernel.o(.data.os) for osRtxInfo
    .\objects\rtx_timer.o(i.TimerInsert) refers to .\objects\rtx_kernel.o(.data.os) for osRtxInfo
    .\objects\rtx_timer.o(i.TimerRemove) refers to .\objects\rtx_kernel.o(.data.os) for osRtxInfo
    .\objects\rtx_timer.o(i.TimerUnlink) refers to .\objects\rtx_kernel.o(.data.os) for osRtxInfo
    .\objects\rtx_timer.o(i.osRtxTimerThread) refers to .\objects\rtx_msgqueue.o(i.osMessageQueueNew) for osMessageQueueNew
    .\objects\rtx_timer.o(i.osRtxTimerThread) refers to .\objects\rtx_msgqueue.o(i.osMessageQueueGet) for osMessageQueueGet
    .\objects\rtx_timer.o(i.osRtxTimerThread) refers to .\objects\rtx_lib.o(.rodata) for osRtxConfig
    .\objects\rtx_timer.o(i.osRtxTimerThread) refers to .\objects\rtx_kernel.o(.data.os) for osRtxInfo
    .\objects\rtx_timer.o(i.osRtxTimerThread) refers to .\objects\rtx_timer.o(i.osRtxTimerTick) for osRtxTimerTick
    .\objects\rtx_timer.o(i.osRtxTimerTick) refers to .\objects\rtx_timer.o(i.TimerUnlink) for TimerUnlink
    .\objects\rtx_timer.o(i.osRtxTimerTick) refers to .\objects\rtx_msgqueue.o(i.osMessageQueuePut) for osMessageQueuePut
    .\objects\rtx_timer.o(i.osRtxTimerTick) refers to .\objects\mbed_rtx_handlers.o(i.osRtxErrorNotify) for osRtxErrorNotify
    .\objects\rtx_timer.o(i.osRtxTimerTick) refers to .\objects\rtx_timer.o(i.TimerInsert) for TimerInsert
    .\objects\rtx_timer.o(i.osRtxTimerTick) refers to .\objects\rtx_kernel.o(.data.os) for osRtxInfo
    .\objects\rtx_timer.o(i.osTimerDelete) refers to .\objects\rtx_timer.o(i.IsIrqMode) for IsIrqMode
    .\objects\rtx_timer.o(i.osTimerDelete) refers to .\objects\rtx_timer.o(i.IsIrqMasked) for IsIrqMasked
    .\objects\rtx_timer.o(i.osTimerDelete) refers to .\objects\rtx_evr.o(i.EvrRtxTimerError) for EvrRtxTimerError
    .\objects\rtx_timer.o(i.osTimerDelete) refers to .\objects\rtx_timer.o(i.svcRtxTimerDelete) for svcRtxTimerDelete
    .\objects\rtx_timer.o(i.osTimerGetName) refers to .\objects\rtx_timer.o(i.IsIrqMode) for IsIrqMode
    .\objects\rtx_timer.o(i.osTimerGetName) refers to .\objects\rtx_timer.o(i.IsIrqMasked) for IsIrqMasked
    .\objects\rtx_timer.o(i.osTimerGetName) refers to .\objects\rtx_timer.o(i.svcRtxTimerGetName) for svcRtxTimerGetName
    .\objects\rtx_timer.o(i.osTimerIsRunning) refers to .\objects\rtx_timer.o(i.IsIrqMode) for IsIrqMode
    .\objects\rtx_timer.o(i.osTimerIsRunning) refers to .\objects\rtx_timer.o(i.IsIrqMasked) for IsIrqMasked
    .\objects\rtx_timer.o(i.osTimerIsRunning) refers to .\objects\rtx_timer.o(i.svcRtxTimerIsRunning) for svcRtxTimerIsRunning
    .\objects\rtx_timer.o(i.osTimerNew) refers to .\objects\rtx_timer.o(i.IsIrqMode) for IsIrqMode
    .\objects\rtx_timer.o(i.osTimerNew) refers to .\objects\rtx_timer.o(i.IsIrqMasked) for IsIrqMasked
    .\objects\rtx_timer.o(i.osTimerNew) refers to .\objects\rtx_evr.o(i.EvrRtxTimerError) for EvrRtxTimerError
    .\objects\rtx_timer.o(i.osTimerNew) refers to .\objects\rtx_timer.o(i.svcRtxTimerNew) for svcRtxTimerNew
    .\objects\rtx_timer.o(i.osTimerStart) refers to .\objects\rtx_timer.o(i.IsIrqMode) for IsIrqMode
    .\objects\rtx_timer.o(i.osTimerStart) refers to .\objects\rtx_timer.o(i.IsIrqMasked) for IsIrqMasked
    .\objects\rtx_timer.o(i.osTimerStart) refers to .\objects\rtx_evr.o(i.EvrRtxTimerError) for EvrRtxTimerError
    .\objects\rtx_timer.o(i.osTimerStart) refers to .\objects\rtx_timer.o(i.svcRtxTimerStart) for svcRtxTimerStart
    .\objects\rtx_timer.o(i.osTimerStop) refers to .\objects\rtx_timer.o(i.IsIrqMode) for IsIrqMode
    .\objects\rtx_timer.o(i.osTimerStop) refers to .\objects\rtx_timer.o(i.IsIrqMasked) for IsIrqMasked
    .\objects\rtx_timer.o(i.osTimerStop) refers to .\objects\rtx_evr.o(i.EvrRtxTimerError) for EvrRtxTimerError
    .\objects\rtx_timer.o(i.osTimerStop) refers to .\objects\rtx_timer.o(i.svcRtxTimerStop) for svcRtxTimerStop
    .\objects\rtx_timer.o(i.svcRtxTimerDelete) refers to .\objects\rtx_evr.o(i.EvrRtxTimerError) for EvrRtxTimerError
    .\objects\rtx_timer.o(i.svcRtxTimerDelete) refers to .\objects\rtx_timer.o(i.TimerRemove) for TimerRemove
    .\objects\rtx_timer.o(i.svcRtxTimerDelete) refers to .\objects\rtx_mempool.o(i.osRtxMemoryPoolFree) for osRtxMemoryPoolFree
    .\objects\rtx_timer.o(i.svcRtxTimerDelete) refers to .\objects\rtx_memory.o(i.osRtxMemoryFree) for osRtxMemoryFree
    .\objects\rtx_timer.o(i.svcRtxTimerDelete) refers to .\objects\rtx_kernel.o(.data.os) for osRtxInfo
    .\objects\rtx_timer.o(i.svcRtxTimerNew) refers to .\objects\rtx_evr.o(i.EvrRtxTimerError) for EvrRtxTimerError
    .\objects\rtx_timer.o(i.svcRtxTimerNew) refers to .\objects\rtx_mempool.o(i.osRtxMemoryPoolAlloc) for osRtxMemoryPoolAlloc
    .\objects\rtx_timer.o(i.svcRtxTimerNew) refers to .\objects\rtx_memory.o(i.osRtxMemoryAlloc) for osRtxMemoryAlloc
    .\objects\rtx_timer.o(i.svcRtxTimerNew) refers to .\objects\rtx_kernel.o(.data.os) for osRtxInfo
    .\objects\rtx_timer.o(i.svcRtxTimerStart) refers to .\objects\rtx_evr.o(i.EvrRtxTimerError) for EvrRtxTimerError
    .\objects\rtx_timer.o(i.svcRtxTimerStart) refers to .\objects\rtx_timer.o(i.TimerRemove) for TimerRemove
    .\objects\rtx_timer.o(i.svcRtxTimerStart) refers to .\objects\rtx_timer.o(i.TimerInsert) for TimerInsert
    .\objects\rtx_timer.o(i.svcRtxTimerStart) refers to .\objects\rtx_kernel.o(.data.os) for osRtxInfo
    .\objects\rtx_timer.o(i.svcRtxTimerStop) refers to .\objects\rtx_evr.o(i.EvrRtxTimerError) for EvrRtxTimerError
    .\objects\rtx_timer.o(i.svcRtxTimerStop) refers to .\objects\rtx_timer.o(i.TimerRemove) for TimerRemove
    .\objects\irq_cm4f.o(.text) refers to .\objects\rtx_system.o(i.osRtxPendSV_Handler) for osRtxPendSV_Handler
    .\objects\irq_cm4f.o(.text) refers to .\objects\rtx_system.o(i.osRtxTick_Handler) for osRtxTick_Handler
    .\objects\irq_cm4f.o(.text) refers to .\objects\rtx_kernel.o(.data.os) for osRtxInfo
    .\objects\irq_cm4f.o(.text) refers to .\objects\rtx_lib.o(.constdata) for osRtxUserSVC
    .\objects\mbed_rtx_fault_handler.o(i.mbed_fault_handler) refers to .\objects\mbed_board.o(i.mbed_error_printf) for mbed_error_printf
    .\objects\mbed_rtx_fault_handler.o(i.mbed_fault_handler) refers to .\objects\mbed_rtx_fault_handler.o(i.print_context_info) for print_context_info
    .\objects\mbed_rtx_fault_handler.o(i.mbed_fault_handler) refers to .\objects\mbed_error.o(i.mbed_error) for mbed_error
    .\objects\mbed_rtx_fault_handler.o(i.mbed_fault_handler) refers to .\objects\mbed_rtx_fault_handler.o(.bss) for mbed_fault_context
    .\objects\mbed_rtx_fault_handler.o(i.print_context_info) refers to .\objects\mbed_board.o(i.mbed_error_printf) for mbed_error_printf
    .\objects\mbed_rtx_fault_handler.o(i.print_context_info) refers to .\objects\mbed_rtx_fault_handler.o(.bss) for mbed_fault_context
    .\objects\mbed_rtx_fault_handler.o(i.print_context_info) refers to .\objects\mbed_rtx_fault_handler.o(.conststring) for .conststring
    .\objects\except.o(.text) refers to .\objects\mbed_rtx_fault_handler.o(.bss) for mbed_fault_context
    .\objects\except.o(.text) refers to .\objects\mbed_rtx_fault_handler.o(i.mbed_fault_handler) for mbed_fault_handler
    .\objects\except.o(.text) refers to .\objects\rtx_kernel.o(.data.os) for osRtxInfo
    .\objects\mbed_boot_arm_std.o(.rev16_text) refers (Special) to D:\ProgramFiles\Keil_v5\ARM\ARMCC\Bin\..\lib\armlib\c_w.l(heapauxi.o)(.text) for __use_two_region_memory
    .\objects\mbed_boot_arm_std.o(.revsh_text) refers (Special) to D:\ProgramFiles\Keil_v5\ARM\ARMCC\Bin\..\lib\armlib\c_w.l(heapauxi.o)(.text) for __use_two_region_memory
    .\objects\mbed_boot_arm_std.o(.rrx_text) refers (Special) to D:\ProgramFiles\Keil_v5\ARM\ARMCC\Bin\..\lib\armlib\c_w.l(heapauxi.o)(.text) for __use_two_region_memory
    .\objects\mbed_boot_arm_std.o(i.__rt_entry) refers (Special) to D:\ProgramFiles\Keil_v5\ARM\ARMCC\Bin\..\lib\armlib\c_w.l(heapauxi.o)(.text) for __use_two_region_memory
    .\objects\mbed_boot_arm_std.o(i.__rt_entry) refers to .\objects\mbed_boot.o(i.mbed_init) for mbed_init
    .\objects\mbed_boot_arm_std.o(i.__rt_entry) refers to .\objects\rtx_lib.o(i._platform_post_stackheap_init) for _platform_post_stackheap_init
    .\objects\mbed_boot_arm_std.o(i.__rt_entry) refers to .\objects\mbed_rtos_rtx.o(i.mbed_rtos_start) for mbed_rtos_start
    .\objects\mbed_boot_arm_std.o(i.__rt_entry) refers to .\objects\mbed_boot.o(.data) for mbed_stack_isr_size
    .\objects\mbed_boot_arm_std.o(i.__rt_entry) refers to .\objects\mbed_retarget.o(.data) for mbed_heap_size
    .\objects\mbed_boot_arm_std.o(i.__user_perthread_libspace) refers (Special) to D:\ProgramFiles\Keil_v5\ARM\ARMCC\Bin\..\lib\armlib\c_w.l(heapauxi.o)(.text) for __use_two_region_memory
    .\objects\mbed_boot_arm_std.o(i.__user_perthread_libspace) refers to .\objects\mbed_boot_arm_std.o(i.os_kernel_is_active) for os_kernel_is_active
    .\objects\mbed_boot_arm_std.o(i.__user_perthread_libspace) refers to .\objects\rtx_thread.o(i.osThreadGetId) for osThreadGetId
    .\objects\mbed_boot_arm_std.o(i.__user_perthread_libspace) refers to .\objects\mbed_rtx_handlers.o(i.osRtxErrorNotify) for osRtxErrorNotify
    .\objects\mbed_boot_arm_std.o(i.__user_perthread_libspace) refers to .\objects\mbed_boot_arm_std.o(.bss.os.libspace) for os_libspace_id
    .\objects\mbed_boot_arm_std.o(i._mutex_acquire) refers (Special) to D:\ProgramFiles\Keil_v5\ARM\ARMCC\Bin\..\lib\armlib\c_w.l(heapauxi.o)(.text) for __use_two_region_memory
    .\objects\mbed_boot_arm_std.o(i._mutex_acquire) refers to .\objects\mbed_boot_arm_std.o(i.os_kernel_is_active) for os_kernel_is_active
    .\objects\mbed_boot_arm_std.o(i._mutex_acquire) refers to .\objects\rtx_mutex.o(i.osMutexAcquire) for osMutexAcquire
    .\objects\mbed_boot_arm_std.o(i._mutex_free) refers (Special) to D:\ProgramFiles\Keil_v5\ARM\ARMCC\Bin\..\lib\armlib\c_w.l(heapauxi.o)(.text) for __use_two_region_memory
    .\objects\mbed_boot_arm_std.o(i._mutex_free) refers to .\objects\mbed_critical.o(i.core_util_critical_section_enter) for core_util_critical_section_enter
    .\objects\mbed_boot_arm_std.o(i._mutex_free) refers to .\objects\mbed_critical.o(i.core_util_critical_section_exit) for core_util_critical_section_exit
    .\objects\mbed_boot_arm_std.o(i._mutex_free) refers to .\objects\rtx_mutex.o(i.osMutexDelete) for osMutexDelete
    .\objects\mbed_boot_arm_std.o(i._mutex_free) refers to D:\ProgramFiles\Keil_v5\ARM\ARMCC\Bin\..\lib\armlib\c_w.l(h1_free_mt.o)(.text) for free
    .\objects\mbed_boot_arm_std.o(i._mutex_free) refers to .\objects\mbed_boot_arm_std.o(.bss) for _static_mutexes
    .\objects\mbed_boot_arm_std.o(i._mutex_initialize) refers (Special) to D:\ProgramFiles\Keil_v5\ARM\ARMCC\Bin\..\lib\armlib\c_w.l(heapauxi.o)(.text) for __use_two_region_memory
    .\objects\mbed_boot_arm_std.o(i._mutex_initialize) refers to .\objects\mbed_critical.o(i.core_util_critical_section_enter) for core_util_critical_section_enter
    .\objects\mbed_boot_arm_std.o(i._mutex_initialize) refers to .\objects\mbed_critical.o(i.core_util_critical_section_exit) for core_util_critical_section_exit
    .\objects\mbed_boot_arm_std.o(i._mutex_initialize) refers to .\objects\rtx_mutex.o(i.osMutexNew) for osMutexNew
    .\objects\mbed_boot_arm_std.o(i._mutex_initialize) refers to D:\ProgramFiles\Keil_v5\ARM\ARMCC\Bin\..\lib\armlib\c_w.l(h1_alloc_mt.o)(.text) for malloc
    .\objects\mbed_boot_arm_std.o(i._mutex_initialize) refers to .\objects\mbed_rtx_handlers.o(i.osRtxErrorNotify) for osRtxErrorNotify
    .\objects\mbed_boot_arm_std.o(i._mutex_initialize) refers to .\objects\mbed_boot_arm_std.o(.bss) for _static_mutexes
    .\objects\mbed_boot_arm_std.o(i._mutex_release) refers (Special) to D:\ProgramFiles\Keil_v5\ARM\ARMCC\Bin\..\lib\armlib\c_w.l(heapauxi.o)(.text) for __use_two_region_memory
    .\objects\mbed_boot_arm_std.o(i._mutex_release) refers to .\objects\mbed_boot_arm_std.o(i.os_kernel_is_active) for os_kernel_is_active
    .\objects\mbed_boot_arm_std.o(i._mutex_release) refers to .\objects\rtx_mutex.o(i.osMutexRelease) for osMutexRelease
    .\objects\mbed_boot_arm_std.o(i.mbed_toolchain_init) refers (Special) to D:\ProgramFiles\Keil_v5\ARM\ARMCC\Bin\..\lib\armlib\c_w.l(heapauxi.o)(.text) for __use_two_region_memory
    .\objects\mbed_boot_arm_std.o(i.mbed_toolchain_init) refers to D:\ProgramFiles\Keil_v5\ARM\ARMCC\Bin\..\lib\armlib\c_w.l(libinit.o)(.ARM.Collect$$libinit$$00000000) for __rt_lib_init
    .\objects\mbed_boot_arm_std.o(i.mbed_toolchain_init) refers to .\objects\mbed_retarget.o(.data) for mbed_heap_start
    .\objects\mbed_boot_arm_std.o(i.os_kernel_is_active) refers (Special) to D:\ProgramFiles\Keil_v5\ARM\ARMCC\Bin\..\lib\armlib\c_w.l(heapauxi.o)(.text) for __use_two_region_memory
    .\objects\mbed_boot_arm_std.o(i.os_kernel_is_active) refers to .\objects\rtx_kernel.o(i.osKernelGetState) for osKernelGetState
    .\objects\mbed_boot_arm_std.o(i.os_kernel_is_active) refers to .\objects\mbed_boot_arm_std.o(.data) for os_kernel_active
    .\objects\mbed_boot_arm_std.o(.bss) refers (Special) to D:\ProgramFiles\Keil_v5\ARM\ARMCC\Bin\..\lib\armlib\c_w.l(heapauxi.o)(.text) for __use_two_region_memory
    .\objects\mbed_boot_arm_std.o(.bss.os.libspace) refers (Special) to D:\ProgramFiles\Keil_v5\ARM\ARMCC\Bin\..\lib\armlib\c_w.l(heapauxi.o)(.text) for __use_two_region_memory
    .\objects\mbed_boot_arm_std.o(.data) refers (Special) to D:\ProgramFiles\Keil_v5\ARM\ARMCC\Bin\..\lib\armlib\c_w.l(heapauxi.o)(.text) for __use_two_region_memory
    .\objects\conditionvariable.o(i._ZN4rtos17ConditionVariable10notify_allEv) refers to .\objects\mutex.o(i._ZN4rtos5Mutex9get_ownerEv) for rtos::Mutex::get_owner()
    .\objects\conditionvariable.o(i._ZN4rtos17ConditionVariable10notify_allEv) refers to .\objects\thisthread.o(i._ZN4rtos10ThisThread6get_idEv) for rtos::ThisThread::get_id()
    .\objects\conditionvariable.o(i._ZN4rtos17ConditionVariable10notify_allEv) refers to .\objects\mbed_assert.o(i.mbed_assert_internal) for mbed_assert_internal
    .\objects\conditionvariable.o(i._ZN4rtos17ConditionVariable10notify_allEv) refers to .\objects\semaphore.o(i._ZN4rtos9Semaphore7releaseEv) for rtos::Semaphore::release()
    .\objects\conditionvariable.o(i._ZN4rtos17ConditionVariable10notify_allEv) refers to .\objects\conditionvariable.o(i._ZN4rtos17ConditionVariable17_remove_wait_listEPPNS0_6WaiterES2_) for rtos::ConditionVariable::_remove_wait_list(rtos::ConditionVariable::Waiter**, rtos::ConditionVariable::Waiter*)
    .\objects\conditionvariable.o(i._ZN4rtos17ConditionVariable10notify_oneEv) refers to .\objects\mutex.o(i._ZN4rtos5Mutex9get_ownerEv) for rtos::Mutex::get_owner()
    .\objects\conditionvariable.o(i._ZN4rtos17ConditionVariable10notify_oneEv) refers to .\objects\thisthread.o(i._ZN4rtos10ThisThread6get_idEv) for rtos::ThisThread::get_id()
    .\objects\conditionvariable.o(i._ZN4rtos17ConditionVariable10notify_oneEv) refers to .\objects\mbed_assert.o(i.mbed_assert_internal) for mbed_assert_internal
    .\objects\conditionvariable.o(i._ZN4rtos17ConditionVariable10notify_oneEv) refers to .\objects\semaphore.o(i._ZN4rtos9Semaphore7releaseEv) for rtos::Semaphore::release()
    .\objects\conditionvariable.o(i._ZN4rtos17ConditionVariable10notify_oneEv) refers to .\objects\conditionvariable.o(i._ZN4rtos17ConditionVariable17_remove_wait_listEPPNS0_6WaiterES2_) for rtos::ConditionVariable::_remove_wait_list(rtos::ConditionVariable::Waiter**, rtos::ConditionVariable::Waiter*)
    .\objects\conditionvariable.o(i._ZN4rtos17ConditionVariable10wait_untilEy) refers to .\objects\kernel.o(i._ZN4rtos6Kernel12get_ms_countEv) for rtos::Kernel::get_ms_count()
    .\objects\conditionvariable.o(i._ZN4rtos17ConditionVariable10wait_untilEy) refers to .\objects\conditionvariable.o(i._ZN4rtos17ConditionVariable8wait_forEj) for rtos::ConditionVariable::wait_for(unsigned)
    .\objects\conditionvariable.o(i._ZN4rtos17ConditionVariable4waitEv) refers to .\objects\conditionvariable.o(i._ZN4rtos17ConditionVariable8wait_forEj) for rtos::ConditionVariable::wait_for(unsigned)
    .\objects\conditionvariable.o(i._ZN4rtos17ConditionVariable6WaiterC1Ev) refers to .\objects\semaphore.o(i._ZN4rtos9SemaphoreC1Ei) for rtos::Semaphore::Semaphore(int)
    .\objects\conditionvariable.o(i._ZN4rtos17ConditionVariable8wait_forEj) refers to .\objects\conditionvariable.o(i._ZN4rtos17ConditionVariable6WaiterC1Ev) for rtos::ConditionVariable::Waiter::Waiter()
    .\objects\conditionvariable.o(i._ZN4rtos17ConditionVariable8wait_forEj) refers to .\objects\mutex.o(i._ZN4rtos5Mutex9get_ownerEv) for rtos::Mutex::get_owner()
    .\objects\conditionvariable.o(i._ZN4rtos17ConditionVariable8wait_forEj) refers to .\objects\thisthread.o(i._ZN4rtos10ThisThread6get_idEv) for rtos::ThisThread::get_id()
    .\objects\conditionvariable.o(i._ZN4rtos17ConditionVariable8wait_forEj) refers to .\objects\mbed_assert.o(i.mbed_assert_internal) for mbed_assert_internal
    .\objects\conditionvariable.o(i._ZN4rtos17ConditionVariable8wait_forEj) refers to .\objects\conditionvariable.o(i._ZN4rtos17ConditionVariable14_add_wait_listEPPNS0_6WaiterES2_) for rtos::ConditionVariable::_add_wait_list(rtos::ConditionVariable::Waiter**, rtos::ConditionVariable::Waiter*)
    .\objects\conditionvariable.o(i._ZN4rtos17ConditionVariable8wait_forEj) refers to .\objects\mutex.o(i._ZN4rtos5Mutex6unlockEv) for rtos::Mutex::unlock()
    .\objects\conditionvariable.o(i._ZN4rtos17ConditionVariable8wait_forEj) refers to .\objects\semaphore.o(i._ZN4rtos9Semaphore4waitEj) for rtos::Semaphore::wait(unsigned)
    .\objects\conditionvariable.o(i._ZN4rtos17ConditionVariable8wait_forEj) refers to .\objects\mutex.o(i._ZN4rtos5Mutex4lockEv) for rtos::Mutex::lock()
    .\objects\conditionvariable.o(i._ZN4rtos17ConditionVariable8wait_forEj) refers to .\objects\conditionvariable.o(i._ZN4rtos17ConditionVariable17_remove_wait_listEPPNS0_6WaiterES2_) for rtos::ConditionVariable::_remove_wait_list(rtos::ConditionVariable::Waiter**, rtos::ConditionVariable::Waiter*)
    .\objects\conditionvariable.o(i._ZN4rtos17ConditionVariable8wait_forEj) refers to .\objects\semaphore.o(i._ZN4rtos9SemaphoreD1Ev) for rtos::Semaphore::~Semaphore()
    .\objects\conditionvariable.o(i._ZN4rtos17ConditionVariableD1Ev) refers to .\objects\mbed_assert.o(i.mbed_assert_internal) for mbed_assert_internal
    .\objects\conditionvariable.o(.ARM.exidx) refers to .\objects\conditionvariable.o(i._ZN4rtos17ConditionVariableC1ERNS_5MutexE) for i._ZN4rtos17ConditionVariableC1ERNS_5MutexE
    .\objects\conditionvariable.o(.ARM.exidx) refers to .\objects\conditionvariable.o(i._ZN4rtos17ConditionVariable17_remove_wait_listEPPNS0_6WaiterES2_) for i._ZN4rtos17ConditionVariable17_remove_wait_listEPPNS0_6WaiterES2_
    .\objects\conditionvariable.o(.ARM.exidx) refers to .\objects\conditionvariable.o(i._ZN4rtos17ConditionVariable14_add_wait_listEPPNS0_6WaiterES2_) for i._ZN4rtos17ConditionVariable14_add_wait_listEPPNS0_6WaiterES2_
    .\objects\conditionvariable.o(.ARM.exidx) refers to .\objects\conditionvariable.o(i._ZN4rtos17ConditionVariable6WaiterC1Ev) for i._ZN4rtos17ConditionVariable6WaiterC1Ev
    .\objects\conditionvariable.o(.ARM.exidx) refers to .\objects\conditionvariable.o(i._ZN4rtos17ConditionVariable8wait_forEj) for i._ZN4rtos17ConditionVariable8wait_forEj
    .\objects\conditionvariable.o(.ARM.exidx) refers to .\objects\conditionvariable.o(i._ZN4rtos17ConditionVariable4waitEv) for i._ZN4rtos17ConditionVariable4waitEv
    .\objects\conditionvariable.o(.ARM.exidx) refers to .\objects\conditionvariable.o(i._ZN4rtos17ConditionVariable10wait_untilEy) for i._ZN4rtos17ConditionVariable10wait_untilEy
    .\objects\conditionvariable.o(.ARM.exidx) refers to .\objects\conditionvariable.o(i._ZN4rtos17ConditionVariable10notify_oneEv) for i._ZN4rtos17ConditionVariable10notify_oneEv
    .\objects\conditionvariable.o(.ARM.exidx) refers to .\objects\conditionvariable.o(i._ZN4rtos17ConditionVariable10notify_allEv) for i._ZN4rtos17ConditionVariable10notify_allEv
    .\objects\conditionvariable.o(.ARM.exidx) refers to .\objects\conditionvariable.o(i._ZN4rtos17ConditionVariableD1Ev) for i._ZN4rtos17ConditionVariableD1Ev
    .\objects\eventflags.o(i._ZN4rtos10EventFlags11constructorEPKc) refers to .\objects\rtx_evflags.o(i.osEventFlagsNew) for osEventFlagsNew
    .\objects\eventflags.o(i._ZN4rtos10EventFlags11constructorEPKc) refers to .\objects\mbed_assert.o(i.mbed_assert_internal) for mbed_assert_internal
    .\objects\eventflags.o(i._ZN4rtos10EventFlags3setEj) refers to .\objects\rtx_evflags.o(i.osEventFlagsSet) for osEventFlagsSet
    .\objects\eventflags.o(i._ZN4rtos10EventFlags4waitEjjjb) refers to .\objects\rtx_evflags.o(i.osEventFlagsWait) for osEventFlagsWait
    .\objects\eventflags.o(i._ZN4rtos10EventFlags5clearEj) refers to .\objects\rtx_evflags.o(i.osEventFlagsClear) for osEventFlagsClear
    .\objects\eventflags.o(i._ZN4rtos10EventFlags8wait_allEjjb) refers to .\objects\eventflags.o(i._ZN4rtos10EventFlags4waitEjjjb) for rtos::EventFlags::wait(unsigned, unsigned, unsigned, bool)
    .\objects\eventflags.o(i._ZN4rtos10EventFlags8wait_anyEjjb) refers to .\objects\eventflags.o(i._ZN4rtos10EventFlags4waitEjjjb) for rtos::EventFlags::wait(unsigned, unsigned, unsigned, bool)
    .\objects\eventflags.o(i._ZN4rtos10EventFlagsC1EPKc) refers to .\objects\eventflags.o(i._ZN4rtos10EventFlags11constructorEPKc) for rtos::EventFlags::constructor(const char*)
    .\objects\eventflags.o(i._ZN4rtos10EventFlagsC1Ev) refers to .\objects\eventflags.o(i._ZN4rtos10EventFlags11constructorEPKc) for rtos::EventFlags::constructor(const char*)
    .\objects\eventflags.o(i._ZN4rtos10EventFlagsD1Ev) refers to .\objects\rtx_evflags.o(i.osEventFlagsDelete) for osEventFlagsDelete
    .\objects\eventflags.o(i._ZNK4rtos10EventFlags3getEv) refers to .\objects\rtx_evflags.o(i.osEventFlagsGet) for osEventFlagsGet
    .\objects\eventflags.o(.ARM.exidx) refers to .\objects\eventflags.o(i._ZN4rtos10EventFlags11constructorEPKc) for i._ZN4rtos10EventFlags11constructorEPKc
    .\objects\eventflags.o(.ARM.exidx) refers to .\objects\eventflags.o(i._ZN4rtos10EventFlagsC1Ev) for i._ZN4rtos10EventFlagsC1Ev
    .\objects\eventflags.o(.ARM.exidx) refers to .\objects\eventflags.o(i._ZN4rtos10EventFlagsC1EPKc) for i._ZN4rtos10EventFlagsC1EPKc
    .\objects\eventflags.o(.ARM.exidx) refers to .\objects\eventflags.o(i._ZN4rtos10EventFlags3setEj) for i._ZN4rtos10EventFlags3setEj
    .\objects\eventflags.o(.ARM.exidx) refers to .\objects\eventflags.o(i._ZN4rtos10EventFlags5clearEj) for i._ZN4rtos10EventFlags5clearEj
    .\objects\eventflags.o(.ARM.exidx) refers to .\objects\eventflags.o(i._ZNK4rtos10EventFlags3getEv) for i._ZNK4rtos10EventFlags3getEv
    .\objects\eventflags.o(.ARM.exidx) refers to .\objects\eventflags.o(i._ZN4rtos10EventFlags4waitEjjjb) for i._ZN4rtos10EventFlags4waitEjjjb
    .\objects\eventflags.o(.ARM.exidx) refers to .\objects\eventflags.o(i._ZN4rtos10EventFlags8wait_allEjjb) for i._ZN4rtos10EventFlags8wait_allEjjb
    .\objects\eventflags.o(.ARM.exidx) refers to .\objects\eventflags.o(i._ZN4rtos10EventFlags8wait_anyEjjb) for i._ZN4rtos10EventFlags8wait_anyEjjb
    .\objects\eventflags.o(.ARM.exidx) refers to .\objects\eventflags.o(i._ZN4rtos10EventFlagsD1Ev) for i._ZN4rtos10EventFlagsD1Ev
    .\objects\kernel.o(i._ZN4rtos6Kernel12get_ms_countEv) refers to .\objects\mbed_critical.o(i.core_util_critical_section_enter) for core_util_critical_section_enter
    .\objects\kernel.o(i._ZN4rtos6Kernel12get_ms_countEv) refers to .\objects\rtx_kernel.o(i.osKernelGetTickCount) for osKernelGetTickCount
    .\objects\kernel.o(i._ZN4rtos6Kernel12get_ms_countEv) refers to .\objects\mbed_critical.o(i.core_util_critical_section_exit) for core_util_critical_section_exit
    .\objects\kernel.o(i._ZN4rtos6Kernel12get_ms_countEv) refers to .\objects\kernel.o(.data) for tick_l
    .\objects\kernel.o(i._ZN4rtos6Kernel16attach_idle_hookEPFvvE) refers to .\objects\mbed_rtx_idle.o(i.rtos_attach_idle_hook) for rtos_attach_idle_hook
    .\objects\kernel.o(i._ZN4rtos6Kernel28attach_thread_terminate_hookEPFvPvE) refers to .\objects\mbed_rtx_handlers.o(i.rtos_attach_thread_terminate_hook) for rtos_attach_thread_terminate_hook
    .\objects\kernel.o(.ARM.exidx) refers to .\objects\kernel.o(i._ZN4rtos6Kernel12get_ms_countEv) for i._ZN4rtos6Kernel12get_ms_countEv
    .\objects\kernel.o(.ARM.exidx) refers to .\objects\kernel.o(i._ZN4rtos6Kernel16attach_idle_hookEPFvvE) for i._ZN4rtos6Kernel16attach_idle_hookEPFvvE
    .\objects\kernel.o(.ARM.exidx) refers to .\objects\kernel.o(i._ZN4rtos6Kernel28attach_thread_terminate_hookEPFvPvE) for i._ZN4rtos6Kernel28attach_thread_terminate_hookEPFvPvE
    .\objects\mutex.o(i._ZN4rtos5Mutex11constructorEPKc) refers to D:\ProgramFiles\Keil_v5\ARM\ARMCC\Bin\..\lib\armlib\c_w.l(rt_memclr_w.o)(.text) for __aeabi_memclr4
    .\objects\mutex.o(i._ZN4rtos5Mutex11constructorEPKc) refers to .\objects\rtx_mutex.o(i.osMutexNew) for osMutexNew
    .\objects\mutex.o(i._ZN4rtos5Mutex11constructorEPKc) refers to .\objects\mbed_assert.o(i.mbed_assert_internal) for mbed_assert_internal
    .\objects\mutex.o(i._ZN4rtos5Mutex11trylock_forEj) refers to .\objects\rtx_mutex.o(i.osMutexAcquire) for osMutexAcquire
    .\objects\mutex.o(i._ZN4rtos5Mutex11trylock_forEj) refers to .\objects\mbed_error.o(i.mbed_error) for mbed_error
    .\objects\mutex.o(i._ZN4rtos5Mutex13trylock_untilEy) refers to .\objects\kernel.o(i._ZN4rtos6Kernel12get_ms_countEv) for rtos::Kernel::get_ms_count()
    .\objects\mutex.o(i._ZN4rtos5Mutex13trylock_untilEy) refers to .\objects\mutex.o(i._ZN4rtos5Mutex7trylockEv) for rtos::Mutex::trylock()
    .\objects\mutex.o(i._ZN4rtos5Mutex13trylock_untilEy) refers to .\objects\mutex.o(i._ZN4rtos5Mutex11trylock_forEj) for rtos::Mutex::trylock_for(unsigned)
    .\objects\mutex.o(i._ZN4rtos5Mutex4lockEj) refers to .\objects\rtx_mutex.o(i.osMutexAcquire) for osMutexAcquire
    .\objects\mutex.o(i._ZN4rtos5Mutex4lockEj) refers to .\objects\mbed_error.o(i.mbed_error) for mbed_error
    .\objects\mutex.o(i._ZN4rtos5Mutex4lockEv) refers to .\objects\rtx_mutex.o(i.osMutexAcquire) for osMutexAcquire
    .\objects\mutex.o(i._ZN4rtos5Mutex4lockEv) refers to .\objects\mbed_error.o(i.mbed_error) for mbed_error
    .\objects\mutex.o(i._ZN4rtos5Mutex6unlockEv) refers to .\objects\rtx_mutex.o(i.osMutexRelease) for osMutexRelease
    .\objects\mutex.o(i._ZN4rtos5Mutex6unlockEv) refers to .\objects\mbed_error.o(i.mbed_error) for mbed_error
    .\objects\mutex.o(i._ZN4rtos5Mutex7trylockEv) refers to .\objects\mutex.o(i._ZN4rtos5Mutex11trylock_forEj) for rtos::Mutex::trylock_for(unsigned)
    .\objects\mutex.o(i._ZN4rtos5Mutex9get_ownerEv) refers to .\objects\rtx_mutex.o(i.osMutexGetOwner) for osMutexGetOwner
    .\objects\mutex.o(i._ZN4rtos5MutexC1EPKc) refers to .\objects\mutex.o(i._ZN4rtos5Mutex11constructorEPKc) for rtos::Mutex::constructor(const char*)
    .\objects\mutex.o(i._ZN4rtos5MutexC1Ev) refers to .\objects\mutex.o(i._ZN4rtos5Mutex11constructorEPKc) for rtos::Mutex::constructor(const char*)
    .\objects\mutex.o(i._ZN4rtos5MutexD1Ev) refers to .\objects\rtx_mutex.o(i.osMutexDelete) for osMutexDelete
    .\objects\mutex.o(.ARM.exidx) refers to .\objects\mutex.o(i._ZN4rtos5Mutex11constructorEPKc) for i._ZN4rtos5Mutex11constructorEPKc
    .\objects\mutex.o(.ARM.exidx) refers to .\objects\mutex.o(i._ZN4rtos5MutexC1Ev) for i._ZN4rtos5MutexC1Ev
    .\objects\mutex.o(.ARM.exidx) refers to .\objects\mutex.o(i._ZN4rtos5MutexC1EPKc) for i._ZN4rtos5MutexC1EPKc
    .\objects\mutex.o(.ARM.exidx) refers to .\objects\mutex.o(i._ZN4rtos5Mutex4lockEv) for i._ZN4rtos5Mutex4lockEv
    .\objects\mutex.o(.ARM.exidx) refers to .\objects\mutex.o(i._ZN4rtos5Mutex4lockEj) for i._ZN4rtos5Mutex4lockEj
    .\objects\mutex.o(.ARM.exidx) refers to .\objects\mutex.o(i._ZN4rtos5Mutex11trylock_forEj) for i._ZN4rtos5Mutex11trylock_forEj
    .\objects\mutex.o(.ARM.exidx) refers to .\objects\mutex.o(i._ZN4rtos5Mutex7trylockEv) for i._ZN4rtos5Mutex7trylockEv
    .\objects\mutex.o(.ARM.exidx) refers to .\objects\mutex.o(i._ZN4rtos5Mutex13trylock_untilEy) for i._ZN4rtos5Mutex13trylock_untilEy
    .\objects\mutex.o(.ARM.exidx) refers to .\objects\mutex.o(i._ZN4rtos5Mutex6unlockEv) for i._ZN4rtos5Mutex6unlockEv
    .\objects\mutex.o(.ARM.exidx) refers to .\objects\mutex.o(i._ZN4rtos5Mutex9get_ownerEv) for i._ZN4rtos5Mutex9get_ownerEv
    .\objects\mutex.o(.ARM.exidx) refers to .\objects\mutex.o(i._ZN4rtos5MutexD1Ev) for i._ZN4rtos5MutexD1Ev
    .\objects\rtostimer.o(i._ZN4rtos9RtosTimer11constructorEN4mbed8CallbackIFvvEEE13osTimerType_t) refers to .\objects\can.o(t._ZN4mbed8CallbackIFvvEED1Ev) for mbed::Callback<void()>::~Callback()
    .\objects\rtostimer.o(i._ZN4rtos9RtosTimer11constructorEN4mbed8CallbackIFvvEEE13osTimerType_t) refers to D:\ProgramFiles\Keil_v5\ARM\ARMCC\Bin\..\lib\armlib\c_w.l(rt_memclr_w.o)(.text) for __aeabi_memclr4
    .\objects\rtostimer.o(i._ZN4rtos9RtosTimer11constructorEN4mbed8CallbackIFvvEEE13osTimerType_t) refers to .\objects\rtx_timer.o(i.osTimerNew) for osTimerNew
    .\objects\rtostimer.o(i._ZN4rtos9RtosTimer11constructorEN4mbed8CallbackIFvvEEE13osTimerType_t) refers to .\objects\mbed_assert.o(i.mbed_assert_internal) for mbed_assert_internal
    .\objects\rtostimer.o(i._ZN4rtos9RtosTimer11constructorEN4mbed8CallbackIFvvEEE13osTimerType_t) refers to .\objects\rtostimer.o(t._ZN4mbed8CallbackIFvvEE5thunkEPv) for mbed::Callback<void()>::thunk(void*)
    .\objects\rtostimer.o(i._ZN4rtos9RtosTimer4stopEv) refers to .\objects\rtx_timer.o(i.osTimerStop) for osTimerStop
    .\objects\rtostimer.o(i._ZN4rtos9RtosTimer5startEj) refers to .\objects\rtx_timer.o(i.osTimerStart) for osTimerStart
    .\objects\rtostimer.o(i._ZN4rtos9RtosTimerD1Ev) refers to .\objects\rtx_timer.o(i.osTimerDelete) for osTimerDelete
    .\objects\rtostimer.o(i._ZN4rtos9RtosTimerD1Ev) refers to .\objects\can.o(t._ZN4mbed8CallbackIFvvEED1Ev) for mbed::Callback<void()>::~Callback()
    .\objects\rtostimer.o(.ARM.exidx) refers to .\objects\rtostimer.o(i._ZN4rtos9RtosTimer4stopEv) for i._ZN4rtos9RtosTimer4stopEv
    .\objects\rtostimer.o(.ARM.exidx) refers to .\objects\rtostimer.o(i._ZN4rtos9RtosTimer5startEj) for i._ZN4rtos9RtosTimer5startEj
    .\objects\rtostimer.o(.ARM.exidx) refers to .\objects\rtostimer.o(i._ZN4rtos9RtosTimerD1Ev) for i._ZN4rtos9RtosTimerD1Ev
    .\objects\rtostimer.o(.ARM.exidx) refers to .\objects\rtostimer.o(i._ZN4rtos9RtosTimer11constructorEN4mbed8CallbackIFvvEEE13osTimerType_t) for i._ZN4rtos9RtosTimer11constructorEN4mbed8CallbackIFvvEEE13osTimerType_t
    .\objects\semaphore.o(i._ZN4rtos9Semaphore10wait_untilEy) refers to .\objects\kernel.o(i._ZN4rtos6Kernel12get_ms_countEv) for rtos::Kernel::get_ms_count()
    .\objects\semaphore.o(i._ZN4rtos9Semaphore10wait_untilEy) refers to .\objects\semaphore.o(i._ZN4rtos9Semaphore4waitEj) for rtos::Semaphore::wait(unsigned)
    .\objects\semaphore.o(i._ZN4rtos9Semaphore11constructorEit) refers to .\objects\rtx_semaphore.o(i.osSemaphoreNew) for osSemaphoreNew
    .\objects\semaphore.o(i._ZN4rtos9Semaphore11constructorEit) refers to .\objects\mbed_assert.o(i.mbed_assert_internal) for mbed_assert_internal
    .\objects\semaphore.o(i._ZN4rtos9Semaphore4waitEj) refers to .\objects\rtx_semaphore.o(i.osSemaphoreAcquire) for osSemaphoreAcquire
    .\objects\semaphore.o(i._ZN4rtos9Semaphore4waitEj) refers to .\objects\rtx_semaphore.o(i.osSemaphoreGetCount) for osSemaphoreGetCount
    .\objects\semaphore.o(i._ZN4rtos9Semaphore7releaseEv) refers to .\objects\rtx_semaphore.o(i.osSemaphoreRelease) for osSemaphoreRelease
    .\objects\semaphore.o(i._ZN4rtos9SemaphoreC1Ei) refers to .\objects\semaphore.o(i._ZN4rtos9Semaphore11constructorEit) for rtos::Semaphore::constructor(int, unsigned short)
    .\objects\semaphore.o(i._ZN4rtos9SemaphoreC1Eit) refers to .\objects\semaphore.o(i._ZN4rtos9Semaphore11constructorEit) for rtos::Semaphore::constructor(int, unsigned short)
    .\objects\semaphore.o(i._ZN4rtos9SemaphoreD1Ev) refers to .\objects\rtx_semaphore.o(i.osSemaphoreDelete) for osSemaphoreDelete
    .\objects\semaphore.o(.ARM.exidx) refers to .\objects\semaphore.o(i._ZN4rtos9Semaphore11constructorEit) for i._ZN4rtos9Semaphore11constructorEit
    .\objects\semaphore.o(.ARM.exidx) refers to .\objects\semaphore.o(i._ZN4rtos9SemaphoreC1Ei) for i._ZN4rtos9SemaphoreC1Ei
    .\objects\semaphore.o(.ARM.exidx) refers to .\objects\semaphore.o(i._ZN4rtos9SemaphoreC1Eit) for i._ZN4rtos9SemaphoreC1Eit
    .\objects\semaphore.o(.ARM.exidx) refers to .\objects\semaphore.o(i._ZN4rtos9Semaphore4waitEj) for i._ZN4rtos9Semaphore4waitEj
    .\objects\semaphore.o(.ARM.exidx) refers to .\objects\semaphore.o(i._ZN4rtos9Semaphore10wait_untilEy) for i._ZN4rtos9Semaphore10wait_untilEy
    .\objects\semaphore.o(.ARM.exidx) refers to .\objects\semaphore.o(i._ZN4rtos9Semaphore7releaseEv) for i._ZN4rtos9Semaphore7releaseEv
    .\objects\semaphore.o(.ARM.exidx) refers to .\objects\semaphore.o(i._ZN4rtos9SemaphoreD1Ev) for i._ZN4rtos9SemaphoreD1Ev
    .\objects\thisthread.o(i._ZN4rtos10ThisThread11flags_clearEj) refers to .\objects\rtx_thread.o(i.osThreadFlagsClear) for osThreadFlagsClear
    .\objects\thisthread.o(i._ZN4rtos10ThisThread11flags_clearEj) refers to .\objects\mbed_assert.o(i.mbed_assert_internal) for mbed_assert_internal
    .\objects\thisthread.o(i._ZN4rtos10ThisThread11sleep_untilEy) refers to .\objects\thisthread.o(i._ZN4rtos10ThisThread9sleep_forEj) for rtos::ThisThread::sleep_for(unsigned)
    .\objects\thisthread.o(i._ZN4rtos10ThisThread11sleep_untilEy) refers to .\objects\kernel.o(i._ZN4rtos6Kernel12get_ms_countEv) for rtos::Kernel::get_ms_count()
    .\objects\thisthread.o(i._ZN4rtos10ThisThread14flags_wait_allEjb) refers to .\objects\thisthread.o(i._ZN4rtos14flags_wait_forEjjbj) for rtos::flags_wait_for(unsigned, unsigned, bool, unsigned)
    .\objects\thisthread.o(i._ZN4rtos10ThisThread14flags_wait_anyEjb) refers to .\objects\thisthread.o(i._ZN4rtos14flags_wait_forEjjbj) for rtos::flags_wait_for(unsigned, unsigned, bool, unsigned)
    .\objects\thisthread.o(i._ZN4rtos10ThisThread18flags_wait_all_forEjjb) refers to .\objects\thisthread.o(i._ZN4rtos14flags_wait_forEjjbj) for rtos::flags_wait_for(unsigned, unsigned, bool, unsigned)
    .\objects\thisthread.o(i._ZN4rtos10ThisThread18flags_wait_any_forEjjb) refers to .\objects\thisthread.o(i._ZN4rtos14flags_wait_forEjjbj) for rtos::flags_wait_for(unsigned, unsigned, bool, unsigned)
    .\objects\thisthread.o(i._ZN4rtos10ThisThread20flags_wait_all_untilEjyb) refers to .\objects\thisthread.o(i._ZN4rtos16flags_wait_untilEjybj) for rtos::flags_wait_until(unsigned, unsigned long long, bool, unsigned)
    .\objects\thisthread.o(i._ZN4rtos10ThisThread20flags_wait_any_untilEjyb) refers to .\objects\thisthread.o(i._ZN4rtos16flags_wait_untilEjybj) for rtos::flags_wait_until(unsigned, unsigned long long, bool, unsigned)
    .\objects\thisthread.o(i._ZN4rtos10ThisThread5yieldEv) refers to .\objects\rtx_thread.o(i.osThreadYield) for osThreadYield
    .\objects\thisthread.o(i._ZN4rtos10ThisThread6get_idEv) refers to .\objects\rtx_thread.o(i.osThreadGetId) for osThreadGetId
    .\objects\thisthread.o(i._ZN4rtos10ThisThread9flags_getEv) refers to .\objects\rtx_thread.o(i.osThreadFlagsGet) for osThreadFlagsGet
    .\objects\thisthread.o(i._ZN4rtos10ThisThread9sleep_forEj) refers to .\objects\rtx_delay.o(i.osDelay) for osDelay
    .\objects\thisthread.o(i._ZN4rtos10ThisThread9sleep_forEj) refers to .\objects\mbed_assert.o(i.mbed_assert_internal) for mbed_assert_internal
    .\objects\thisthread.o(i._ZN4rtos14flags_wait_forEjjbj) refers to .\objects\rtx_thread.o(i.osThreadFlagsWait) for osThreadFlagsWait
    .\objects\thisthread.o(i._ZN4rtos14flags_wait_forEjjbj) refers to .\objects\mbed_assert.o(i.mbed_assert_internal) for mbed_assert_internal
    .\objects\thisthread.o(i._ZN4rtos14flags_wait_forEjjbj) refers to .\objects\thisthread.o(i._ZN4rtos10ThisThread9flags_getEv) for rtos::ThisThread::flags_get()
    .\objects\thisthread.o(i._ZN4rtos14flags_wait_forEjjbj) refers to .\objects\thisthread.o(.conststring) for .conststring
    .\objects\thisthread.o(i._ZN4rtos16flags_wait_untilEjybj) refers to .\objects\kernel.o(i._ZN4rtos6Kernel12get_ms_countEv) for rtos::Kernel::get_ms_count()
    .\objects\thisthread.o(i._ZN4rtos16flags_wait_untilEjybj) refers to .\objects\thisthread.o(i._ZN4rtos14flags_wait_forEjjbj) for rtos::flags_wait_for(unsigned, unsigned, bool, unsigned)
    .\objects\thisthread.o(.ARM.exidx) refers to .\objects\thisthread.o(i._ZN4rtos10ThisThread11flags_clearEj) for i._ZN4rtos10ThisThread11flags_clearEj
    .\objects\thisthread.o(.ARM.exidx) refers to .\objects\thisthread.o(i._ZN4rtos10ThisThread9flags_getEv) for i._ZN4rtos10ThisThread9flags_getEv
    .\objects\thisthread.o(.ARM.exidx) refers to .\objects\thisthread.o(i._ZN4rtos14flags_wait_forEjjbj) for i._ZN4rtos14flags_wait_forEjjbj
    .\objects\thisthread.o(.ARM.exidx) refers to .\objects\thisthread.o(i._ZN4rtos10ThisThread14flags_wait_allEjb) for i._ZN4rtos10ThisThread14flags_wait_allEjb
    .\objects\thisthread.o(.ARM.exidx) refers to .\objects\thisthread.o(i._ZN4rtos10ThisThread18flags_wait_all_forEjjb) for i._ZN4rtos10ThisThread18flags_wait_all_forEjjb
    .\objects\thisthread.o(.ARM.exidx) refers to .\objects\thisthread.o(i._ZN4rtos16flags_wait_untilEjybj) for i._ZN4rtos16flags_wait_untilEjybj
    .\objects\thisthread.o(.ARM.exidx) refers to .\objects\thisthread.o(i._ZN4rtos10ThisThread20flags_wait_all_untilEjyb) for i._ZN4rtos10ThisThread20flags_wait_all_untilEjyb
    .\objects\thisthread.o(.ARM.exidx) refers to .\objects\thisthread.o(i._ZN4rtos10ThisThread14flags_wait_anyEjb) for i._ZN4rtos10ThisThread14flags_wait_anyEjb
    .\objects\thisthread.o(.ARM.exidx) refers to .\objects\thisthread.o(i._ZN4rtos10ThisThread18flags_wait_any_forEjjb) for i._ZN4rtos10ThisThread18flags_wait_any_forEjjb
    .\objects\thisthread.o(.ARM.exidx) refers to .\objects\thisthread.o(i._ZN4rtos10ThisThread20flags_wait_any_untilEjyb) for i._ZN4rtos10ThisThread20flags_wait_any_untilEjyb
    .\objects\thisthread.o(.ARM.exidx) refers to .\objects\thisthread.o(i._ZN4rtos10ThisThread9sleep_forEj) for i._ZN4rtos10ThisThread9sleep_forEj
    .\objects\thisthread.o(.ARM.exidx) refers to .\objects\thisthread.o(i._ZN4rtos10ThisThread11sleep_untilEy) for i._ZN4rtos10ThisThread11sleep_untilEy
    .\objects\thisthread.o(.ARM.exidx) refers to .\objects\thisthread.o(i._ZN4rtos10ThisThread5yieldEv) for i._ZN4rtos10ThisThread5yieldEv
    .\objects\thisthread.o(.ARM.exidx) refers to .\objects\thisthread.o(i._ZN4rtos10ThisThread6get_idEv) for i._ZN4rtos10ThisThread6get_idEv
    .\objects\thread.o(i._ZN4rtos6Thread10signal_clrEi) refers to .\objects\rtx_thread.o(i.osThreadFlagsClear) for osThreadFlagsClear
    .\objects\thread.o(i._ZN4rtos6Thread10signal_setEi) refers to .\objects\rtx_thread.o(i.osThreadFlagsSet) for osThreadFlagsSet
    .\objects\thread.o(i._ZN4rtos6Thread10wait_untilEy) refers to .\objects\thisthread.o(i._ZN4rtos10ThisThread11sleep_untilEy) for rtos::ThisThread::sleep_until(unsigned long long)
    .\objects\thread.o(i._ZN4rtos6Thread11constructorE12osPriority_tjPhPKc) refers to .\objects\thread.o(i._ZN4rtos6Thread11constructorEj12osPriority_tjPhPKc) for rtos::Thread::constructor(unsigned, osPriority_t, unsigned, unsigned char*, const char*)
    .\objects\thread.o(i._ZN4rtos6Thread11constructorEN4mbed8CallbackIFvvEEE12osPriority_tjPhPKc) refers to .\objects\thread.o(i._ZN4rtos6Thread11constructorEj12osPriority_tjPhPKc) for rtos::Thread::constructor(unsigned, osPriority_t, unsigned, unsigned char*, const char*)
    .\objects\thread.o(i._ZN4rtos6Thread11constructorEN4mbed8CallbackIFvvEEE12osPriority_tjPhPKc) refers to .\objects\thread.o(t._ZN4mbed8CallbackIFvvEEC1ERKS2_) for mbed::Callback<void()>::Callback(const mbed::Callback<void()>&)
    .\objects\thread.o(i._ZN4rtos6Thread11constructorEN4mbed8CallbackIFvvEEE12osPriority_tjPhPKc) refers to .\objects\thread.o(i._ZN4rtos6Thread5startEN4mbed8CallbackIFvvEEE) for rtos::Thread::start(mbed::Callback<void()>)
    .\objects\thread.o(i._ZN4rtos6Thread11constructorEN4mbed8CallbackIFvvEEE12osPriority_tjPhPKc) refers to .\objects\can.o(t._ZN4mbed8CallbackIFvvEED1Ev) for mbed::Callback<void()>::~Callback()
    .\objects\thread.o(i._ZN4rtos6Thread11constructorEN4mbed8CallbackIFvvEEE12osPriority_tjPhPKc) refers to .\objects\can.o(t._ZNK4mbed8CallbackIFvvEEcvbEv) for mbed::Callback<void()>::operator bool() const
    .\objects\thread.o(i._ZN4rtos6Thread11constructorEN4mbed8CallbackIFvvEEE12osPriority_tjPhPKc) refers to .\objects\mbed_error.o(i.mbed_error) for mbed_error
    .\objects\thread.o(i._ZN4rtos6Thread11constructorEj12osPriority_tjPhPKc) refers to D:\ProgramFiles\Keil_v5\ARM\ARMCC\Bin\..\lib\armlib\c_w.l(rt_memclr_w.o)(.text) for __aeabi_memclr4
    .\objects\thread.o(i._ZN4rtos6Thread11signal_waitEij) refers to .\objects\rtx_thread.o(i.osThreadFlagsWait) for osThreadFlagsWait
    .\objects\thread.o(i._ZN4rtos6Thread12set_priorityE12osPriority_t) refers to .\objects\mutex.o(i._ZN4rtos5Mutex4lockEv) for rtos::Mutex::lock()
    .\objects\thread.o(i._ZN4rtos6Thread12set_priorityE12osPriority_t) refers to .\objects\rtx_thread.o(i.osThreadSetPriority) for osThreadSetPriority
    .\objects\thread.o(i._ZN4rtos6Thread12set_priorityE12osPriority_t) refers to .\objects\mutex.o(i._ZN4rtos5Mutex6unlockEv) for rtos::Mutex::unlock()
    .\objects\thread.o(i._ZN4rtos6Thread16attach_idle_hookEPFvvE) refers to .\objects\mbed_rtx_idle.o(i.rtos_attach_idle_hook) for rtos_attach_idle_hook
    .\objects\thread.o(i._ZN4rtos6Thread21attach_terminate_hookEPFvPvE) refers to .\objects\mbed_rtx_handlers.o(i.rtos_attach_thread_terminate_hook) for rtos_attach_thread_terminate_hook
    .\objects\thread.o(i._ZN4rtos6Thread4joinEv) refers to .\objects\semaphore.o(i._ZN4rtos9Semaphore4waitEj) for rtos::Semaphore::wait(unsigned)
    .\objects\thread.o(i._ZN4rtos6Thread4joinEv) refers to .\objects\mutex.o(i._ZN4rtos5Mutex4lockEv) for rtos::Mutex::lock()
    .\objects\thread.o(i._ZN4rtos6Thread4joinEv) refers to .\objects\mbed_assert.o(i.mbed_assert_internal) for mbed_assert_internal
    .\objects\thread.o(i._ZN4rtos6Thread4joinEv) refers to .\objects\mutex.o(i._ZN4rtos5Mutex6unlockEv) for rtos::Mutex::unlock()
    .\objects\thread.o(i._ZN4rtos6Thread4joinEv) refers to .\objects\semaphore.o(i._ZN4rtos9Semaphore7releaseEv) for rtos::Semaphore::release()
    .\objects\thread.o(i._ZN4rtos6Thread4waitEj) refers to .\objects\thisthread.o(i._ZN4rtos10ThisThread9sleep_forEj) for rtos::ThisThread::sleep_for(unsigned)
    .\objects\thread.o(i._ZN4rtos6Thread5startEN4mbed8CallbackIFvvEEE) refers to .\objects\mutex.o(i._ZN4rtos5Mutex4lockEv) for rtos::Mutex::lock()
    .\objects\thread.o(i._ZN4rtos6Thread5startEN4mbed8CallbackIFvvEEE) refers to .\objects\mutex.o(i._ZN4rtos5Mutex6unlockEv) for rtos::Mutex::unlock()
    .\objects\thread.o(i._ZN4rtos6Thread5startEN4mbed8CallbackIFvvEEE) refers to .\objects\mbed_retarget.o(i._Znaj) for operator new[] (unsigned)
    .\objects\thread.o(i._ZN4rtos6Thread5startEN4mbed8CallbackIFvvEEE) refers to .\objects\mbed_assert.o(i.mbed_assert_internal) for mbed_assert_internal
    .\objects\thread.o(i._ZN4rtos6Thread5startEN4mbed8CallbackIFvvEEE) refers to D:\ProgramFiles\Keil_v5\ARM\ARMCC\Bin\..\lib\armlib\c_w.l(rt_memclr_w.o)(.text) for __aeabi_memclr4
    .\objects\thread.o(i._ZN4rtos6Thread5startEN4mbed8CallbackIFvvEEE) refers to .\objects\can.o(t._ZN4mbed8CallbackIFvvEED1Ev) for mbed::Callback<void()>::~Callback()
    .\objects\thread.o(i._ZN4rtos6Thread5startEN4mbed8CallbackIFvvEEE) refers to .\objects\thread.o(t._ZN4mbed8CallbackIFvvEEC1ERKS2_) for mbed::Callback<void()>::Callback(const mbed::Callback<void()>&)
    .\objects\thread.o(i._ZN4rtos6Thread5startEN4mbed8CallbackIFvvEEE) refers to .\objects\rtx_thread.o(i.osThreadNew) for osThreadNew
    .\objects\thread.o(i._ZN4rtos6Thread5startEN4mbed8CallbackIFvvEEE) refers to .\objects\mbed_retarget.o(i._ZdaPv) for operator delete[] (void*)
    .\objects\thread.o(i._ZN4rtos6Thread5startEN4mbed8CallbackIFvvEEE) refers to .\objects\semaphore.o(i._ZN4rtos9Semaphore7releaseEv) for rtos::Semaphore::release()
    .\objects\thread.o(i._ZN4rtos6Thread5startEN4mbed8CallbackIFvvEEE) refers to .\objects\thread.o(i._ZN4rtos6Thread6_thunkEPv) for rtos::Thread::_thunk(void*)
    .\objects\thread.o(i._ZN4rtos6Thread5yieldEv) refers to .\objects\rtx_thread.o(i.osThreadYield) for osThreadYield
    .\objects\thread.o(i._ZN4rtos6Thread6_thunkEPv) refers to .\objects\mbed_assert.o(i.mbed_assert_internal) for mbed_assert_internal
    .\objects\thread.o(i._ZN4rtos6Thread6_thunkEPv) refers to .\objects\mutex.o(i._ZN4rtos5Mutex4lockEv) for rtos::Mutex::lock()
    .\objects\thread.o(i._ZN4rtos6Thread6_thunkEPv) refers to .\objects\semaphore.o(i._ZN4rtos9Semaphore7releaseEv) for rtos::Semaphore::release()
    .\objects\thread.o(i._ZN4rtos6Thread6_thunkEPv) refers to .\objects\can.o(.constdata__ZZNK4mbed8CallbackIFvvEE4callEvEs_0) for mbed::Callback<void()>::call() const::string (instance 2)
    .\objects\thread.o(i._ZN4rtos6Thread6_thunkEPv) refers to .\objects\can.o(.constdata__ZZNK4mbed8CallbackIFvvEE4callEvEs) for mbed::Callback<void()>::call() const::string
    .\objects\thread.o(i._ZN4rtos6Thread6gettidEv) refers to .\objects\rtx_thread.o(i.osThreadGetId) for osThreadGetId
    .\objects\thread.o(i._ZN4rtos6Thread9flags_setEj) refers to .\objects\rtx_thread.o(i.osThreadFlagsSet) for osThreadFlagsSet
    .\objects\thread.o(i._ZN4rtos6Thread9flags_setEj) refers to .\objects\mbed_assert.o(i.mbed_assert_internal) for mbed_assert_internal
    .\objects\thread.o(i._ZN4rtos6Thread9terminateEv) refers to .\objects\mutex.o(i._ZN4rtos5Mutex4lockEv) for rtos::Mutex::lock()
    .\objects\thread.o(i._ZN4rtos6Thread9terminateEv) refers to .\objects\semaphore.o(i._ZN4rtos9Semaphore7releaseEv) for rtos::Semaphore::release()
    .\objects\thread.o(i._ZN4rtos6Thread9terminateEv) refers to .\objects\rtx_thread.o(i.osThreadTerminate) for osThreadTerminate
    .\objects\thread.o(i._ZN4rtos6Thread9terminateEv) refers to .\objects\mutex.o(i._ZN4rtos5Mutex6unlockEv) for rtos::Mutex::unlock()
    .\objects\thread.o(i._ZN4rtos6ThreadD0Ev) refers to .\objects\thread.o(i._ZN4rtos6ThreadD1Ev) for rtos::Thread::~Thread()
    .\objects\thread.o(i._ZN4rtos6ThreadD0Ev) refers to .\objects\mbed_retarget.o(i._ZdlPv) for operator delete (void*)
    .\objects\thread.o(i._ZN4rtos6ThreadD1Ev) refers to .\objects\thread.o(i._ZN4rtos6Thread9terminateEv) for rtos::Thread::terminate()
    .\objects\thread.o(i._ZN4rtos6ThreadD1Ev) refers to .\objects\mbed_retarget.o(i._ZdaPv) for operator delete[] (void*)
    .\objects\thread.o(i._ZN4rtos6ThreadD1Ev) refers to .\objects\mutex.o(i._ZN4rtos5MutexD1Ev) for rtos::Mutex::~Mutex()
    .\objects\thread.o(i._ZN4rtos6ThreadD1Ev) refers to .\objects\semaphore.o(i._ZN4rtos9SemaphoreD1Ev) for rtos::Semaphore::~Semaphore()
    .\objects\thread.o(i._ZN4rtos6ThreadD1Ev) refers to .\objects\can.o(t._ZN4mbed8CallbackIFvvEED1Ev) for mbed::Callback<void()>::~Callback()
    .\objects\thread.o(i._ZN4rtos6ThreadD1Ev) refers to .\objects\thread.o(.constdata__ZTVN4rtos6ThreadE) for vtable for rtos::Thread
    .\objects\thread.o(i._ZNK4rtos6Thread10free_stackEv) refers to .\objects\mutex.o(i._ZN4rtos5Mutex4lockEv) for rtos::Mutex::lock()
    .\objects\thread.o(i._ZNK4rtos6Thread10free_stackEv) refers to .\objects\mutex.o(i._ZN4rtos5Mutex6unlockEv) for rtos::Mutex::unlock()
    .\objects\thread.o(i._ZNK4rtos6Thread10stack_sizeEv) refers to .\objects\mutex.o(i._ZN4rtos5Mutex4lockEv) for rtos::Mutex::lock()
    .\objects\thread.o(i._ZNK4rtos6Thread10stack_sizeEv) refers to .\objects\rtx_thread.o(i.osThreadGetStackSize) for osThreadGetStackSize
    .\objects\thread.o(i._ZNK4rtos6Thread10stack_sizeEv) refers to .\objects\mutex.o(i._ZN4rtos5Mutex6unlockEv) for rtos::Mutex::unlock()
    .\objects\thread.o(i._ZNK4rtos6Thread10used_stackEv) refers to .\objects\mutex.o(i._ZN4rtos5Mutex4lockEv) for rtos::Mutex::lock()
    .\objects\thread.o(i._ZNK4rtos6Thread10used_stackEv) refers to .\objects\mutex.o(i._ZN4rtos5Mutex6unlockEv) for rtos::Mutex::unlock()
    .\objects\thread.o(i._ZNK4rtos6Thread12get_priorityEv) refers to .\objects\mutex.o(i._ZN4rtos5Mutex4lockEv) for rtos::Mutex::lock()
    .\objects\thread.o(i._ZNK4rtos6Thread12get_priorityEv) refers to .\objects\rtx_thread.o(i.osThreadGetPriority) for osThreadGetPriority
    .\objects\thread.o(i._ZNK4rtos6Thread12get_priorityEv) refers to .\objects\mutex.o(i._ZN4rtos5Mutex6unlockEv) for rtos::Mutex::unlock()
    .\objects\thread.o(i._ZNK4rtos6Thread9get_stateEv) refers to .\objects\mutex.o(i._ZN4rtos5Mutex4lockEv) for rtos::Mutex::lock()
    .\objects\thread.o(i._ZNK4rtos6Thread9get_stateEv) refers to .\objects\mutex.o(i._ZN4rtos5Mutex6unlockEv) for rtos::Mutex::unlock()
    .\objects\thread.o(i._ZNK4rtos6Thread9max_stackEv) refers to .\objects\mutex.o(i._ZN4rtos5Mutex4lockEv) for rtos::Mutex::lock()
    .\objects\thread.o(i._ZNK4rtos6Thread9max_stackEv) refers to .\objects\mutex.o(i._ZN4rtos5Mutex6unlockEv) for rtos::Mutex::unlock()
    .\objects\thread.o(.ARM.exidx) refers to .\objects\thread.o(i._ZN4rtos6Thread6_thunkEPv) for i._ZN4rtos6Thread6_thunkEPv
    .\objects\thread.o(.ARM.exidx) refers to .\objects\thread.o(i._ZN4rtos6Thread5startEN4mbed8CallbackIFvvEEE) for i._ZN4rtos6Thread5startEN4mbed8CallbackIFvvEEE
    .\objects\thread.o(.ARM.exidx) refers to .\objects\thread.o(i._ZN4rtos6Thread4joinEv) for i._ZN4rtos6Thread4joinEv
    .\objects\thread.o(.ARM.exidx) refers to .\objects\thread.o(i._ZN4rtos6Thread9terminateEv) for i._ZN4rtos6Thread9terminateEv
    .\objects\thread.o(.ARM.exidx) refers to .\objects\thread.o(i._ZN4rtos6Thread12set_priorityE12osPriority_t) for i._ZN4rtos6Thread12set_priorityE12osPriority_t
    .\objects\thread.o(.ARM.exidx) refers to .\objects\thread.o(i._ZNK4rtos6Thread12get_priorityEv) for i._ZNK4rtos6Thread12get_priorityEv
    .\objects\thread.o(.ARM.exidx) refers to .\objects\thread.o(i._ZN4rtos6Thread9flags_setEj) for i._ZN4rtos6Thread9flags_setEj
    .\objects\thread.o(.ARM.exidx) refers to .\objects\thread.o(i._ZN4rtos6Thread10signal_setEi) for i._ZN4rtos6Thread10signal_setEi
    .\objects\thread.o(.ARM.exidx) refers to .\objects\thread.o(i._ZNK4rtos6Thread9get_stateEv) for i._ZNK4rtos6Thread9get_stateEv
    .\objects\thread.o(.ARM.exidx) refers to .\objects\thread.o(i._ZNK4rtos6Thread10stack_sizeEv) for i._ZNK4rtos6Thread10stack_sizeEv
    .\objects\thread.o(.ARM.exidx) refers to .\objects\thread.o(i._ZNK4rtos6Thread10free_stackEv) for i._ZNK4rtos6Thread10free_stackEv
    .\objects\thread.o(.ARM.exidx) refers to .\objects\thread.o(i._ZNK4rtos6Thread10used_stackEv) for i._ZNK4rtos6Thread10used_stackEv
    .\objects\thread.o(.ARM.exidx) refers to .\objects\thread.o(i._ZNK4rtos6Thread9max_stackEv) for i._ZNK4rtos6Thread9max_stackEv
    .\objects\thread.o(.ARM.exidx) refers to .\objects\thread.o(i._ZNK4rtos6Thread8get_nameEv) for i._ZNK4rtos6Thread8get_nameEv
    .\objects\thread.o(.ARM.exidx) refers to .\objects\thread.o(i._ZNK4rtos6Thread6get_idEv) for i._ZNK4rtos6Thread6get_idEv
    .\objects\thread.o(.ARM.exidx) refers to .\objects\thread.o(i._ZN4rtos6Thread10signal_clrEi) for i._ZN4rtos6Thread10signal_clrEi
    .\objects\thread.o(.ARM.exidx) refers to .\objects\thread.o(i._ZN4rtos6Thread11signal_waitEij) for i._ZN4rtos6Thread11signal_waitEij
    .\objects\thread.o(.ARM.exidx) refers to .\objects\thread.o(i._ZN4rtos6Thread4waitEj) for i._ZN4rtos6Thread4waitEj
    .\objects\thread.o(.ARM.exidx) refers to .\objects\thread.o(i._ZN4rtos6Thread10wait_untilEy) for i._ZN4rtos6Thread10wait_untilEy
    .\objects\thread.o(.ARM.exidx) refers to .\objects\thread.o(i._ZN4rtos6Thread5yieldEv) for i._ZN4rtos6Thread5yieldEv
    .\objects\thread.o(.ARM.exidx) refers to .\objects\thread.o(i._ZN4rtos6Thread6gettidEv) for i._ZN4rtos6Thread6gettidEv
    .\objects\thread.o(.ARM.exidx) refers to .\objects\thread.o(i._ZN4rtos6Thread16attach_idle_hookEPFvvE) for i._ZN4rtos6Thread16attach_idle_hookEPFvvE
    .\objects\thread.o(.ARM.exidx) refers to .\objects\thread.o(i._ZN4rtos6Thread21attach_terminate_hookEPFvPvE) for i._ZN4rtos6Thread21attach_terminate_hookEPFvPvE
    .\objects\thread.o(.ARM.exidx) refers to .\objects\thread.o(i._ZN4rtos6ThreadD1Ev) for i._ZN4rtos6ThreadD1Ev
    .\objects\thread.o(.ARM.exidx) refers to .\objects\thread.o(i._ZN4rtos6ThreadD0Ev) for i._ZN4rtos6ThreadD0Ev
    .\objects\thread.o(.ARM.exidx) refers to .\objects\thread.o(i._ZN4rtos6Thread11constructorEj12osPriority_tjPhPKc) for i._ZN4rtos6Thread11constructorEj12osPriority_tjPhPKc
    .\objects\thread.o(.ARM.exidx) refers to .\objects\thread.o(i._ZN4rtos6Thread11constructorE12osPriority_tjPhPKc) for i._ZN4rtos6Thread11constructorE12osPriority_tjPhPKc
    .\objects\thread.o(.ARM.exidx) refers to .\objects\thread.o(i._ZN4rtos6Thread11constructorEN4mbed8CallbackIFvvEEE12osPriority_tjPhPKc) for i._ZN4rtos6Thread11constructorEN4mbed8CallbackIFvvEEE12osPriority_tjPhPKc
    .\objects\analogin_api.o(i.analogin_read) refers to .\objects\analogin_device.o(i.adc_read) for adc_read
    .\objects\analogin_api.o(i.analogin_read_u16) refers to .\objects\analogin_device.o(i.adc_read) for adc_read
    .\objects\analogout_api.o(i.analogout_read) refers to .\objects\analogout_api.o(i.dac_read) for dac_read
    .\objects\analogout_api.o(i.analogout_read_u16) refers to .\objects\analogout_api.o(i.dac_read) for dac_read
    .\objects\analogout_api.o(i.analogout_write) refers to .\objects\analogout_api.o(i.dac_write) for dac_write
    .\objects\analogout_api.o(i.analogout_write_u16) refers to .\objects\analogout_api.o(i.dac_write) for dac_write
    .\objects\analogout_api.o(i.dac_read) refers to .\objects\stm32f4xx_hal_dac.o(i.HAL_DAC_GetValue) for HAL_DAC_GetValue
    .\objects\analogout_api.o(i.dac_write) refers to .\objects\stm32f4xx_hal_dac.o(i.HAL_DAC_SetValue) for HAL_DAC_SetValue
    .\objects\analogout_api.o(i.dac_write) refers to .\objects\stm32f4xx_hal_dac.o(i.HAL_DAC_Start) for HAL_DAC_Start
    .\objects\can_api.o(i.CAN1_RX0_IRQHandler) refers to .\objects\can_api.o(i.can_irq) for can_irq
    .\objects\can_api.o(i.CAN1_SCE_IRQHandler) refers to .\objects\can_api.o(i.can_irq) for can_irq
    .\objects\can_api.o(i.CAN1_TX_IRQHandler) refers to .\objects\can_api.o(i.can_irq) for can_irq
    .\objects\can_api.o(i.CAN2_RX0_IRQHandler) refers to .\objects\can_api.o(i.can_irq) for can_irq
    .\objects\can_api.o(i.CAN2_SCE_IRQHandler) refers to .\objects\can_api.o(i.can_irq) for can_irq
    .\objects\can_api.o(i.CAN2_TX_IRQHandler) refers to .\objects\can_api.o(i.can_irq) for can_irq
    .\objects\can_api.o(i.can_filter) refers to .\objects\stm32f4xx_hal_can_legacy.o(i.HAL_CAN_ConfigFilter) for HAL_CAN_ConfigFilter
    .\objects\can_api.o(i.can_frequency) refers to .\objects\stm32f4xx_hal_rcc.o(i.HAL_RCC_GetPCLK1Freq) for HAL_RCC_GetPCLK1Freq
    .\objects\can_api.o(i.can_frequency) refers to .\objects\can_api.o(i.can_speed) for can_speed
    .\objects\can_api.o(i.can_frequency) refers to .\objects\hal_tick_overrides.o(i.HAL_GetTick) for HAL_GetTick
    .\objects\can_api.o(i.can_frequency) refers to .\objects\mbed_error.o(i.error) for error
    .\objects\can_api.o(i.can_init) refers to .\objects\can_api.o(i.can_init_freq) for can_init_freq
    .\objects\can_api.o(i.can_init_freq) refers to .\objects\mbed_pinmap_common.o(i.pinmap_peripheral) for pinmap_peripheral
    .\objects\can_api.o(i.can_init_freq) refers to .\objects\mbed_pinmap_common.o(i.pinmap_merge) for pinmap_merge
    .\objects\can_api.o(i.can_init_freq) refers to .\objects\mbed_assert.o(i.mbed_assert_internal) for mbed_assert_internal
    .\objects\can_api.o(i.can_init_freq) refers to .\objects\mbed_pinmap_common.o(i.pinmap_pinout) for pinmap_pinout
    .\objects\can_api.o(i.can_init_freq) refers to .\objects\pinmap.o(i.pin_mode) for pin_mode
    .\objects\can_api.o(i.can_init_freq) refers to .\objects\can_api.o(i.can_registers_init) for can_registers_init
    .\objects\can_api.o(i.can_init_freq) refers to .\objects\can_api.o(i.can_filter) for can_filter
    .\objects\can_api.o(i.can_init_freq) refers to .\objects\peripheralpins.o(.constdata) for PinMap_CAN_RD
    .\objects\can_api.o(i.can_irq) refers to .\objects\can_api.o(.data) for can_irq_ids
    .\objects\can_api.o(i.can_irq_free) refers to .\objects\can_api.o(.data) for can_irq_ids
    .\objects\can_api.o(i.can_irq_init) refers to .\objects\can_api.o(.data) for irq_handler
    .\objects\can_api.o(i.can_irq_set) refers to .\objects\can_api.o(i.CAN1_RX0_IRQHandler) for CAN1_RX0_IRQHandler
    .\objects\can_api.o(i.can_irq_set) refers to .\objects\can_api.o(i.CAN1_TX_IRQHandler) for CAN1_TX_IRQHandler
    .\objects\can_api.o(i.can_irq_set) refers to .\objects\can_api.o(i.CAN1_SCE_IRQHandler) for CAN1_SCE_IRQHandler
    .\objects\can_api.o(i.can_irq_set) refers to .\objects\can_api.o(i.CAN2_RX0_IRQHandler) for CAN2_RX0_IRQHandler
    .\objects\can_api.o(i.can_irq_set) refers to .\objects\can_api.o(i.CAN2_TX_IRQHandler) for CAN2_TX_IRQHandler
    .\objects\can_api.o(i.can_irq_set) refers to .\objects\can_api.o(i.CAN2_SCE_IRQHandler) for CAN2_SCE_IRQHandler
    .\objects\can_api.o(i.can_monitor) refers to .\objects\can_api.o(i.can_mode) for can_mode
    .\objects\can_api.o(i.can_registers_init) refers to .\objects\stm32f4xx_hal_can_legacy.o(i.HAL_CAN_Init) for HAL_CAN_Init
    .\objects\can_api.o(i.can_registers_init) refers to .\objects\mbed_error.o(i.error) for error
    .\objects\can_api.o(i.can_registers_init) refers to .\objects\can_api.o(i.can_frequency) for can_frequency
    .\objects\can_api.o(i.can_reset) refers to .\objects\can_api.o(i.can_registers_init) for can_registers_init
    .\objects\can_api.o(i.can_speed) refers to .\objects\can_api.o(.constdata) for timing_pts
    .\objects\gpio_api.o(i.Set_GPIO_Clock) refers to .\objects\mbed_error.o(i.error) for error
    .\objects\gpio_api.o(i.gpio_init) refers to .\objects\gpio_api.o(i.Set_GPIO_Clock) for Set_GPIO_Clock
    .\objects\gpio_api.o(i.gpio_init) refers to .\objects\gpio_api.o(i.gpio_set) for gpio_set
    .\objects\gpio_api.o(i.gpio_init) refers to .\objects\pinmap.o(.constdata) for ll_pin_defines
    .\objects\gpio_api.o(i.gpio_mode) refers to .\objects\pinmap.o(i.pin_mode) for pin_mode
    .\objects\gpio_api.o(i.gpio_set) refers to .\objects\mbed_assert.o(i.mbed_assert_internal) for mbed_assert_internal
    .\objects\gpio_api.o(i.gpio_set) refers to .\objects\pinmap.o(i.pin_function) for pin_function
    .\objects\gpio_irq_api.o(i.gpio_irq0) refers to .\objects\gpio_irq_api.o(i.handle_interrupt_in) for handle_interrupt_in
    .\objects\gpio_irq_api.o(i.gpio_irq1) refers to .\objects\gpio_irq_api.o(i.handle_interrupt_in) for handle_interrupt_in
    .\objects\gpio_irq_api.o(i.gpio_irq2) refers to .\objects\gpio_irq_api.o(i.handle_interrupt_in) for handle_interrupt_in
    .\objects\gpio_irq_api.o(i.gpio_irq3) refers to .\objects\gpio_irq_api.o(i.handle_interrupt_in) for handle_interrupt_in
    .\objects\gpio_irq_api.o(i.gpio_irq4) refers to .\objects\gpio_irq_api.o(i.handle_interrupt_in) for handle_interrupt_in
    .\objects\gpio_irq_api.o(i.gpio_irq5) refers to .\objects\gpio_irq_api.o(i.handle_interrupt_in) for handle_interrupt_in
    .\objects\gpio_irq_api.o(i.gpio_irq6) refers to .\objects\gpio_irq_api.o(i.handle_interrupt_in) for handle_interrupt_in
    .\objects\gpio_irq_api.o(i.gpio_irq_disable) refers to .\objects\gpio_irq_api.o(i.LL_EXTI_DisableRisingTrig_0_31) for LL_EXTI_DisableRisingTrig_0_31
    .\objects\gpio_irq_api.o(i.gpio_irq_disable) refers to .\objects\gpio_irq_api.o(i.LL_EXTI_DisableFallingTrig_0_31) for LL_EXTI_DisableFallingTrig_0_31
    .\objects\gpio_irq_api.o(i.gpio_irq_enable) refers to .\objects\gpio_irq_api.o(i.LL_EXTI_EnableRisingTrig_0_31) for LL_EXTI_EnableRisingTrig_0_31
    .\objects\gpio_irq_api.o(i.gpio_irq_enable) refers to .\objects\gpio_irq_api.o(i.LL_EXTI_EnableFallingTrig_0_31) for LL_EXTI_EnableFallingTrig_0_31
    .\objects\gpio_irq_api.o(i.gpio_irq_free) refers to .\objects\gpio_irq_api.o(i.gpio_irq_disable) for gpio_irq_disable
    .\objects\gpio_irq_api.o(i.gpio_irq_free) refers to .\objects\gpio_irq_device.o(.constdata) for pin_lines_desc
    .\objects\gpio_irq_api.o(i.gpio_irq_free) refers to .\objects\gpio_irq_api.o(.bss) for channels
    .\objects\gpio_irq_api.o(i.gpio_irq_init) refers to .\objects\mbed_error.o(i.error) for error
    .\objects\gpio_irq_api.o(i.gpio_irq_init) refers to .\objects\gpio_api.o(i.Set_GPIO_Clock) for Set_GPIO_Clock
    .\objects\gpio_irq_api.o(i.gpio_irq_init) refers to .\objects\gpio_irq_api.o(i.gpio_irq_enable) for gpio_irq_enable
    .\objects\gpio_irq_api.o(i.gpio_irq_init) refers to .\objects\gpio_irq_device.o(.constdata) for pin_lines_desc
    .\objects\gpio_irq_api.o(i.gpio_irq_init) refers to .\objects\gpio_irq_api.o(i.gpio_irq0) for gpio_irq0
    .\objects\gpio_irq_api.o(i.gpio_irq_init) refers to .\objects\gpio_irq_api.o(i.gpio_irq1) for gpio_irq1
    .\objects\gpio_irq_api.o(i.gpio_irq_init) refers to .\objects\gpio_irq_api.o(i.gpio_irq2) for gpio_irq2
    .\objects\gpio_irq_api.o(i.gpio_irq_init) refers to .\objects\gpio_irq_api.o(i.gpio_irq3) for gpio_irq3
    .\objects\gpio_irq_api.o(i.gpio_irq_init) refers to .\objects\gpio_irq_api.o(i.gpio_irq4) for gpio_irq4
    .\objects\gpio_irq_api.o(i.gpio_irq_init) refers to .\objects\gpio_irq_api.o(i.gpio_irq5) for gpio_irq5
    .\objects\gpio_irq_api.o(i.gpio_irq_init) refers to .\objects\gpio_irq_api.o(i.gpio_irq6) for gpio_irq6
    .\objects\gpio_irq_api.o(i.gpio_irq_init) refers to .\objects\gpio_irq_api.o(.bss) for channels
    .\objects\gpio_irq_api.o(i.gpio_irq_init) refers to .\objects\gpio_irq_api.o(.data) for irq_handler
    .\objects\gpio_irq_api.o(i.gpio_irq_set) refers to .\objects\gpio_irq_api.o(i.LL_EXTI_EnableRisingTrig_0_31) for LL_EXTI_EnableRisingTrig_0_31
    .\objects\gpio_irq_api.o(i.gpio_irq_set) refers to .\objects\gpio_irq_api.o(i.LL_EXTI_DisableRisingTrig_0_31) for LL_EXTI_DisableRisingTrig_0_31
    .\objects\gpio_irq_api.o(i.gpio_irq_set) refers to .\objects\gpio_irq_api.o(i.LL_EXTI_EnableFallingTrig_0_31) for LL_EXTI_EnableFallingTrig_0_31
    .\objects\gpio_irq_api.o(i.gpio_irq_set) refers to .\objects\gpio_irq_api.o(i.LL_EXTI_DisableFallingTrig_0_31) for LL_EXTI_DisableFallingTrig_0_31
    .\objects\gpio_irq_api.o(i.handle_interrupt_in) refers to .\objects\gpio_irq_api.o(i.LL_EXTI_IsEnabledFallingTrig_0_31) for LL_EXTI_IsEnabledFallingTrig_0_31
    .\objects\gpio_irq_api.o(i.handle_interrupt_in) refers to .\objects\gpio_irq_api.o(i.LL_EXTI_IsEnabledRisingTrig_0_31) for LL_EXTI_IsEnabledRisingTrig_0_31
    .\objects\gpio_irq_api.o(i.handle_interrupt_in) refers to .\objects\mbed_error.o(i.error) for error
    .\objects\gpio_irq_api.o(i.handle_interrupt_in) refers to .\objects\gpio_irq_api.o(.bss) for channels
    .\objects\gpio_irq_api.o(i.handle_interrupt_in) refers to .\objects\gpio_irq_api.o(.data) for irq_handler
    .\objects\hal_tick_overrides.o(i.HAL_GetTick) refers to .\objects\mbed_us_ticker_api.o(i.get_us_ticker_data) for get_us_ticker_data
    .\objects\hal_tick_overrides.o(i.HAL_GetTick) refers to .\objects\mbed_ticker_api.o(i.ticker_read_us) for ticker_read_us
    .\objects\hal_tick_overrides.o(i.HAL_GetTick) refers to D:\ProgramFiles\Keil_v5\ARM\ARMCC\Bin\..\lib\armlib\c_w.l(lludivv7m.o)(.text) for __aeabi_uldivmod
    .\objects\hal_tick_overrides.o(i.HAL_GetTick) refers to .\objects\us_ticker.o(i.us_ticker_read) for us_ticker_read
    .\objects\hal_tick_overrides.o(i.HAL_GetTick) refers to .\objects\mbed_overrides.o(.data) for mbed_sdk_inited
    .\objects\hal_tick_overrides.o(i.HAL_InitTick) refers to .\objects\us_ticker.o(i.init_32bit_timer) for init_32bit_timer
    .\objects\i2c_api.o(i.HAL_I2C_AbortCpltCallback) refers to .\objects\i2c_api.o(i.get_i2c_obj) for get_i2c_obj
    .\objects\i2c_api.o(i.HAL_I2C_AbortCpltCallback) refers to .\objects\i2c_api.o(i.i2c_ev_err_disable) for i2c_ev_err_disable
    .\objects\i2c_api.o(i.HAL_I2C_AddrCallback) refers to .\objects\i2c_api.o(i.get_i2c_obj) for get_i2c_obj
    .\objects\i2c_api.o(i.HAL_I2C_ErrorCallback) refers to .\objects\i2c_api.o(i.get_i2c_obj) for get_i2c_obj
    .\objects\i2c_api.o(i.HAL_I2C_ErrorCallback) refers to .\objects\i2c_api.o(i.i2c_init) for i2c_init
    .\objects\i2c_api.o(i.HAL_I2C_ErrorCallback) refers to .\objects\i2c_api.o(i.i2c_slave_address) for i2c_slave_address
    .\objects\i2c_api.o(i.HAL_I2C_ListenCpltCallback) refers to .\objects\stm32f4xx_hal_i2c.o(i.HAL_I2C_EnableListen_IT) for HAL_I2C_EnableListen_IT
    .\objects\i2c_api.o(i.HAL_I2C_MasterRxCpltCallback) refers to .\objects\i2c_api.o(i.get_i2c_obj) for get_i2c_obj
    .\objects\i2c_api.o(i.HAL_I2C_MasterTxCpltCallback) refers to .\objects\i2c_api.o(i.get_i2c_obj) for get_i2c_obj
    .\objects\i2c_api.o(i.HAL_I2C_MasterTxCpltCallback) refers to .\objects\stm32f4xx_hal_i2c.o(i.HAL_I2C_Master_Sequential_Receive_IT) for HAL_I2C_Master_Sequential_Receive_IT
    .\objects\i2c_api.o(i.HAL_I2C_SlaveRxCpltCallback) refers to .\objects\i2c_api.o(i.get_i2c_obj) for get_i2c_obj
    .\objects\i2c_api.o(i.HAL_I2C_SlaveTxCpltCallback) refers to .\objects\i2c_api.o(i.get_i2c_obj) for get_i2c_obj
    .\objects\i2c_api.o(i.i2c1_irq) refers to .\objects\stm32f4xx_hal_i2c.o(i.HAL_I2C_EV_IRQHandler) for HAL_I2C_EV_IRQHandler
    .\objects\i2c_api.o(i.i2c1_irq) refers to .\objects\stm32f4xx_hal_i2c.o(i.HAL_I2C_ER_IRQHandler) for HAL_I2C_ER_IRQHandler
    .\objects\i2c_api.o(i.i2c1_irq) refers to .\objects\i2c_api.o(.bss) for i2c_handles
    .\objects\i2c_api.o(i.i2c2_irq) refers to .\objects\stm32f4xx_hal_i2c.o(i.HAL_I2C_EV_IRQHandler) for HAL_I2C_EV_IRQHandler
    .\objects\i2c_api.o(i.i2c2_irq) refers to .\objects\stm32f4xx_hal_i2c.o(i.HAL_I2C_ER_IRQHandler) for HAL_I2C_ER_IRQHandler
    .\objects\i2c_api.o(i.i2c2_irq) refers to .\objects\i2c_api.o(.bss) for i2c_handles
    .\objects\i2c_api.o(i.i2c3_irq) refers to .\objects\stm32f4xx_hal_i2c.o(i.HAL_I2C_EV_IRQHandler) for HAL_I2C_EV_IRQHandler
    .\objects\i2c_api.o(i.i2c3_irq) refers to .\objects\stm32f4xx_hal_i2c.o(i.HAL_I2C_ER_IRQHandler) for HAL_I2C_ER_IRQHandler
    .\objects\i2c_api.o(i.i2c3_irq) refers to .\objects\i2c_api.o(.bss) for i2c_handles
    .\objects\i2c_api.o(i.i2c5_irq) refers to .\objects\stm32f4xx_hal_i2c.o(i.HAL_I2C_EV_IRQHandler) for HAL_I2C_EV_IRQHandler
    .\objects\i2c_api.o(i.i2c5_irq) refers to .\objects\stm32f4xx_hal_i2c.o(i.HAL_I2C_ER_IRQHandler) for HAL_I2C_ER_IRQHandler
    .\objects\i2c_api.o(i.i2c5_irq) refers to .\objects\i2c_api.o(.bss) for i2c_handles
    .\objects\i2c_api.o(i.i2c_abort_asynch) refers to .\objects\stm32f4xx_hal_i2c.o(i.HAL_I2C_Master_Abort_IT) for HAL_I2C_Master_Abort_IT
    .\objects\i2c_api.o(i.i2c_ev_err_disable) refers to .\objects\stm32f4xx_hal_cortex.o(i.HAL_NVIC_DisableIRQ) for HAL_NVIC_DisableIRQ
    .\objects\i2c_api.o(i.i2c_ev_err_enable) refers to .\objects\i2c_api.o(i.__NVIC_SetVector) for __NVIC_SetVector
    .\objects\i2c_api.o(i.i2c_ev_err_enable) refers to .\objects\i2c_api.o(i.__NVIC_SetPriority) for __NVIC_SetPriority
    .\objects\i2c_api.o(i.i2c_ev_err_enable) refers to .\objects\i2c_api.o(i.__NVIC_EnableIRQ) for __NVIC_EnableIRQ
    .\objects\i2c_api.o(i.i2c_frequency) refers to .\objects\stm32f4xx_hal_i2c_ex.o(i.HAL_I2CEx_ConfigAnalogFilter) for HAL_I2CEx_ConfigAnalogFilter
    .\objects\i2c_api.o(i.i2c_frequency) refers to .\objects\stm32f4xx_hal_i2c.o(i.HAL_I2C_Init) for HAL_I2C_Init
    .\objects\i2c_api.o(i.i2c_frequency) refers to .\objects\system_stm32f4xx.o(.data) for SystemCoreClock
    .\objects\i2c_api.o(i.i2c_get_irq_handler) refers to .\objects\i2c_api.o(i.i2c1_irq) for i2c1_irq
    .\objects\i2c_api.o(i.i2c_get_irq_handler) refers to .\objects\i2c_api.o(i.i2c2_irq) for i2c2_irq
    .\objects\i2c_api.o(i.i2c_get_irq_handler) refers to .\objects\i2c_api.o(i.i2c3_irq) for i2c3_irq
    .\objects\i2c_api.o(i.i2c_get_irq_handler) refers to .\objects\i2c_api.o(i.i2c5_irq) for i2c5_irq
    .\objects\i2c_api.o(i.i2c_get_irq_handler) refers to .\objects\i2c_api.o(.bss) for i2c_handles
    .\objects\i2c_api.o(i.i2c_hw_reset) refers to .\objects\system_stm32f4xx.o(.data) for SystemCoreClock
    .\objects\i2c_api.o(i.i2c_init) refers to .\objects\mbed_pinmap_common.o(i.pinmap_peripheral) for pinmap_peripheral
    .\objects\i2c_api.o(i.i2c_init) refers to .\objects\mbed_pinmap_common.o(i.pinmap_merge) for pinmap_merge
    .\objects\i2c_api.o(i.i2c_init) refers to .\objects\mbed_assert.o(i.mbed_assert_internal) for mbed_assert_internal
    .\objects\i2c_api.o(i.i2c_init) refers to .\objects\mbed_pinmap_common.o(i.pinmap_pinout) for pinmap_pinout
    .\objects\i2c_api.o(i.i2c_init) refers to .\objects\pinmap.o(i.pin_mode) for pin_mode
    .\objects\i2c_api.o(i.i2c_init) refers to .\objects\i2c_api.o(i.i2c_hw_reset) for i2c_hw_reset
    .\objects\i2c_api.o(i.i2c_init) refers to .\objects\i2c_api.o(i.i2c_frequency) for i2c_frequency
    .\objects\i2c_api.o(i.i2c_init) refers to .\objects\peripheralpins.o(.constdata) for PinMap_I2C_SDA
    .\objects\i2c_api.o(i.i2c_irq_handler_asynch) refers to .\objects\stm32f4xx_hal_i2c.o(i.HAL_I2C_EV_IRQHandler) for HAL_I2C_EV_IRQHandler
    .\objects\i2c_api.o(i.i2c_irq_handler_asynch) refers to .\objects\stm32f4xx_hal_i2c.o(i.HAL_I2C_ER_IRQHandler) for HAL_I2C_ER_IRQHandler
    .\objects\i2c_api.o(i.i2c_read) refers to .\objects\i2c_api.o(i.i2c_get_irq_handler) for i2c_get_irq_handler
    .\objects\i2c_api.o(i.i2c_read) refers to .\objects\i2c_api.o(i.i2c_ev_err_enable) for i2c_ev_err_enable
    .\objects\i2c_api.o(i.i2c_read) refers to .\objects\stm32f4xx_hal_i2c.o(i.HAL_I2C_Master_Sequential_Receive_IT) for HAL_I2C_Master_Sequential_Receive_IT
    .\objects\i2c_api.o(i.i2c_read) refers to .\objects\mbed_wait_api_rtos.o(i.wait_us) for wait_us
    .\objects\i2c_api.o(i.i2c_read) refers to .\objects\i2c_api.o(i.i2c_ev_err_disable) for i2c_ev_err_disable
    .\objects\i2c_api.o(i.i2c_read) refers to .\objects\i2c_api.o(i.i2c_init) for i2c_init
    .\objects\i2c_api.o(i.i2c_read) refers to .\objects\system_stm32f4xx.o(.data) for SystemCoreClock
    .\objects\i2c_api.o(i.i2c_reset) refers to .\objects\i2c_api.o(i.i2c_stop) for i2c_stop
    .\objects\i2c_api.o(i.i2c_reset) refers to .\objects\i2c_api.o(i.i2c_init) for i2c_init
    .\objects\i2c_api.o(i.i2c_slave_address) refers to .\objects\stm32f4xx_hal_i2c.o(i.HAL_I2C_Init) for HAL_I2C_Init
    .\objects\i2c_api.o(i.i2c_slave_address) refers to .\objects\i2c_api.o(i.i2c_get_irq_handler) for i2c_get_irq_handler
    .\objects\i2c_api.o(i.i2c_slave_address) refers to .\objects\i2c_api.o(i.i2c_ev_err_enable) for i2c_ev_err_enable
    .\objects\i2c_api.o(i.i2c_slave_address) refers to .\objects\stm32f4xx_hal_i2c.o(i.HAL_I2C_EnableListen_IT) for HAL_I2C_EnableListen_IT
    .\objects\i2c_api.o(i.i2c_slave_mode) refers to .\objects\stm32f4xx_hal_i2c.o(i.HAL_I2C_EnableListen_IT) for HAL_I2C_EnableListen_IT
    .\objects\i2c_api.o(i.i2c_slave_mode) refers to .\objects\stm32f4xx_hal_i2c.o(i.HAL_I2C_DisableListen_IT) for HAL_I2C_DisableListen_IT
    .\objects\i2c_api.o(i.i2c_slave_read) refers to .\objects\stm32f4xx_hal_i2c.o(i.HAL_I2C_Slave_Sequential_Receive_IT) for HAL_I2C_Slave_Sequential_Receive_IT
    .\objects\i2c_api.o(i.i2c_slave_read) refers to .\objects\mbed_wait_api_rtos.o(i.wait_us) for wait_us
    .\objects\i2c_api.o(i.i2c_slave_read) refers to .\objects\system_stm32f4xx.o(.data) for SystemCoreClock
    .\objects\i2c_api.o(i.i2c_slave_write) refers to .\objects\stm32f4xx_hal_i2c.o(i.HAL_I2C_Slave_Sequential_Transmit_IT) for HAL_I2C_Slave_Sequential_Transmit_IT
    .\objects\i2c_api.o(i.i2c_slave_write) refers to .\objects\mbed_wait_api_rtos.o(i.wait_us) for wait_us
    .\objects\i2c_api.o(i.i2c_slave_write) refers to .\objects\system_stm32f4xx.o(.data) for SystemCoreClock
    .\objects\i2c_api.o(i.i2c_stop) refers to .\objects\i2c_api.o(i.i2c_init) for i2c_init
    .\objects\i2c_api.o(i.i2c_transfer_asynch) refers to .\objects\i2c_api.o(i.i2c_ev_err_enable) for i2c_ev_err_enable
    .\objects\i2c_api.o(i.i2c_transfer_asynch) refers to .\objects\stm32f4xx_hal_i2c.o(i.HAL_I2C_Master_Sequential_Transmit_IT) for HAL_I2C_Master_Sequential_Transmit_IT
    .\objects\i2c_api.o(i.i2c_transfer_asynch) refers to .\objects\stm32f4xx_hal_i2c.o(i.HAL_I2C_Master_Sequential_Receive_IT) for HAL_I2C_Master_Sequential_Receive_IT
    .\objects\i2c_api.o(i.i2c_write) refers to .\objects\i2c_api.o(i.i2c_get_irq_handler) for i2c_get_irq_handler
    .\objects\i2c_api.o(i.i2c_write) refers to .\objects\i2c_api.o(i.i2c_ev_err_enable) for i2c_ev_err_enable
    .\objects\i2c_api.o(i.i2c_write) refers to .\objects\stm32f4xx_hal_i2c.o(i.HAL_I2C_Master_Sequential_Transmit_IT) for HAL_I2C_Master_Sequential_Transmit_IT
    .\objects\i2c_api.o(i.i2c_write) refers to .\objects\mbed_wait_api_rtos.o(i.wait_us) for wait_us
    .\objects\i2c_api.o(i.i2c_write) refers to .\objects\i2c_api.o(i.i2c_ev_err_disable) for i2c_ev_err_disable
    .\objects\i2c_api.o(i.i2c_write) refers to .\objects\i2c_api.o(i.i2c_init) for i2c_init
    .\objects\i2c_api.o(i.i2c_write) refers to .\objects\system_stm32f4xx.o(.data) for SystemCoreClock
    .\objects\lp_ticker.o(i.lp_ticker_clear_interrupt) refers to .\objects\lp_ticker.o(i.lp_ticker_disable_interrupt) for lp_ticker_disable_interrupt
    .\objects\lp_ticker.o(i.lp_ticker_disable_interrupt) refers to .\objects\rtc_api.o(i.rtc_deactivate_wake_up_timer) for rtc_deactivate_wake_up_timer
    .\objects\lp_ticker.o(i.lp_ticker_fire_interrupt) refers to .\objects\rtc_api.o(i.rtc_fire_interrupt) for rtc_fire_interrupt
    .\objects\lp_ticker.o(i.lp_ticker_free) refers to .\objects\lp_ticker.o(i.lp_ticker_disable_interrupt) for lp_ticker_disable_interrupt
    .\objects\lp_ticker.o(i.lp_ticker_get_info) refers to .\objects\lp_ticker.o(.constdata) for info
    .\objects\lp_ticker.o(i.lp_ticker_init) refers to .\objects\rtc_api.o(i.rtc_init) for rtc_init
    .\objects\lp_ticker.o(i.lp_ticker_init) refers to .\objects\lp_ticker.o(i.lp_ticker_disable_interrupt) for lp_ticker_disable_interrupt
    .\objects\lp_ticker.o(i.lp_ticker_read) refers to .\objects\rtc_api.o(i.rtc_read_lp) for rtc_read_lp
    .\objects\lp_ticker.o(i.lp_ticker_set_interrupt) refers to .\objects\lp_ticker.o(i.lp_ticker_disable_interrupt) for lp_ticker_disable_interrupt
    .\objects\lp_ticker.o(i.lp_ticker_set_interrupt) refers to .\objects\rtc_api.o(i.rtc_set_wake_up_timer) for rtc_set_wake_up_timer
    .\objects\mbed_overrides.o(i.mbed_sdk_init) refers to .\objects\system_stm32f4xx.o(i.SystemCoreClockUpdate) for SystemCoreClockUpdate
    .\objects\mbed_overrides.o(i.mbed_sdk_init) refers to .\objects\stm32f4xx_hal.o(i.HAL_Init) for HAL_Init
    .\objects\mbed_overrides.o(i.mbed_sdk_init) refers to .\objects\system_clock.o(i.SetSysClock) for SetSysClock
    .\objects\mbed_overrides.o(i.mbed_sdk_init) refers to .\objects\mbed_overrides.o(.data) for mbed_sdk_inited
    .\objects\pinmap.o(i.pin_function) refers to .\objects\mbed_assert.o(i.mbed_assert_internal) for mbed_assert_internal
    .\objects\pinmap.o(i.pin_function) refers to .\objects\gpio_api.o(i.Set_GPIO_Clock) for Set_GPIO_Clock
    .\objects\pinmap.o(i.pin_function) refers to .\objects\pinmap.o(i.stm_pin_SetAFPin) for stm_pin_SetAFPin
    .\objects\pinmap.o(i.pin_function) refers to .\objects\pinmap.o(i.LL_GPIO_SetPinOutputType) for LL_GPIO_SetPinOutputType
    .\objects\pinmap.o(i.pin_function) refers to .\objects\pinmap.o(i.stm_pin_PullConfig) for stm_pin_PullConfig
    .\objects\pinmap.o(i.pin_function) refers to .\objects\pinmap.o(.constdata) for ll_pin_defines
    .\objects\pinmap.o(i.pin_mode) refers to .\objects\mbed_assert.o(i.mbed_assert_internal) for mbed_assert_internal
    .\objects\pinmap.o(i.pin_mode) refers to .\objects\gpio_api.o(i.Set_GPIO_Clock) for Set_GPIO_Clock
    .\objects\pinmap.o(i.pin_mode) refers to .\objects\pinmap.o(i.LL_GPIO_SetPinOutputType) for LL_GPIO_SetPinOutputType
    .\objects\pinmap.o(i.pin_mode) refers to .\objects\pinmap.o(i.stm_pin_PullConfig) for stm_pin_PullConfig
    .\objects\pinmap.o(i.pin_mode) refers to .\objects\pinmap.o(.constdata) for ll_pin_defines
    .\objects\pinmap.o(i.stm_pin_PullConfig) refers to .\objects\pinmap.o(i.LL_GPIO_SetPinPull) for LL_GPIO_SetPinPull
    .\objects\pinmap.o(i.stm_pin_SetAFPin) refers to .\objects\pinmap.o(.constdata) for ll_pin_defines
    .\objects\port_api.o(i.port_dir) refers to .\objects\port_api.o(i.port_pin) for port_pin
    .\objects\port_api.o(i.port_dir) refers to .\objects\pinmap.o(i.pin_function) for pin_function
    .\objects\port_api.o(i.port_init) refers to .\objects\gpio_api.o(i.Set_GPIO_Clock) for Set_GPIO_Clock
    .\objects\port_api.o(i.port_init) refers to .\objects\port_api.o(i.port_dir) for port_dir
    .\objects\port_api.o(i.port_mode) refers to .\objects\port_api.o(i.port_pin) for port_pin
    .\objects\port_api.o(i.port_mode) refers to .\objects\pinmap.o(i.pin_mode) for pin_mode
    .\objects\pwmout_api.o(i.pwmout_free) refers to .\objects\pinmap.o(i.pin_function) for pin_function
    .\objects\pwmout_api.o(i.pwmout_init) refers to .\objects\mbed_pinmap_common.o(i.pinmap_peripheral) for pinmap_peripheral
    .\objects\pwmout_api.o(i.pwmout_init) refers to .\objects\mbed_assert.o(i.mbed_assert_internal) for mbed_assert_internal
    .\objects\pwmout_api.o(i.pwmout_init) refers to .\objects\mbed_pinmap_common.o(i.pinmap_function) for pinmap_function
    .\objects\pwmout_api.o(i.pwmout_init) refers to .\objects\mbed_pinmap_common.o(i.pinmap_pinout) for pinmap_pinout
    .\objects\pwmout_api.o(i.pwmout_init) refers to .\objects\pwmout_api.o(i.pwmout_period_us) for pwmout_period_us
    .\objects\pwmout_api.o(i.pwmout_init) refers to .\objects\peripheralpins.o(.constdata) for PinMap_PWM
    .\objects\pwmout_api.o(i.pwmout_period) refers to .\objects\pwmout_api.o(i.pwmout_period_us) for pwmout_period_us
    .\objects\pwmout_api.o(i.pwmout_period_ms) refers to .\objects\pwmout_api.o(i.pwmout_period_us) for pwmout_period_us
    .\objects\pwmout_api.o(i.pwmout_period_us) refers to .\objects\pwmout_api.o(i.pwmout_read) for pwmout_read
    .\objects\pwmout_api.o(i.pwmout_period_us) refers to .\objects\stm32f4xx_hal_rcc.o(i.HAL_RCC_GetClockConfig) for HAL_RCC_GetClockConfig
    .\objects\pwmout_api.o(i.pwmout_period_us) refers to .\objects\mbed_error.o(i.error) for error
    .\objects\pwmout_api.o(i.pwmout_period_us) refers to .\objects\stm32f4xx_hal_rcc.o(i.HAL_RCC_GetPCLK1Freq) for HAL_RCC_GetPCLK1Freq
    .\objects\pwmout_api.o(i.pwmout_period_us) refers to .\objects\stm32f4xx_hal_rcc.o(i.HAL_RCC_GetPCLK2Freq) for HAL_RCC_GetPCLK2Freq
    .\objects\pwmout_api.o(i.pwmout_period_us) refers to .\objects\stm32f4xx_hal_tim.o(i.HAL_TIM_PWM_Init) for HAL_TIM_PWM_Init
    .\objects\pwmout_api.o(i.pwmout_period_us) refers to .\objects\pwmout_api.o(i.pwmout_write) for pwmout_write
    .\objects\pwmout_api.o(i.pwmout_period_us) refers to .\objects\pwmout_api.o(.bss) for TimHandle
    .\objects\pwmout_api.o(i.pwmout_period_us) refers to .\objects\pwmout_device.o(.constdata) for pwm_apb_map_table
    .\objects\pwmout_api.o(i.pwmout_pulsewidth) refers to .\objects\pwmout_api.o(i.pwmout_pulsewidth_us) for pwmout_pulsewidth_us
    .\objects\pwmout_api.o(i.pwmout_pulsewidth_ms) refers to .\objects\pwmout_api.o(i.pwmout_pulsewidth_us) for pwmout_pulsewidth_us
    .\objects\pwmout_api.o(i.pwmout_pulsewidth_us) refers to .\objects\pwmout_api.o(i.pwmout_write) for pwmout_write
    .\objects\pwmout_api.o(i.pwmout_write) refers to .\objects\stm32f4xx_hal_tim.o(i.HAL_TIM_PWM_ConfigChannel) for HAL_TIM_PWM_ConfigChannel
    .\objects\pwmout_api.o(i.pwmout_write) refers to .\objects\mbed_error.o(i.error) for error
    .\objects\pwmout_api.o(i.pwmout_write) refers to .\objects\stm32f4xx_hal_tim_ex.o(i.HAL_TIMEx_PWMN_Start) for HAL_TIMEx_PWMN_Start
    .\objects\pwmout_api.o(i.pwmout_write) refers to .\objects\stm32f4xx_hal_tim.o(i.HAL_TIM_PWM_Start) for HAL_TIM_PWM_Start
    .\objects\pwmout_api.o(i.pwmout_write) refers to .\objects\pwmout_api.o(.bss) for TimHandle
    .\objects\rtc_api.o(i.RTC_IRQHandler) refers to .\objects\rtc_api.o(.bss) for RtcHandle
    .\objects\rtc_api.o(i.RTC_IRQHandler) refers to .\objects\rtc_api.o(.data) for lp_Fired
    .\objects\rtc_api.o(i.rtc_deactivate_wake_up_timer) refers to .\objects\rtc_api.o(.bss) for RtcHandle
    .\objects\rtc_api.o(i.rtc_fire_interrupt) refers to .\objects\rtc_api.o(i.__NVIC_SetVector) for __NVIC_SetVector
    .\objects\rtc_api.o(i.rtc_fire_interrupt) refers to .\objects\rtc_api.o(i.__NVIC_EnableIRQ) for __NVIC_EnableIRQ
    .\objects\rtc_api.o(i.rtc_fire_interrupt) refers to .\objects\rtc_api.o(.data) for lp_Fired
    .\objects\rtc_api.o(i.rtc_fire_interrupt) refers to .\objects\rtc_api.o(i.RTC_IRQHandler) for RTC_IRQHandler
    .\objects\rtc_api.o(i.rtc_fire_interrupt) refers to .\objects\mbed_lp_ticker_api.o(i.lp_ticker_irq_handler) for lp_ticker_irq_handler
    .\objects\rtc_api.o(i.rtc_init) refers to D:\ProgramFiles\Keil_v5\ARM\ARMCC\Bin\..\lib\armlib\c_w.l(rt_memclr_w.o)(.text) for __aeabi_memclr4
    .\objects\rtc_api.o(i.rtc_init) refers to .\objects\stm32f4xx_hal_pwr.o(i.HAL_PWR_EnableBkUpAccess) for HAL_PWR_EnableBkUpAccess
    .\objects\rtc_api.o(i.rtc_init) refers to .\objects\stm32f4xx_hal_rcc_ex.o(i.HAL_RCC_OscConfig) for HAL_RCC_OscConfig
    .\objects\rtc_api.o(i.rtc_init) refers to .\objects\mbed_error.o(i.error) for error
    .\objects\rtc_api.o(i.rtc_init) refers to .\objects\stm32f4xx_hal_rcc_ex.o(i.HAL_RCCEx_PeriphCLKConfig) for HAL_RCCEx_PeriphCLKConfig
    .\objects\rtc_api.o(i.rtc_init) refers to .\objects\stm32f4xx_hal_rtc.o(i.HAL_RTC_Init) for HAL_RTC_Init
    .\objects\rtc_api.o(i.rtc_init) refers to .\objects\stm32f4xx_hal_rtc_ex.o(i.HAL_RTCEx_EnableBypassShadow) for HAL_RTCEx_EnableBypassShadow
    .\objects\rtc_api.o(i.rtc_init) refers to .\objects\rtc_api.o(.data) for RTC_inited
    .\objects\rtc_api.o(i.rtc_init) refers to .\objects\rtc_api.o(.bss) for RtcHandle
    .\objects\rtc_api.o(i.rtc_read) refers to .\objects\stm32f4xx_hal_rtc.o(i.RTC_Bcd2ToByte) for RTC_Bcd2ToByte
    .\objects\rtc_api.o(i.rtc_read) refers to .\objects\mbed_mktime.o(i._rtc_maketime) for _rtc_maketime
    .\objects\rtc_api.o(i.rtc_read_lp) refers to .\objects\stm32f4xx_hal_rtc.o(i.RTC_Bcd2ToByte) for RTC_Bcd2ToByte
    .\objects\rtc_api.o(i.rtc_read_lp) refers to .\objects\rtc_api.o(.data) for LP_last_RTC_time
    .\objects\rtc_api.o(i.rtc_set_wake_up_timer) refers to .\objects\rtc_api.o(i.rtc_read_lp) for rtc_read_lp
    .\objects\rtc_api.o(i.rtc_set_wake_up_timer) refers to .\objects\stm32f4xx_hal_rtc_ex.o(i.HAL_RTCEx_SetWakeUpTimer_IT) for HAL_RTCEx_SetWakeUpTimer_IT
    .\objects\rtc_api.o(i.rtc_set_wake_up_timer) refers to .\objects\mbed_error.o(i.error) for error
    .\objects\rtc_api.o(i.rtc_set_wake_up_timer) refers to .\objects\rtc_api.o(i.__NVIC_SetVector) for __NVIC_SetVector
    .\objects\rtc_api.o(i.rtc_set_wake_up_timer) refers to .\objects\rtc_api.o(i.__NVIC_EnableIRQ) for __NVIC_EnableIRQ
    .\objects\rtc_api.o(i.rtc_set_wake_up_timer) refers to .\objects\rtc_api.o(.bss) for RtcHandle
    .\objects\rtc_api.o(i.rtc_set_wake_up_timer) refers to .\objects\rtc_api.o(i.RTC_IRQHandler) for RTC_IRQHandler
    .\objects\rtc_api.o(i.rtc_set_wake_up_timer) refers to .\objects\mbed_lp_ticker_api.o(i.lp_ticker_irq_handler) for lp_ticker_irq_handler
    .\objects\rtc_api.o(i.rtc_set_wake_up_timer) refers to .\objects\rtc_api.o(.data) for irq_handler
    .\objects\rtc_api.o(i.rtc_write) refers to D:\ProgramFiles\Keil_v5\ARM\ARMCC\Bin\..\lib\armlib\c_w.l(rt_memclr_w.o)(.text) for __aeabi_memclr4
    .\objects\rtc_api.o(i.rtc_write) refers to .\objects\mbed_critical.o(i.core_util_critical_section_enter) for core_util_critical_section_enter
    .\objects\rtc_api.o(i.rtc_write) refers to .\objects\mbed_mktime.o(i._rtc_localtime) for _rtc_localtime
    .\objects\rtc_api.o(i.rtc_write) refers to .\objects\rtc_api.o(i.rtc_read_lp) for rtc_read_lp
    .\objects\rtc_api.o(i.rtc_write) refers to .\objects\stm32f4xx_hal_rtc.o(i.HAL_RTC_SetDate) for HAL_RTC_SetDate
    .\objects\rtc_api.o(i.rtc_write) refers to .\objects\mbed_error.o(i.error) for error
    .\objects\rtc_api.o(i.rtc_write) refers to .\objects\stm32f4xx_hal_rtc.o(i.HAL_RTC_SetTime) for HAL_RTC_SetTime
    .\objects\rtc_api.o(i.rtc_write) refers to .\objects\mbed_critical.o(i.core_util_critical_section_exit) for core_util_critical_section_exit
    .\objects\rtc_api.o(i.rtc_write) refers to .\objects\rtc_api.o(.bss) for RtcHandle
    .\objects\rtc_api.o(i.rtc_write) refers to .\objects\rtc_api.o(.data) for LP_last_RTC_time
    .\objects\serial_api.o(i.debug) refers to D:\ProgramFiles\Keil_v5\ARM\ARMCC\Bin\..\lib\armlib\c_w.l(vfprintf.o)(.text) for vfprintf
    .\objects\serial_api.o(i.debug) refers to D:\ProgramFiles\Keil_v5\ARM\ARMCC\Bin\..\lib\armlib\c_w.l(stdio_streams.o)(.bss) for __stderr
    .\objects\serial_api.o(i.init_uart) refers to .\objects\stm32f4xx_hal_uart.o(i.HAL_UART_Init) for HAL_UART_Init
    .\objects\serial_api.o(i.init_uart) refers to .\objects\serial_device.o(.bss) for uart_handlers
    .\objects\serial_api.o(i.serial_baud) refers to .\objects\serial_api.o(i.init_uart) for init_uart
    .\objects\serial_api.o(i.serial_baud) refers to .\objects\serial_api.o(i.debug) for debug
    .\objects\serial_api.o(i.serial_format) refers to .\objects\mbed_error.o(i.error) for error
    .\objects\serial_api.o(i.serial_format) refers to .\objects\serial_api.o(i.init_uart) for init_uart
    .\objects\serial_api.o(i.serial_free) refers to .\objects\pinmap.o(i.pin_function) for pin_function
    .\objects\serial_api.o(i.serial_free) refers to .\objects\serial_device.o(.bss) for serial_irq_ids
    .\objects\serial_api.o(i.serial_init) refers to .\objects\mbed_pinmap_common.o(i.pinmap_peripheral) for pinmap_peripheral
    .\objects\serial_api.o(i.serial_init) refers to .\objects\mbed_pinmap_common.o(i.pinmap_merge) for pinmap_merge
    .\objects\serial_api.o(i.serial_init) refers to .\objects\mbed_assert.o(i.mbed_assert_internal) for mbed_assert_internal
    .\objects\serial_api.o(i.serial_init) refers to .\objects\mbed_error.o(i.error) for error
    .\objects\serial_api.o(i.serial_init) refers to .\objects\serial_api.o(i.get_uart_index) for get_uart_index
    .\objects\serial_api.o(i.serial_init) refers to .\objects\mbed_pinmap_common.o(i.pinmap_pinout) for pinmap_pinout
    .\objects\serial_api.o(i.serial_init) refers to .\objects\pinmap.o(i.pin_mode) for pin_mode
    .\objects\serial_api.o(i.serial_init) refers to .\objects\serial_api.o(i.init_uart) for init_uart
    .\objects\serial_api.o(i.serial_init) refers to D:\ProgramFiles\Keil_v5\ARM\ARMCC\Bin\..\lib\armlib\c_w.l(rt_memcpy_w.o)(.text) for __aeabi_memcpy4
    .\objects\serial_api.o(i.serial_init) refers to .\objects\peripheralpins.o(.constdata) for PinMap_UART_TX
    .\objects\serial_api.o(i.serial_init) refers to .\objects\serial_api.o(.data) for stdio_uart_inited
    .\objects\serial_api.o(i.serial_init) refers to .\objects\serial_api.o(.bss) for stdio_uart
    .\objects\serial_api.o(i.serial_is_tx_ongoing) refers to .\objects\serial_api.o(i.LL_USART_IsEnabled) for LL_USART_IsEnabled
    .\objects\serial_api.o(i.serial_is_tx_ongoing) refers to .\objects\serial_api.o(i.LL_USART_IsActiveFlag_TC) for LL_USART_IsActiveFlag_TC
    .\objects\serial_api.o(i.serial_pinout_tx) refers to .\objects\mbed_pinmap_common.o(i.pinmap_pinout) for pinmap_pinout
    .\objects\serial_api.o(i.serial_pinout_tx) refers to .\objects\peripheralpins.o(.constdata) for PinMap_UART_TX
    .\objects\serial_api.o(i.serial_readable) refers to .\objects\serial_device.o(.bss) for uart_handlers
    .\objects\serial_api.o(i.serial_writable) refers to .\objects\serial_device.o(.bss) for uart_handlers
    .\objects\sleep.o(i.ForceClockOutofDeepSleep) refers to .\objects\sleep.o(i.ForceOscOutofDeepSleep) for ForceOscOutofDeepSleep
    .\objects\sleep.o(i.ForceClockOutofDeepSleep) refers to .\objects\sleep.o(i.ForcePeriphOutofDeepSleep) for ForcePeriphOutofDeepSleep
    .\objects\sleep.o(i.ForceOscOutofDeepSleep) refers to D:\ProgramFiles\Keil_v5\ARM\ARMCC\Bin\..\lib\armlib\c_w.l(rt_memclr_w.o)(.text) for __aeabi_memclr4
    .\objects\sleep.o(i.ForceOscOutofDeepSleep) refers to .\objects\stm32f4xx_hal_rcc_ex.o(i.HAL_RCC_GetOscConfig) for HAL_RCC_GetOscConfig
    .\objects\sleep.o(i.ForceOscOutofDeepSleep) refers to .\objects\stm32f4xx_hal_rcc_ex.o(i.HAL_RCC_OscConfig) for HAL_RCC_OscConfig
    .\objects\sleep.o(i.ForceOscOutofDeepSleep) refers to .\objects\mbed_error.o(i.error) for error
    .\objects\sleep.o(i.ForcePeriphOutofDeepSleep) refers to D:\ProgramFiles\Keil_v5\ARM\ARMCC\Bin\..\lib\armlib\c_w.l(rt_memclr_w.o)(.text) for __aeabi_memclr4
    .\objects\sleep.o(i.ForcePeriphOutofDeepSleep) refers to .\objects\stm32f4xx_hal_rcc.o(i.HAL_RCC_GetClockConfig) for HAL_RCC_GetClockConfig
    .\objects\sleep.o(i.ForcePeriphOutofDeepSleep) refers to .\objects\stm32f4xx_hal_rcc.o(i.HAL_RCC_ClockConfig) for HAL_RCC_ClockConfig
    .\objects\sleep.o(i.ForcePeriphOutofDeepSleep) refers to .\objects\mbed_error.o(i.error) for error
    .\objects\sleep.o(i.hal_deepsleep) refers to .\objects\serial_api.o(i.serial_is_tx_ongoing) for serial_is_tx_ongoing
    .\objects\sleep.o(i.hal_deepsleep) refers to .\objects\mbed_critical.o(i.core_util_critical_section_enter) for core_util_critical_section_enter
    .\objects\sleep.o(i.hal_deepsleep) refers to .\objects\us_ticker.o(i.save_timer_ctx) for save_timer_ctx
    .\objects\sleep.o(i.hal_deepsleep) refers to .\objects\stm32f4xx_hal_pwr.o(i.HAL_PWR_EnterSTOPMode) for HAL_PWR_EnterSTOPMode
    .\objects\sleep.o(i.hal_deepsleep) refers to .\objects\sleep.o(i.ForceClockOutofDeepSleep) for ForceClockOutofDeepSleep
    .\objects\sleep.o(i.hal_deepsleep) refers to .\objects\system_clock.o(i.SetSysClock) for SetSysClock
    .\objects\sleep.o(i.hal_deepsleep) refers to .\objects\sleep.o(i.wait_loop) for wait_loop
    .\objects\sleep.o(i.hal_deepsleep) refers to .\objects\us_ticker.o(i.restore_timer_ctx) for restore_timer_ctx
    .\objects\sleep.o(i.hal_deepsleep) refers to .\objects\mbed_critical.o(i.core_util_critical_section_exit) for core_util_critical_section_exit
    .\objects\sleep.o(i.hal_sleep) refers to .\objects\mbed_critical.o(i.core_util_critical_section_enter) for core_util_critical_section_enter
    .\objects\sleep.o(i.hal_sleep) refers to .\objects\stm32f4xx_hal_pwr.o(i.HAL_PWR_EnterSLEEPMode) for HAL_PWR_EnterSLEEPMode
    .\objects\sleep.o(i.hal_sleep) refers to .\objects\mbed_critical.o(i.core_util_critical_section_exit) for core_util_critical_section_exit
    .\objects\sleep.o(i.wait_loop) refers to .\objects\us_ticker.o(i.us_ticker_read) for us_ticker_read
    .\objects\stm_spi_api.o(i.init_spi) refers to .\objects\stm32f4xx_hal_spi.o(i.HAL_SPI_Init) for HAL_SPI_Init
    .\objects\stm_spi_api.o(i.init_spi) refers to .\objects\mbed_error.o(i.error) for error
    .\objects\stm_spi_api.o(i.spi_abort_asynch) refers to .\objects\stm_spi_api.o(i.__NVIC_ClearPendingIRQ) for __NVIC_ClearPendingIRQ
    .\objects\stm_spi_api.o(i.spi_abort_asynch) refers to .\objects\stm_spi_api.o(i.__NVIC_DisableIRQ) for __NVIC_DisableIRQ
    .\objects\stm_spi_api.o(i.spi_abort_asynch) refers to .\objects\stm32f4xx_hal_spi.o(i.HAL_SPI_DeInit) for HAL_SPI_DeInit
    .\objects\stm_spi_api.o(i.spi_abort_asynch) refers to .\objects\stm32f4xx_hal_spi.o(i.HAL_SPI_Init) for HAL_SPI_Init
    .\objects\stm_spi_api.o(i.spi_active) refers to .\objects\stm32f4xx_hal_spi.o(i.HAL_SPI_GetState) for HAL_SPI_GetState
    .\objects\stm_spi_api.o(i.spi_busy) refers to .\objects\stm_spi_api.o(i.ssp_busy) for ssp_busy
    .\objects\stm_spi_api.o(i.spi_format) refers to D:\ProgramFiles\Keil_v5\ARM\ARMCC\Bin\..\lib\armlib\c_w.l(vfprintf.o)(.text) for vfprintf
    .\objects\stm_spi_api.o(i.spi_format) refers to .\objects\stm_spi_api.o(i.init_spi) for init_spi
    .\objects\stm_spi_api.o(i.spi_format) refers to D:\ProgramFiles\Keil_v5\ARM\ARMCC\Bin\..\lib\armlib\c_w.l(stdio_streams.o)(.bss) for __stderr
    .\objects\stm_spi_api.o(i.spi_free) refers to .\objects\stm32f4xx_hal_spi.o(i.HAL_SPI_DeInit) for HAL_SPI_DeInit
    .\objects\stm_spi_api.o(i.spi_free) refers to .\objects\pinmap.o(i.pin_function) for pin_function
    .\objects\stm_spi_api.o(i.spi_frequency) refers to .\objects\spi_api.o(i.spi_get_clock_freq) for spi_get_clock_freq
    .\objects\stm_spi_api.o(i.spi_frequency) refers to .\objects\stm_spi_api.o(i.init_spi) for init_spi
    .\objects\stm_spi_api.o(i.spi_frequency) refers to .\objects\stm_spi_api.o(.constdata) for baudrate_prescaler_table
    .\objects\stm_spi_api.o(i.spi_init) refers to .\objects\mbed_pinmap_common.o(i.pinmap_peripheral) for pinmap_peripheral
    .\objects\stm_spi_api.o(i.spi_init) refers to .\objects\mbed_pinmap_common.o(i.pinmap_merge) for pinmap_merge
    .\objects\stm_spi_api.o(i.spi_init) refers to .\objects\mbed_assert.o(i.mbed_assert_internal) for mbed_assert_internal
    .\objects\stm_spi_api.o(i.spi_init) refers to .\objects\mbed_pinmap_common.o(i.pinmap_pinout) for pinmap_pinout
    .\objects\stm_spi_api.o(i.spi_init) refers to .\objects\stm_spi_api.o(i.init_spi) for init_spi
    .\objects\stm_spi_api.o(i.spi_init) refers to .\objects\peripheralpins.o(.constdata) for PinMap_SPI_MOSI
    .\objects\stm_spi_api.o(i.spi_master_block_write) refers to .\objects\stm_spi_api.o(i.spi_master_write) for spi_master_write
    .\objects\stm_spi_api.o(i.spi_master_block_write) refers to .\objects\stm32f4xx_hal_spi.o(i.HAL_SPI_Transmit) for HAL_SPI_Transmit
    .\objects\stm_spi_api.o(i.spi_master_block_write) refers to .\objects\stm32f4xx_hal_spi.o(i.HAL_SPI_Receive) for HAL_SPI_Receive
    .\objects\stm_spi_api.o(i.spi_master_start_asynch_transfer) refers to .\objects\stm_spi_api.o(i.__NVIC_DisableIRQ) for __NVIC_DisableIRQ
    .\objects\stm_spi_api.o(i.spi_master_start_asynch_transfer) refers to .\objects\stm_spi_api.o(i.__NVIC_ClearPendingIRQ) for __NVIC_ClearPendingIRQ
    .\objects\stm_spi_api.o(i.spi_master_start_asynch_transfer) refers to .\objects\stm32f4xx_hal_spi.o(i.HAL_SPI_TransmitReceive_IT) for HAL_SPI_TransmitReceive_IT
    .\objects\stm_spi_api.o(i.spi_master_start_asynch_transfer) refers to .\objects\stm32f4xx_hal_spi.o(i.HAL_SPI_Transmit_IT) for HAL_SPI_Transmit_IT
    .\objects\stm_spi_api.o(i.spi_master_start_asynch_transfer) refers to D:\ProgramFiles\Keil_v5\ARM\ARMCC\Bin\..\lib\armlib\c_w.l(aeabi_memset.o)(.text) for __aeabi_memset
    .\objects\stm_spi_api.o(i.spi_master_start_asynch_transfer) refers to .\objects\stm32f4xx_hal_spi.o(i.HAL_SPI_Receive_IT) for HAL_SPI_Receive_IT
    .\objects\stm_spi_api.o(i.spi_master_transfer) refers to .\objects\stm_spi_api.o(i.spi_master_start_asynch_transfer) for spi_master_start_asynch_transfer
    .\objects\stm_spi_api.o(i.spi_master_write) refers to .\objects\stm32f4xx_hal_spi.o(i.HAL_SPI_Transmit) for HAL_SPI_Transmit
    .\objects\stm_spi_api.o(i.spi_master_write) refers to .\objects\stm_spi_api.o(i.LL_SPI_ReceiveData16) for LL_SPI_ReceiveData16
    .\objects\stm_spi_api.o(i.spi_master_write) refers to .\objects\stm_spi_api.o(i.LL_SPI_ReceiveData8) for LL_SPI_ReceiveData8
    .\objects\stm_spi_api.o(i.spi_slave_read) refers to .\objects\stm_spi_api.o(i.ssp_readable) for ssp_readable
    .\objects\stm_spi_api.o(i.spi_slave_read) refers to .\objects\stm_spi_api.o(i.LL_SPI_ReceiveData16) for LL_SPI_ReceiveData16
    .\objects\stm_spi_api.o(i.spi_slave_read) refers to .\objects\stm_spi_api.o(i.LL_SPI_ReceiveData8) for LL_SPI_ReceiveData8
    .\objects\stm_spi_api.o(i.spi_slave_receive) refers to .\objects\stm_spi_api.o(i.ssp_readable) for ssp_readable
    .\objects\stm_spi_api.o(i.spi_slave_receive) refers to .\objects\stm_spi_api.o(i.ssp_busy) for ssp_busy
    .\objects\us_ticker.o(i.init_32bit_timer) refers to .\objects\stm32f4xx_hal_rcc.o(i.HAL_RCC_GetClockConfig) for HAL_RCC_GetClockConfig
    .\objects\us_ticker.o(i.init_32bit_timer) refers to .\objects\stm32f4xx_hal_rcc.o(i.HAL_RCC_GetPCLK1Freq) for HAL_RCC_GetPCLK1Freq
    .\objects\us_ticker.o(i.init_32bit_timer) refers to .\objects\stm32f4xx_hal_tim.o(i.HAL_TIM_OC_Init) for HAL_TIM_OC_Init
    .\objects\us_ticker.o(i.init_32bit_timer) refers to .\objects\stm32f4xx_hal_tim.o(i.HAL_TIM_OC_Start) for HAL_TIM_OC_Start
    .\objects\us_ticker.o(i.init_32bit_timer) refers to .\objects\us_ticker.o(.bss) for TimMasterHandle
    .\objects\us_ticker.o(i.init_32bit_timer) refers to .\objects\us_ticker.o(i.timer_irq_handler) for timer_irq_handler
    .\objects\us_ticker.o(i.restore_timer_ctx) refers to .\objects\us_ticker.o(.data) for timer_cnt_reg
    .\objects\us_ticker.o(i.restore_timer_ctx) refers to .\objects\us_ticker.o(.bss) for TimMasterHandle
    .\objects\us_ticker.o(i.save_timer_ctx) refers to .\objects\us_ticker.o(.bss) for TimMasterHandle
    .\objects\us_ticker.o(i.save_timer_ctx) refers to .\objects\us_ticker.o(.data) for timer_cnt_reg
    .\objects\us_ticker.o(i.timer_irq_handler) refers to .\objects\mbed_us_ticker_api.o(i.us_ticker_irq_handler) for us_ticker_irq_handler
    .\objects\us_ticker.o(i.timer_irq_handler) refers to .\objects\us_ticker.o(.bss) for TimMasterHandle
    .\objects\us_ticker.o(i.us_ticker_clear_interrupt) refers to .\objects\us_ticker.o(.bss) for TimMasterHandle
    .\objects\us_ticker.o(i.us_ticker_disable_interrupt) refers to .\objects\us_ticker.o(.bss) for TimMasterHandle
    .\objects\us_ticker.o(i.us_ticker_fire_interrupt) refers to .\objects\us_ticker.o(.bss) for TimMasterHandle
    .\objects\us_ticker.o(i.us_ticker_free) refers to .\objects\stm32f4xx_hal_tim.o(i.HAL_TIM_OC_Stop) for HAL_TIM_OC_Stop
    .\objects\us_ticker.o(i.us_ticker_free) refers to .\objects\us_ticker.o(i.us_ticker_disable_interrupt) for us_ticker_disable_interrupt
    .\objects\us_ticker.o(i.us_ticker_free) refers to .\objects\us_ticker.o(.bss) for TimMasterHandle
    .\objects\us_ticker.o(i.us_ticker_get_info) refers to .\objects\us_ticker.o(.constdata) for info
    .\objects\us_ticker.o(i.us_ticker_init) refers to .\objects\stm32f4xx_hal_tim.o(i.HAL_TIM_OC_Start) for HAL_TIM_OC_Start
    .\objects\us_ticker.o(i.us_ticker_init) refers to .\objects\us_ticker.o(.bss) for TimMasterHandle
    .\objects\us_ticker.o(i.us_ticker_set_interrupt) refers to .\objects\us_ticker.o(.bss) for TimMasterHandle
    .\objects\analogin_device.o(i.adc_read) refers to .\objects\stm32f4xx_hal_adc.o(i.HAL_ADC_ConfigChannel) for HAL_ADC_ConfigChannel
    .\objects\analogin_device.o(i.adc_read) refers to .\objects\stm32f4xx_hal_adc.o(i.HAL_ADC_Start) for HAL_ADC_Start
    .\objects\analogin_device.o(i.adc_read) refers to .\objects\stm32f4xx_hal_adc.o(i.HAL_ADC_PollForConversion) for HAL_ADC_PollForConversion
    .\objects\analogin_device.o(i.adc_read) refers to .\objects\stm32f4xx_hal_adc.o(i.HAL_ADC_GetValue) for HAL_ADC_GetValue
    .\objects\analogin_device.o(i.analogin_init) refers to .\objects\mbed_pinmap_common.o(i.pinmap_peripheral) for pinmap_peripheral
    .\objects\analogin_device.o(i.analogin_init) refers to .\objects\mbed_pinmap_common.o(i.pinmap_function) for pinmap_function
    .\objects\analogin_device.o(i.analogin_init) refers to .\objects\mbed_pinmap_common.o(i.pinmap_pinout) for pinmap_pinout
    .\objects\analogin_device.o(i.analogin_init) refers to .\objects\mbed_assert.o(i.mbed_assert_internal) for mbed_assert_internal
    .\objects\analogin_device.o(i.analogin_init) refers to .\objects\stm32f4xx_hal_adc.o(i.HAL_ADC_Init) for HAL_ADC_Init
    .\objects\analogin_device.o(i.analogin_init) refers to .\objects\mbed_error.o(i.error) for error
    .\objects\analogin_device.o(i.analogin_init) refers to .\objects\peripheralpins.o(.constdata) for PinMap_ADC
    .\objects\analogin_device.o(i.analogin_init) refers to .\objects\analogin_device.o(.conststring) for .conststring
    .\objects\analogout_device.o(i.analogout_init) refers to .\objects\mbed_pinmap_common.o(i.pinmap_peripheral) for pinmap_peripheral
    .\objects\analogout_device.o(i.analogout_init) refers to .\objects\mbed_pinmap_common.o(i.pinmap_function) for pinmap_function
    .\objects\analogout_device.o(i.analogout_init) refers to .\objects\mbed_assert.o(i.mbed_assert_internal) for mbed_assert_internal
    .\objects\analogout_device.o(i.analogout_init) refers to .\objects\mbed_error.o(i.error) for error
    .\objects\analogout_device.o(i.analogout_init) refers to .\objects\mbed_pinmap_common.o(i.pinmap_pinout) for pinmap_pinout
    .\objects\analogout_device.o(i.analogout_init) refers to .\objects\stm32f4xx_hal_dac.o(i.HAL_DAC_Init) for HAL_DAC_Init
    .\objects\analogout_device.o(i.analogout_init) refers to .\objects\stm32f4xx_hal_dac.o(i.HAL_DAC_ConfigChannel) for HAL_DAC_ConfigChannel
    .\objects\analogout_device.o(i.analogout_init) refers to .\objects\analogout_api.o(i.analogout_write_u16) for analogout_write_u16
    .\objects\analogout_device.o(i.analogout_init) refers to .\objects\peripheralpins.o(.constdata) for PinMap_DAC
    .\objects\analogout_device.o(i.analogout_init) refers to .\objects\analogout_device.o(.conststring) for .conststring
    .\objects\flash_api.o(i.flash_erase_sector) refers to .\objects\flash_api.o(i.flash_unlock) for flash_unlock
    .\objects\flash_api.o(i.flash_erase_sector) refers to .\objects\flash_api.o(i.GetSector) for GetSector
    .\objects\flash_api.o(i.flash_erase_sector) refers to .\objects\stm32f4xx_hal_flash_ex.o(i.HAL_FLASHEx_Erase) for HAL_FLASHEx_Erase
    .\objects\flash_api.o(i.flash_erase_sector) refers to .\objects\flash_api.o(i.flash_lock) for flash_lock
    .\objects\flash_api.o(i.flash_erase_sector) refers to .\objects\flash_api.o(.bss) for EraseInitStruct
    .\objects\flash_api.o(i.flash_get_sector_size) refers to .\objects\flash_api.o(i.GetSector) for GetSector
    .\objects\flash_api.o(i.flash_get_sector_size) refers to .\objects\flash_api.o(i.GetSectorSize) for GetSectorSize
    .\objects\flash_api.o(i.flash_lock) refers to .\objects\stm32f4xx_hal_flash.o(i.HAL_FLASH_Lock) for HAL_FLASH_Lock
    .\objects\flash_api.o(i.flash_program_page) refers to .\objects\flash_api.o(i.flash_unlock) for flash_unlock
    .\objects\flash_api.o(i.flash_program_page) refers to .\objects\stm32f4xx_hal_flash.o(i.HAL_FLASH_Program) for HAL_FLASH_Program
    .\objects\flash_api.o(i.flash_program_page) refers to .\objects\flash_api.o(i.flash_lock) for flash_lock
    .\objects\flash_api.o(i.flash_unlock) refers to .\objects\stm32f4xx_hal_flash.o(i.HAL_FLASH_Unlock) for HAL_FLASH_Unlock
    .\objects\hal_init_pre.o(i.HAL_InitPre) refers to .\objects\stm32f4xx_hal_cortex.o(i.HAL_NVIC_SetPriorityGrouping) for HAL_NVIC_SetPriorityGrouping
    .\objects\serial_device.o(i.serial_break_set) refers to .\objects\stm32f4xx_hal_uart.o(i.HAL_LIN_SendBreak) for HAL_LIN_SendBreak
    .\objects\serial_device.o(i.serial_break_set) refers to .\objects\serial_device.o(.bss) for uart_handlers
    .\objects\serial_device.o(i.serial_clear) refers to .\objects\serial_device.o(.bss) for uart_handlers
    .\objects\serial_device.o(i.serial_getc) refers to .\objects\serial_api.o(i.serial_readable) for serial_readable
    .\objects\serial_device.o(i.serial_getc) refers to .\objects\serial_device.o(.bss) for uart_handlers
    .\objects\serial_device.o(i.serial_irq_handler) refers to .\objects\serial_device.o(.data) for irq_handler
    .\objects\serial_device.o(i.serial_irq_handler) refers to .\objects\serial_device.o(.bss) for serial_irq_ids
    .\objects\serial_device.o(i.serial_irq_handler_asynch) refers to .\objects\stm32f4xx_hal_uart.o(i.HAL_UART_IRQHandler) for HAL_UART_IRQHandler
    .\objects\serial_device.o(i.serial_irq_handler_asynch) refers to .\objects\serial_device.o(i.serial_rx_abort_asynch) for serial_rx_abort_asynch
    .\objects\serial_device.o(i.serial_irq_handler_asynch) refers to .\objects\serial_device.o(.bss) for uart_handlers
    .\objects\serial_device.o(i.serial_irq_set) refers to .\objects\serial_device.o(i.__NVIC_SetVector) for __NVIC_SetVector
    .\objects\serial_device.o(i.serial_irq_set) refers to .\objects\serial_device.o(i.__NVIC_EnableIRQ) for __NVIC_EnableIRQ
    .\objects\serial_device.o(i.serial_irq_set) refers to .\objects\serial_device.o(i.__NVIC_DisableIRQ) for __NVIC_DisableIRQ
    .\objects\serial_device.o(i.serial_irq_set) refers to .\objects\serial_device.o(.bss) for uart_handlers
    .\objects\serial_device.o(i.serial_irq_set) refers to .\objects\serial_device.o(i.uart1_irq) for uart1_irq
    .\objects\serial_device.o(i.serial_irq_set) refers to .\objects\serial_device.o(i.uart2_irq) for uart2_irq
    .\objects\serial_device.o(i.serial_irq_set) refers to .\objects\serial_device.o(i.uart3_irq) for uart3_irq
    .\objects\serial_device.o(i.serial_irq_set) refers to .\objects\serial_device.o(i.uart4_irq) for uart4_irq
    .\objects\serial_device.o(i.serial_irq_set) refers to .\objects\serial_device.o(i.uart5_irq) for uart5_irq
    .\objects\serial_device.o(i.serial_irq_set) refers to .\objects\serial_device.o(i.uart6_irq) for uart6_irq
    .\objects\serial_device.o(i.serial_putc) refers to .\objects\serial_api.o(i.serial_writable) for serial_writable
    .\objects\serial_device.o(i.serial_putc) refers to .\objects\serial_device.o(.bss) for uart_handlers
    .\objects\serial_device.o(i.serial_rx_abort_asynch) refers to .\objects\serial_device.o(.bss) for uart_handlers
    .\objects\serial_device.o(i.serial_rx_active) refers to .\objects\mbed_assert.o(i.mbed_assert_internal) for mbed_assert_internal
    .\objects\serial_device.o(i.serial_rx_active) refers to .\objects\stm32f4xx_hal_uart.o(i.HAL_UART_GetState) for HAL_UART_GetState
    .\objects\serial_device.o(i.serial_rx_active) refers to .\objects\serial_device.o(.bss) for uart_handlers
    .\objects\serial_device.o(i.serial_rx_asynch) refers to .\objects\mbed_assert.o(i.mbed_assert_internal) for mbed_assert_internal
    .\objects\serial_device.o(i.serial_rx_asynch) refers to .\objects\serial_device.o(i.serial_enable_event) for serial_enable_event
    .\objects\serial_device.o(i.serial_rx_asynch) refers to .\objects\serial_device.o(i.serial_rx_buffer_set) for serial_rx_buffer_set
    .\objects\serial_device.o(i.serial_rx_asynch) refers to .\objects\serial_device.o(i.serial_get_irq_n) for serial_get_irq_n
    .\objects\serial_device.o(i.serial_rx_asynch) refers to .\objects\serial_device.o(i.__NVIC_ClearPendingIRQ) for __NVIC_ClearPendingIRQ
    .\objects\serial_device.o(i.serial_rx_asynch) refers to .\objects\serial_device.o(i.__NVIC_DisableIRQ) for __NVIC_DisableIRQ
    .\objects\serial_device.o(i.serial_rx_asynch) refers to .\objects\serial_device.o(i.__NVIC_SetPriority) for __NVIC_SetPriority
    .\objects\serial_device.o(i.serial_rx_asynch) refers to .\objects\serial_device.o(i.__NVIC_SetVector) for __NVIC_SetVector
    .\objects\serial_device.o(i.serial_rx_asynch) refers to .\objects\serial_device.o(i.__NVIC_EnableIRQ) for __NVIC_EnableIRQ
    .\objects\serial_device.o(i.serial_rx_asynch) refers to .\objects\stm32f4xx_hal_uart.o(i.HAL_UART_Receive_IT) for HAL_UART_Receive_IT
    .\objects\serial_device.o(i.serial_rx_asynch) refers to .\objects\serial_device.o(.bss) for uart_handlers
    .\objects\serial_device.o(i.serial_rx_buffer_set) refers to .\objects\serial_device.o(i.serial_rx_active) for serial_rx_active
    .\objects\serial_device.o(i.serial_set_flow_control) refers to .\objects\mbed_pinmap_common.o(i.pinmap_peripheral) for pinmap_peripheral
    .\objects\serial_device.o(i.serial_set_flow_control) refers to .\objects\mbed_pinmap_common.o(i.pinmap_merge) for pinmap_merge
    .\objects\serial_device.o(i.serial_set_flow_control) refers to .\objects\mbed_assert.o(i.mbed_assert_internal) for mbed_assert_internal
    .\objects\serial_device.o(i.serial_set_flow_control) refers to .\objects\mbed_pinmap_common.o(i.pinmap_pinout) for pinmap_pinout
    .\objects\serial_device.o(i.serial_set_flow_control) refers to .\objects\serial_api.o(i.init_uart) for init_uart
    .\objects\serial_device.o(i.serial_set_flow_control) refers to .\objects\peripheralpins.o(.constdata) for PinMap_UART_RTS
    .\objects\serial_device.o(i.serial_tx_abort_asynch) refers to .\objects\serial_device.o(.bss) for uart_handlers
    .\objects\serial_device.o(i.serial_tx_active) refers to .\objects\mbed_assert.o(i.mbed_assert_internal) for mbed_assert_internal
    .\objects\serial_device.o(i.serial_tx_active) refers to .\objects\stm32f4xx_hal_uart.o(i.HAL_UART_GetState) for HAL_UART_GetState
    .\objects\serial_device.o(i.serial_tx_active) refers to .\objects\serial_device.o(.bss) for uart_handlers
    .\objects\serial_device.o(i.serial_tx_asynch) refers to .\objects\mbed_assert.o(i.mbed_assert_internal) for mbed_assert_internal
    .\objects\serial_device.o(i.serial_tx_asynch) refers to .\objects\serial_device.o(i.serial_tx_buffer_set) for serial_tx_buffer_set
    .\objects\serial_device.o(i.serial_tx_asynch) refers to .\objects\serial_device.o(i.serial_enable_event) for serial_enable_event
    .\objects\serial_device.o(i.serial_tx_asynch) refers to .\objects\serial_device.o(i.serial_get_irq_n) for serial_get_irq_n
    .\objects\serial_device.o(i.serial_tx_asynch) refers to .\objects\serial_device.o(i.__NVIC_ClearPendingIRQ) for __NVIC_ClearPendingIRQ
    .\objects\serial_device.o(i.serial_tx_asynch) refers to .\objects\serial_device.o(i.__NVIC_DisableIRQ) for __NVIC_DisableIRQ
    .\objects\serial_device.o(i.serial_tx_asynch) refers to .\objects\serial_device.o(i.__NVIC_SetPriority) for __NVIC_SetPriority
    .\objects\serial_device.o(i.serial_tx_asynch) refers to .\objects\serial_device.o(i.__NVIC_SetVector) for __NVIC_SetVector
    .\objects\serial_device.o(i.serial_tx_asynch) refers to .\objects\serial_device.o(i.__NVIC_EnableIRQ) for __NVIC_EnableIRQ
    .\objects\serial_device.o(i.serial_tx_asynch) refers to .\objects\stm32f4xx_hal_uart.o(i.HAL_UART_Transmit_IT) for HAL_UART_Transmit_IT
    .\objects\serial_device.o(i.serial_tx_asynch) refers to .\objects\serial_device.o(.bss) for uart_handlers
    .\objects\serial_device.o(i.serial_tx_buffer_set) refers to .\objects\serial_device.o(i.serial_tx_active) for serial_tx_active
    .\objects\serial_device.o(i.uart1_irq) refers to .\objects\serial_device.o(i.uart_irq) for uart_irq
    .\objects\serial_device.o(i.uart2_irq) refers to .\objects\serial_device.o(i.uart_irq) for uart_irq
    .\objects\serial_device.o(i.uart3_irq) refers to .\objects\serial_device.o(i.uart_irq) for uart_irq
    .\objects\serial_device.o(i.uart4_irq) refers to .\objects\serial_device.o(i.uart_irq) for uart_irq
    .\objects\serial_device.o(i.uart5_irq) refers to .\objects\serial_device.o(i.uart_irq) for uart_irq
    .\objects\serial_device.o(i.uart6_irq) refers to .\objects\serial_device.o(i.uart_irq) for uart_irq
    .\objects\serial_device.o(i.uart_irq) refers to .\objects\serial_api.o(i.get_uart_index) for get_uart_index
    .\objects\serial_device.o(i.uart_irq) refers to .\objects\serial_device.o(.bss) for uart_handlers
    .\objects\serial_device.o(i.uart_irq) refers to .\objects\serial_device.o(.data) for irq_handler
    .\objects\spi_api.o(i.spi_get_clock_freq) refers to .\objects\stm32f4xx_hal_rcc.o(i.HAL_RCC_GetPCLK2Freq) for HAL_RCC_GetPCLK2Freq
    .\objects\spi_api.o(i.spi_get_clock_freq) refers to .\objects\stm32f4xx_hal_rcc.o(i.HAL_RCC_GetPCLK1Freq) for HAL_RCC_GetPCLK1Freq
    .\objects\spi_api.o(i.spi_get_clock_freq) refers to .\objects\mbed_error.o(i.error) for error
    .\objects\stm32f4xx_hal.o(i.HAL_DeInit) refers to .\objects\stm32f4xx_hal.o(i.HAL_MspDeInit) for HAL_MspDeInit
    .\objects\stm32f4xx_hal.o(i.HAL_Delay) refers to .\objects\hal_tick_overrides.o(i.HAL_GetTick) for HAL_GetTick
    .\objects\stm32f4xx_hal.o(i.HAL_Delay) refers to .\objects\stm32f4xx_hal.o(.data) for uwTickFreq
    .\objects\stm32f4xx_hal.o(i.HAL_GetTick) refers to .\objects\stm32f4xx_hal.o(.data) for uwTick
    .\objects\stm32f4xx_hal.o(i.HAL_GetTickFreq) refers to .\objects\stm32f4xx_hal.o(.data) for uwTickFreq
    .\objects\stm32f4xx_hal.o(i.HAL_GetTickPrio) refers to .\objects\stm32f4xx_hal.o(.data) for uwTickPrio
    .\objects\stm32f4xx_hal.o(i.HAL_IncTick) refers to .\objects\stm32f4xx_hal.o(.data) for uwTick
    .\objects\stm32f4xx_hal.o(i.HAL_Init) refers to .\objects\stm32f4xx_hal_cortex.o(i.HAL_NVIC_SetPriorityGrouping) for HAL_NVIC_SetPriorityGrouping
    .\objects\stm32f4xx_hal.o(i.HAL_Init) refers to .\objects\hal_tick_overrides.o(i.HAL_InitTick) for HAL_InitTick
    .\objects\stm32f4xx_hal.o(i.HAL_Init) refers to .\objects\stm32f4xx_hal.o(i.HAL_MspInit) for HAL_MspInit
    .\objects\stm32f4xx_hal.o(i.HAL_InitTick) refers to .\objects\stm32f4xx_hal_cortex.o(i.HAL_SYSTICK_Config) for HAL_SYSTICK_Config
    .\objects\stm32f4xx_hal.o(i.HAL_InitTick) refers to .\objects\stm32f4xx_hal_cortex.o(i.HAL_NVIC_SetPriority) for HAL_NVIC_SetPriority
    .\objects\stm32f4xx_hal.o(i.HAL_InitTick) refers to .\objects\stm32f4xx_hal.o(.data) for uwTickFreq
    .\objects\stm32f4xx_hal.o(i.HAL_InitTick) refers to .\objects\system_stm32f4xx.o(.data) for SystemCoreClock
    .\objects\stm32f4xx_hal.o(i.HAL_SetTickFreq) refers to .\objects\hal_tick_overrides.o(i.HAL_InitTick) for HAL_InitTick
    .\objects\stm32f4xx_hal.o(i.HAL_SetTickFreq) refers to .\objects\stm32f4xx_hal.o(.data) for uwTickFreq
    .\objects\stm32f4xx_hal_adc.o(i.ADC_DMAConvCplt) refers to .\objects\stm32f4xx_hal_adc.o(i.HAL_ADC_ConvCpltCallback) for HAL_ADC_ConvCpltCallback
    .\objects\stm32f4xx_hal_adc.o(i.ADC_DMAError) refers to .\objects\stm32f4xx_hal_adc.o(i.HAL_ADC_ErrorCallback) for HAL_ADC_ErrorCallback
    .\objects\stm32f4xx_hal_adc.o(i.ADC_DMAHalfConvCplt) refers to .\objects\stm32f4xx_hal_adc.o(i.HAL_ADC_ConvHalfCpltCallback) for HAL_ADC_ConvHalfCpltCallback
    .\objects\stm32f4xx_hal_adc.o(i.HAL_ADC_ConfigChannel) refers to .\objects\system_stm32f4xx.o(.data) for SystemCoreClock
    .\objects\stm32f4xx_hal_adc.o(i.HAL_ADC_DeInit) refers to .\objects\stm32f4xx_hal_adc.o(i.HAL_ADC_MspDeInit) for HAL_ADC_MspDeInit
    .\objects\stm32f4xx_hal_adc.o(i.HAL_ADC_IRQHandler) refers to .\objects\stm32f4xx_hal_adc.o(i.HAL_ADC_ConvCpltCallback) for HAL_ADC_ConvCpltCallback
    .\objects\stm32f4xx_hal_adc.o(i.HAL_ADC_IRQHandler) refers to .\objects\stm32f4xx_hal_adc_ex.o(i.HAL_ADCEx_InjectedConvCpltCallback) for HAL_ADCEx_InjectedConvCpltCallback
    .\objects\stm32f4xx_hal_adc.o(i.HAL_ADC_IRQHandler) refers to .\objects\stm32f4xx_hal_adc.o(i.HAL_ADC_LevelOutOfWindowCallback) for HAL_ADC_LevelOutOfWindowCallback
    .\objects\stm32f4xx_hal_adc.o(i.HAL_ADC_IRQHandler) refers to .\objects\stm32f4xx_hal_adc.o(i.HAL_ADC_ErrorCallback) for HAL_ADC_ErrorCallback
    .\objects\stm32f4xx_hal_adc.o(i.HAL_ADC_Init) refers to .\objects\stm32f4xx_hal_adc.o(i.HAL_ADC_MspInit) for HAL_ADC_MspInit
    .\objects\stm32f4xx_hal_adc.o(i.HAL_ADC_Init) refers to .\objects\stm32f4xx_hal_adc.o(i.ADC_Init) for ADC_Init
    .\objects\stm32f4xx_hal_adc.o(i.HAL_ADC_PollForConversion) refers to .\objects\hal_tick_overrides.o(i.HAL_GetTick) for HAL_GetTick
    .\objects\stm32f4xx_hal_adc.o(i.HAL_ADC_PollForEvent) refers to .\objects\hal_tick_overrides.o(i.HAL_GetTick) for HAL_GetTick
    .\objects\stm32f4xx_hal_adc.o(i.HAL_ADC_Start) refers to .\objects\system_stm32f4xx.o(.data) for SystemCoreClock
    .\objects\stm32f4xx_hal_adc.o(i.HAL_ADC_Start_DMA) refers to .\objects\stm32f4xx_hal_dma.o(i.HAL_DMA_Start_IT) for HAL_DMA_Start_IT
    .\objects\stm32f4xx_hal_adc.o(i.HAL_ADC_Start_DMA) refers to .\objects\system_stm32f4xx.o(.data) for SystemCoreClock
    .\objects\stm32f4xx_hal_adc.o(i.HAL_ADC_Start_DMA) refers to .\objects\stm32f4xx_hal_adc.o(i.ADC_DMAConvCplt) for ADC_DMAConvCplt
    .\objects\stm32f4xx_hal_adc.o(i.HAL_ADC_Start_DMA) refers to .\objects\stm32f4xx_hal_adc.o(i.ADC_DMAHalfConvCplt) for ADC_DMAHalfConvCplt
    .\objects\stm32f4xx_hal_adc.o(i.HAL_ADC_Start_DMA) refers to .\objects\stm32f4xx_hal_adc.o(i.ADC_DMAError) for ADC_DMAError
    .\objects\stm32f4xx_hal_adc.o(i.HAL_ADC_Start_IT) refers to .\objects\system_stm32f4xx.o(.data) for SystemCoreClock
    .\objects\stm32f4xx_hal_adc.o(i.HAL_ADC_Stop_DMA) refers to .\objects\stm32f4xx_hal_dma.o(i.HAL_DMA_Abort) for HAL_DMA_Abort
    .\objects\stm32f4xx_hal_adc_ex.o(i.ADC_MultiModeDMAConvCplt) refers to .\objects\stm32f4xx_hal_adc.o(i.HAL_ADC_ConvCpltCallback) for HAL_ADC_ConvCpltCallback
    .\objects\stm32f4xx_hal_adc_ex.o(i.ADC_MultiModeDMAError) refers to .\objects\stm32f4xx_hal_adc.o(i.HAL_ADC_ErrorCallback) for HAL_ADC_ErrorCallback
    .\objects\stm32f4xx_hal_adc_ex.o(i.ADC_MultiModeDMAHalfConvCplt) refers to .\objects\stm32f4xx_hal_adc.o(i.HAL_ADC_ConvHalfCpltCallback) for HAL_ADC_ConvHalfCpltCallback
    .\objects\stm32f4xx_hal_adc_ex.o(i.HAL_ADCEx_InjectedPollForConversion) refers to .\objects\hal_tick_overrides.o(i.HAL_GetTick) for HAL_GetTick
    .\objects\stm32f4xx_hal_adc_ex.o(i.HAL_ADCEx_InjectedStart) refers to .\objects\system_stm32f4xx.o(.data) for SystemCoreClock
    .\objects\stm32f4xx_hal_adc_ex.o(i.HAL_ADCEx_InjectedStart_IT) refers to .\objects\system_stm32f4xx.o(.data) for SystemCoreClock
    .\objects\stm32f4xx_hal_adc_ex.o(i.HAL_ADCEx_MultiModeStart_DMA) refers to .\objects\stm32f4xx_hal_dma.o(i.HAL_DMA_Start_IT) for HAL_DMA_Start_IT
    .\objects\stm32f4xx_hal_adc_ex.o(i.HAL_ADCEx_MultiModeStart_DMA) refers to .\objects\system_stm32f4xx.o(.data) for SystemCoreClock
    .\objects\stm32f4xx_hal_adc_ex.o(i.HAL_ADCEx_MultiModeStart_DMA) refers to .\objects\stm32f4xx_hal_adc_ex.o(i.ADC_MultiModeDMAConvCplt) for ADC_MultiModeDMAConvCplt
    .\objects\stm32f4xx_hal_adc_ex.o(i.HAL_ADCEx_MultiModeStart_DMA) refers to .\objects\stm32f4xx_hal_adc_ex.o(i.ADC_MultiModeDMAHalfConvCplt) for ADC_MultiModeDMAHalfConvCplt
    .\objects\stm32f4xx_hal_adc_ex.o(i.HAL_ADCEx_MultiModeStart_DMA) refers to .\objects\stm32f4xx_hal_adc_ex.o(i.ADC_MultiModeDMAError) for ADC_MultiModeDMAError
    .\objects\stm32f4xx_hal_adc_ex.o(i.HAL_ADCEx_MultiModeStop_DMA) refers to .\objects\stm32f4xx_hal_dma.o(i.HAL_DMA_Abort) for HAL_DMA_Abort
    .\objects\stm32f4xx_hal_can_legacy.o(i.CAN_Receive_IT) refers to .\objects\stm32f4xx_hal_can_legacy.o(i.HAL_CAN_RxCpltCallback) for HAL_CAN_RxCpltCallback
